Archive member included because of file (symbol)

obj_cooja/mtype892.a(rimeaddr.o)
                              obj_cooja/mtype892.o (rimeaddr_node_addr)
obj_cooja/mtype892.a(nullrdc.o)
                              obj_cooja/mtype892.o (nullrdc_driver)
obj_cooja/mtype892.a(mac.o)   obj_cooja/mtype892.a(nullrdc.o) (mac_call_sent_callback)
obj_cooja/mtype892.a(framer-802154.o)
                              obj_cooja/mtype892.a(nullrdc.o) (framer_802154)
obj_cooja/mtype892.a(csma.o)  obj_cooja/mtype892.o (csma_driver)
obj_cooja/mtype892.a(process.o)
                              obj_cooja/mtype892.o (process_start)
obj_cooja/mtype892.a(autostart.o)
                              obj_cooja/mtype892.o (autostart_start)
obj_cooja/mtype892.a(serial-line.o)
                              obj_cooja/mtype892.o (serial_line_init)
obj_cooja/mtype892.a(memb.o)  obj_cooja/mtype892.a(csma.o) (memb_init)
obj_cooja/mtype892.a(list.o)  obj_cooja/mtype892.a(csma.o) (list_init)
obj_cooja/mtype892.a(etimer.o)
                              obj_cooja/mtype892.o (etimer_process)
obj_cooja/mtype892.a(ctimer.o)
                              obj_cooja/mtype892.o (ctimer_init)
obj_cooja/mtype892.a(energest.o)
                              desk-controller.co (energest_type_time)
obj_cooja/mtype892.a(random.o)
                              desk-controller.co (random_rand)
obj_cooja/mtype892.a(ringbuf.o)
                              obj_cooja/mtype892.a(serial-line.o) (ringbuf_init)
obj_cooja/mtype892.a(netstack.o)
                              obj_cooja/mtype892.o (netstack_init)
obj_cooja/mtype892.a(packetbuf.o)
                              obj_cooja/mtype892.a(nullrdc.o) (packetbuf_attrs)
obj_cooja/mtype892.a(queuebuf.o)
                              obj_cooja/mtype892.o (queuebuf_init)
obj_cooja/mtype892.a(sicslowpan.o)
                              obj_cooja/mtype892.o (sicslowpan_driver)
obj_cooja/mtype892.a(simple-udp.o)
                              desk-controller.co (simple_udp_sendto)
obj_cooja/mtype892.a(tcpip.o)
                              obj_cooja/mtype892.a(simple-udp.o) (tcpip_event)
obj_cooja/mtype892.a(uip-debug.o)
                              desk-controller.co (uip_debug_ipaddr_print)
obj_cooja/mtype892.a(uip-ds6-route.o)
                              obj_cooja/mtype892.a(tcpip.o) (uip_ds6_route_nexthop)
obj_cooja/mtype892.a(uip-ds6-nbr.o)
                              obj_cooja/mtype892.a(tcpip.o) (uip_ds6_nbr_add)
obj_cooja/mtype892.a(uip-ds6.o)
                              obj_cooja/mtype892.a(tcpip.o) (uip_ds6_timer_periodic)
obj_cooja/mtype892.a(uip-nd6.o)
                              obj_cooja/mtype892.a(tcpip.o) (uip_nd6_ns_output)
obj_cooja/mtype892.a(uip-packetqueue)
                              obj_cooja/mtype892.a(uip-ds6-nbr.o) (uip_packetqueue_new)
obj_cooja/mtype892.a(uip-udp-packet.)
                              obj_cooja/mtype892.a(simple-udp.o) (uip_udp_packet_sendto)
obj_cooja/mtype892.a(uip6.o)  desk-controller.co (uip_lladdr)
obj_cooja/mtype892.a(servreg-hack.o)
                              desk-controller.co (servreg_hack_init)
obj_cooja/mtype892.a(simEnvChange.o)
                              obj_cooja/mtype892.o (simDontFallAsleep)
obj_cooja/mtype892.a(cooja_mt.o)
                              obj_cooja/mtype892.o (cooja_mt_start)
obj_cooja/mtype892.a(cooja_mtarch.o)
                              obj_cooja/mtype892.a(cooja_mt.o) (cooja_mtarch_init)
obj_cooja/mtype892.a(rtimer-arch.o)
                              obj_cooja/mtype892.o (rtimer_arch_next)
obj_cooja/mtype892.a(watchdog.o)
                              obj_cooja/mtype892.a(nullrdc.o) (watchdog_periodic)
obj_cooja/mtype892.a(beep.o)  obj_cooja/mtype892.o (beep_interface)
obj_cooja/mtype892.a(button-sensor.o)
                              obj_cooja/mtype892.o (button_interface)
obj_cooja/mtype892.a(leds-arch.o)
                              obj_cooja/mtype892.o (leds_interface)
obj_cooja/mtype892.a(moteid.o)
                              obj_cooja/mtype892.o (moteid_interface)
obj_cooja/mtype892.a(pir-sensor.o)
                              obj_cooja/mtype892.o (pir_interface)
obj_cooja/mtype892.a(rs232.o)
                              obj_cooja/mtype892.o (rs232_interface)
obj_cooja/mtype892.a(vib-sensor.o)
                              obj_cooja/mtype892.o (vib_interface)
obj_cooja/mtype892.a(clock.o)
                              obj_cooja/mtype892.o (clock_interface)
obj_cooja/mtype892.a(log.o)   obj_cooja/mtype892.o (simlog_interface)
obj_cooja/mtype892.a(cfs-cooja.o)
                              obj_cooja/mtype892.o (cfs_interface)
obj_cooja/mtype892.a(cooja-radio.o)
                              obj_cooja/mtype892.o (radio_interface)
obj_cooja/mtype892.a(sensors.o)
                              desk-controller.co (sensors_event)
obj_cooja/mtype892.a(leds.o)  desk-controller.co (leds_toggle)
obj_cooja/mtype892.a(rimestats.o)
                              obj_cooja/mtype892.a(nullrdc.o) (rimestats)
obj_cooja/mtype892.a(frame802154.o)
                              obj_cooja/mtype892.a(framer-802154.o) (frame802154_hdrlen)
obj_cooja/mtype892.a(rpl.o)   obj_cooja/mtype892.a(uip-ds6-nbr.o) (rpl_link_neighbor_callback)
obj_cooja/mtype892.a(rpl-dag.o)
                              obj_cooja/mtype892.a(rpl.o) (instance_table)
obj_cooja/mtype892.a(rpl-icmp6.o)
                              obj_cooja/mtype892.a(rpl-dag.o) (dao_output)
obj_cooja/mtype892.a(rpl-timers.o)
                              obj_cooja/mtype892.a(rpl.o) (rpl_reset_periodic_timer)
obj_cooja/mtype892.a(rpl-mrhof.o)
                              obj_cooja/mtype892.a(rpl-dag.o) (rpl_mrhof)
obj_cooja/mtype892.a(rpl-ext-header.)
                              obj_cooja/mtype892.a(uip6.o) (rpl_verify_header)
obj_cooja/mtype892.a(timer.o)
                              obj_cooja/mtype892.a(etimer.o) (timer_set)
obj_cooja/mtype892.a(rtimer.o)
                              obj_cooja/mtype892.a(rtimer-arch.o) (rtimer_run_next)
obj_cooja/mtype892.a(stimer.o)
                              obj_cooja/mtype892.a(tcpip.o) (stimer_set)
obj_cooja/mtype892.a(nbr-table.o)
                              obj_cooja/mtype892.a(uip-ds6-route.o) (nbr_table_register)
obj_cooja/mtype892.a(uip-icmp6.o)
                              obj_cooja/mtype892.a(uip6.o) (uip_icmp6_echo_request_input)

Allocating common symbols
Common symbol       size              file

default_instance    0x4               obj_cooja/mtype892.a(rpl-dag.o)
simButtonIsActive   0x1               obj_cooja/mtype892.a(button-sensor.o)
simButtonIsDown     0x1               obj_cooja/mtype892.a(button-sensor.o)
simOutDataBuffer    0x80              obj_cooja/mtype892.a(cooja-radio.o)
uip_ds6_prefix_list
                    0x60              obj_cooja/mtype892.a(uip-ds6.o)
simSerialReceivingFlag
                    0x1               obj_cooja/mtype892.a(rs232.o)
simLoggedLength     0x4               obj_cooja/mtype892.a(log.o)
simSerialReceivingLength
                    0x4               obj_cooja/mtype892.a(rs232.o)
simEtimerPending    0x4               obj_cooja/mtype892.a(simEnvChange.o)
uip_slen            0x2               obj_cooja/mtype892.a(uip6.o)
uip_ds6_timer_periodic
                    0x10              obj_cooja/mtype892.a(uip-ds6.o)
uip_acc32           0x4               obj_cooja/mtype892.a(uip6.o)
uip_conns           0xc0              obj_cooja/mtype892.a(uip6.o)
simVibChanged       0x1               obj_cooja/mtype892.a(vib-sensor.o)
rimestats           0x48              obj_cooja/mtype892.a(rimestats.o)
uip_ds6_netif_addr_list_offset
                    0x1               obj_cooja/mtype892.a(uip-ds6.o)
uip_lladdr          0x8               obj_cooja/mtype892.a(uip6.o)
instance_table      0xf4              obj_cooja/mtype892.a(rpl-dag.o)
simProcessRunValue  0x4               obj_cooja/mtype892.a(simEnvChange.o)
serial_line_event_message
                    0x1               obj_cooja/mtype892.a(serial-line.o)
uip_appdata         0x4               obj_cooja/mtype892.a(uip6.o)
referenceVar        0x4               obj_cooja/mtype892.o
simCurrentTime      0x4               obj_cooja/mtype892.a(clock.o)
simVibIsActive      0x1               obj_cooja/mtype892.a(vib-sensor.o)
simNextExpirationTime
                    0x4               obj_cooja/mtype892.a(simEnvChange.o)
uip_ds6_if          0xf8              obj_cooja/mtype892.a(uip-ds6.o)
uip_flags           0x1               obj_cooja/mtype892.a(uip6.o)
uip_ds6_timer_ra    0x8               obj_cooja/mtype892.a(uip-ds6.o)
simSerialReceivingData
                    0x400             obj_cooja/mtype892.a(rs232.o)
simLoggedFlag       0x1               obj_cooja/mtype892.a(log.o)
packetbuf_attrs     0x30              obj_cooja/mtype892.a(packetbuf.o)
uip_ds6_addr_size   0x1               obj_cooja/mtype892.a(uip-ds6.o)
uip_aligned_buf     0xf0              obj_cooja/mtype892.a(uip6.o)
simRandomSeed       0x4               obj_cooja/mtype892.a(moteid.o)
simLoggedData       0x400             obj_cooja/mtype892.a(log.o)
simLedsValue        0x1               obj_cooja/mtype892.a(leds-arch.o)
uip_listenports     0x10              obj_cooja/mtype892.a(uip6.o)
uip_len             0x2               obj_cooja/mtype892.a(uip6.o)
simButtonChanged    0x1               obj_cooja/mtype892.a(button-sensor.o)
simPirIsActive      0x1               obj_cooja/mtype892.a(pir-sensor.o)
simInDataBuffer     0x80              obj_cooja/mtype892.a(cooja-radio.o)
simPirChanged       0x1               obj_cooja/mtype892.a(pir-sensor.o)
simBeeped           0x1               obj_cooja/mtype892.a(beep.o)
tcpip_event         0x1               obj_cooja/mtype892.a(tcpip.o)
uip_sappdata        0x4               obj_cooja/mtype892.a(uip6.o)
sensors_event       0x1               obj_cooja/mtype892.a(sensors.o)
uip_udp_conns       0x180             obj_cooja/mtype892.a(uip6.o)
rimeaddr_node_addr  0x8               obj_cooja/mtype892.a(rimeaddr.o)
frag_sender         0x8               obj_cooja/mtype892.a(sicslowpan.o)
packetbuf_addrs     0x20              obj_cooja/mtype892.a(packetbuf.o)
uip_udp_conn        0x4               obj_cooja/mtype892.a(uip6.o)
simMoteIDChanged    0x1               obj_cooja/mtype892.a(moteid.o)
sensors_flags       0x4               obj_cooja/mtype892.o
uip_next_hdr        0x4               obj_cooja/mtype892.a(uip6.o)
simMoteID           0x4               obj_cooja/mtype892.a(moteid.o)
uip_conn            0x4               obj_cooja/mtype892.a(uip6.o)

Discarded input sections

 .note.GNU-stack
                0x0000000000000000        0x0 /usr/lib/gcc/i686-linux-gnu/4.6/../../../i386-linux-gnu/crti.o
 .gnu_debuglink
                0x0000000000000000        0xc /usr/lib/gcc/i686-linux-gnu/4.6/../../../i386-linux-gnu/crti.o
 .group         0x0000000000000000        0x8 /usr/lib/gcc/i686-linux-gnu/4.6/crtbeginS.o
 .note.GNU-stack
                0x0000000000000000        0x0 /usr/lib/gcc/i686-linux-gnu/4.6/crtbeginS.o
 .note.GNU-stack
                0x0000000000000000        0x0 desk-controller.co
 .note.GNU-stack
                0x0000000000000000        0x0 obj_cooja/mtype892.o
 .note.GNU-stack
                0x0000000000000000        0x0 obj_cooja/mtype892.a(rimeaddr.o)
 .note.GNU-stack
                0x0000000000000000        0x0 obj_cooja/mtype892.a(nullrdc.o)
 .note.GNU-stack
                0x0000000000000000        0x0 obj_cooja/mtype892.a(mac.o)
 .note.GNU-stack
                0x0000000000000000        0x0 obj_cooja/mtype892.a(framer-802154.o)
 .note.GNU-stack
                0x0000000000000000        0x0 obj_cooja/mtype892.a(csma.o)
 .note.GNU-stack
                0x0000000000000000        0x0 obj_cooja/mtype892.a(process.o)
 .note.GNU-stack
                0x0000000000000000        0x0 obj_cooja/mtype892.a(autostart.o)
 .note.GNU-stack
                0x0000000000000000        0x0 obj_cooja/mtype892.a(serial-line.o)
 .note.GNU-stack
                0x0000000000000000        0x0 obj_cooja/mtype892.a(memb.o)
 .note.GNU-stack
                0x0000000000000000        0x0 obj_cooja/mtype892.a(list.o)
 .note.GNU-stack
                0x0000000000000000        0x0 obj_cooja/mtype892.a(etimer.o)
 .note.GNU-stack
                0x0000000000000000        0x0 obj_cooja/mtype892.a(ctimer.o)
 .note.GNU-stack
                0x0000000000000000        0x0 obj_cooja/mtype892.a(energest.o)
 .note.GNU-stack
                0x0000000000000000        0x0 obj_cooja/mtype892.a(random.o)
 .note.GNU-stack
                0x0000000000000000        0x0 obj_cooja/mtype892.a(ringbuf.o)
 .note.GNU-stack
                0x0000000000000000        0x0 obj_cooja/mtype892.a(netstack.o)
 .note.GNU-stack
                0x0000000000000000        0x0 obj_cooja/mtype892.a(packetbuf.o)
 .note.GNU-stack
                0x0000000000000000        0x0 obj_cooja/mtype892.a(queuebuf.o)
 .note.GNU-stack
                0x0000000000000000        0x0 obj_cooja/mtype892.a(sicslowpan.o)
 .note.GNU-stack
                0x0000000000000000        0x0 obj_cooja/mtype892.a(simple-udp.o)
 .note.GNU-stack
                0x0000000000000000        0x0 obj_cooja/mtype892.a(tcpip.o)
 .note.GNU-stack
                0x0000000000000000        0x0 obj_cooja/mtype892.a(uip-debug.o)
 .note.GNU-stack
                0x0000000000000000        0x0 obj_cooja/mtype892.a(uip-ds6-route.o)
 .note.GNU-stack
                0x0000000000000000        0x0 obj_cooja/mtype892.a(uip-ds6-nbr.o)
 .note.GNU-stack
                0x0000000000000000        0x0 obj_cooja/mtype892.a(uip-ds6.o)
 .note.GNU-stack
                0x0000000000000000        0x0 obj_cooja/mtype892.a(uip-nd6.o)
 .note.GNU-stack
                0x0000000000000000        0x0 obj_cooja/mtype892.a(uip-packetqueue)
 .note.GNU-stack
                0x0000000000000000        0x0 obj_cooja/mtype892.a(uip-udp-packet.)
 .note.GNU-stack
                0x0000000000000000        0x0 obj_cooja/mtype892.a(uip6.o)
 .note.GNU-stack
                0x0000000000000000        0x0 obj_cooja/mtype892.a(servreg-hack.o)
 .note.GNU-stack
                0x0000000000000000        0x0 obj_cooja/mtype892.a(simEnvChange.o)
 .note.GNU-stack
                0x0000000000000000        0x0 obj_cooja/mtype892.a(cooja_mt.o)
 .note.GNU-stack
                0x0000000000000000        0x0 obj_cooja/mtype892.a(cooja_mtarch.o)
 .note.GNU-stack
                0x0000000000000000        0x0 obj_cooja/mtype892.a(rtimer-arch.o)
 .note.GNU-stack
                0x0000000000000000        0x0 obj_cooja/mtype892.a(watchdog.o)
 .note.GNU-stack
                0x0000000000000000        0x0 obj_cooja/mtype892.a(beep.o)
 .note.GNU-stack
                0x0000000000000000        0x0 obj_cooja/mtype892.a(button-sensor.o)
 .note.GNU-stack
                0x0000000000000000        0x0 obj_cooja/mtype892.a(leds-arch.o)
 .note.GNU-stack
                0x0000000000000000        0x0 obj_cooja/mtype892.a(moteid.o)
 .note.GNU-stack
                0x0000000000000000        0x0 obj_cooja/mtype892.a(pir-sensor.o)
 .note.GNU-stack
                0x0000000000000000        0x0 obj_cooja/mtype892.a(rs232.o)
 .note.GNU-stack
                0x0000000000000000        0x0 obj_cooja/mtype892.a(vib-sensor.o)
 .note.GNU-stack
                0x0000000000000000        0x0 obj_cooja/mtype892.a(clock.o)
 .note.GNU-stack
                0x0000000000000000        0x0 obj_cooja/mtype892.a(log.o)
 .note.GNU-stack
                0x0000000000000000        0x0 obj_cooja/mtype892.a(cfs-cooja.o)
 .note.GNU-stack
                0x0000000000000000        0x0 obj_cooja/mtype892.a(cooja-radio.o)
 .note.GNU-stack
                0x0000000000000000        0x0 obj_cooja/mtype892.a(sensors.o)
 .note.GNU-stack
                0x0000000000000000        0x0 obj_cooja/mtype892.a(leds.o)
 .note.GNU-stack
                0x0000000000000000        0x0 obj_cooja/mtype892.a(rimestats.o)
 .note.GNU-stack
                0x0000000000000000        0x0 obj_cooja/mtype892.a(frame802154.o)
 .note.GNU-stack
                0x0000000000000000        0x0 obj_cooja/mtype892.a(rpl.o)
 .note.GNU-stack
                0x0000000000000000        0x0 obj_cooja/mtype892.a(rpl-dag.o)
 .note.GNU-stack
                0x0000000000000000        0x0 obj_cooja/mtype892.a(rpl-icmp6.o)
 .note.GNU-stack
                0x0000000000000000        0x0 obj_cooja/mtype892.a(rpl-timers.o)
 .note.GNU-stack
                0x0000000000000000        0x0 obj_cooja/mtype892.a(rpl-mrhof.o)
 .note.GNU-stack
                0x0000000000000000        0x0 obj_cooja/mtype892.a(rpl-ext-header.)
 .note.GNU-stack
                0x0000000000000000        0x0 obj_cooja/mtype892.a(timer.o)
 .note.GNU-stack
                0x0000000000000000        0x0 obj_cooja/mtype892.a(rtimer.o)
 .note.GNU-stack
                0x0000000000000000        0x0 obj_cooja/mtype892.a(stimer.o)
 .note.GNU-stack
                0x0000000000000000        0x0 obj_cooja/mtype892.a(nbr-table.o)
 .note.GNU-stack
                0x0000000000000000        0x0 obj_cooja/mtype892.a(uip-icmp6.o)
 .group         0x0000000000000000        0x8 /usr/lib/gcc/i686-linux-gnu/4.6/crtendS.o
 .text.__i686.get_pc_thunk.bx
                0x0000000000000000        0x4 /usr/lib/gcc/i686-linux-gnu/4.6/crtendS.o
 .note.GNU-stack
                0x0000000000000000        0x0 /usr/lib/gcc/i686-linux-gnu/4.6/crtendS.o
 .note.GNU-stack
                0x0000000000000000        0x0 /usr/lib/gcc/i686-linux-gnu/4.6/../../../i386-linux-gnu/crtn.o
 .gnu_debuglink
                0x0000000000000000        0xc /usr/lib/gcc/i686-linux-gnu/4.6/../../../i386-linux-gnu/crtn.o

Memory Configuration

Name             Origin             Length             Attributes
*default*        0x0000000000000000 0xffffffffffffffff

Linker script and memory map

LOAD /usr/lib/gcc/i686-linux-gnu/4.6/../../../i386-linux-gnu/crti.o
LOAD /usr/lib/gcc/i686-linux-gnu/4.6/crtbeginS.o
LOAD desk-controller.co
LOAD obj_cooja/mtype892.o
LOAD obj_cooja/mtype892.a
LOAD /usr/lib/gcc/i686-linux-gnu/4.6/libgcc.a
LOAD /usr/lib/gcc/i686-linux-gnu/4.6/libgcc_s.so
LOAD /usr/lib/gcc/i686-linux-gnu/4.6/../../../i386-linux-gnu/libc.so
START GROUP
LOAD /lib/i386-linux-gnu/libc.so.6
LOAD /usr/lib/i386-linux-gnu/libc_nonshared.a
LOAD /lib/i386-linux-gnu/ld-linux.so.2
END GROUP
LOAD /usr/lib/gcc/i686-linux-gnu/4.6/libgcc.a
LOAD /usr/lib/gcc/i686-linux-gnu/4.6/libgcc_s.so
LOAD /usr/lib/gcc/i686-linux-gnu/4.6/crtendS.o
LOAD /usr/lib/gcc/i686-linux-gnu/4.6/../../../i386-linux-gnu/crtn.o
                0x0000000000000114                . = (0x0 + SIZEOF_HEADERS)

.note.gnu.build-id
                0x0000000000000114       0x24
 *(.note.gnu.build-id)
 .note.gnu.build-id
                0x0000000000000114       0x24 /usr/lib/gcc/i686-linux-gnu/4.6/../../../i386-linux-gnu/crti.o

.hash
 *(.hash)

.gnu.hash       0x0000000000000138      0xdc8
 *(.gnu.hash)
 .gnu.hash      0x0000000000000138      0xdc8 /usr/lib/gcc/i686-linux-gnu/4.6/../../../i386-linux-gnu/crti.o

.dynsym         0x0000000000000f00     0x1f50
 *(.dynsym)
 .dynsym        0x0000000000000f00     0x1f50 /usr/lib/gcc/i686-linux-gnu/4.6/../../../i386-linux-gnu/crti.o

.dynstr         0x0000000000002e50     0x1f9a
 *(.dynstr)
 .dynstr        0x0000000000002e50     0x1f9a /usr/lib/gcc/i686-linux-gnu/4.6/../../../i386-linux-gnu/crti.o

.gnu.version    0x0000000000004dea      0x3ea
 *(.gnu.version)
 .gnu.version   0x0000000000004dea      0x3ea /usr/lib/gcc/i686-linux-gnu/4.6/../../../i386-linux-gnu/crti.o

.gnu.version_d  0x00000000000051d4        0x0
 *(.gnu.version_d)
 .gnu.version_d
                0x0000000000000000        0x0 /usr/lib/gcc/i686-linux-gnu/4.6/../../../i386-linux-gnu/crti.o

.gnu.version_r  0x00000000000051d4       0x40
 *(.gnu.version_r)
 .gnu.version_r
                0x00000000000051d4       0x40 /usr/lib/gcc/i686-linux-gnu/4.6/../../../i386-linux-gnu/crti.o

.rel.dyn        0x0000000000005214     0x8278
 *(.rel.init)
 *(.rel.text .rel.text.* .rel.gnu.linkonce.t.*)
 .rel.text      0x0000000000000000        0x0 /usr/lib/gcc/i686-linux-gnu/4.6/../../../i386-linux-gnu/crti.o
 .rel.text.set_global_address
                0x0000000000005214       0x60 /usr/lib/gcc/i686-linux-gnu/4.6/../../../i386-linux-gnu/crti.o
 .rel.text.process_thread_unicast_sender_process
                0x0000000000005274      0x108 /usr/lib/gcc/i686-linux-gnu/4.6/../../../i386-linux-gnu/crti.o
 .rel.text.print_processes
                0x000000000000537c       0x28 /usr/lib/gcc/i686-linux-gnu/4.6/../../../i386-linux-gnu/crti.o
 .rel.text.rtimer_thread_loop
                0x00000000000053a4       0x10 /usr/lib/gcc/i686-linux-gnu/4.6/../../../i386-linux-gnu/crti.o
 .rel.text.set_rime_addr
                0x00000000000053b4       0x50 /usr/lib/gcc/i686-linux-gnu/4.6/../../../i386-linux-gnu/crti.o
 .rel.text.contiki_init
                0x0000000000005404      0x1d0 /usr/lib/gcc/i686-linux-gnu/4.6/../../../i386-linux-gnu/crti.o
 .rel.text.process_run_thread_loop
                0x00000000000055d4       0x70 /usr/lib/gcc/i686-linux-gnu/4.6/../../../i386-linux-gnu/crti.o
 .rel.text.Java_se_sics_cooja_corecomm_Lib143_init
                0x0000000000005644       0x30 /usr/lib/gcc/i686-linux-gnu/4.6/../../../i386-linux-gnu/crti.o
 .rel.text.Java_se_sics_cooja_corecomm_Lib143_getMemory
                0x0000000000005674        0x8 /usr/lib/gcc/i686-linux-gnu/4.6/../../../i386-linux-gnu/crti.o
 .rel.text.Java_se_sics_cooja_corecomm_Lib143_setMemory
                0x000000000000567c       0x10 /usr/lib/gcc/i686-linux-gnu/4.6/../../../i386-linux-gnu/crti.o
 .rel.text.Java_se_sics_cooja_corecomm_Lib143_tick
                0x000000000000568c       0xc8 /usr/lib/gcc/i686-linux-gnu/4.6/../../../i386-linux-gnu/crti.o
 .rel.text.Java_se_sics_cooja_corecomm_Lib143_setReferenceAddress
                0x0000000000005754       0x10 /usr/lib/gcc/i686-linux-gnu/4.6/../../../i386-linux-gnu/crti.o
 .rel.text.rimeaddr_cmp
                0x0000000000005764        0x8 /usr/lib/gcc/i686-linux-gnu/4.6/../../../i386-linux-gnu/crti.o
 .rel.text.rimeaddr_set_node_addr
                0x000000000000576c       0x10 /usr/lib/gcc/i686-linux-gnu/4.6/../../../i386-linux-gnu/crti.o
 .rel.text.packetbuf_set_attr
                0x000000000000577c       0x20 /usr/lib/gcc/i686-linux-gnu/4.6/../../../i386-linux-gnu/crti.o
 .rel.text.packetbuf_attr
                0x000000000000579c       0x18 /usr/lib/gcc/i686-linux-gnu/4.6/../../../i386-linux-gnu/crti.o
 .rel.text.packetbuf_set_addr
                0x00000000000057b4       0x30 /usr/lib/gcc/i686-linux-gnu/4.6/../../../i386-linux-gnu/crti.o
 .rel.text.packetbuf_addr
                0x00000000000057e4       0x30 /usr/lib/gcc/i686-linux-gnu/4.6/../../../i386-linux-gnu/crti.o
 .rel.text.send_one_packet
                0x0000000000005814       0xd8 /usr/lib/gcc/i686-linux-gnu/4.6/../../../i386-linux-gnu/crti.o
 .rel.text.send_list
                0x00000000000058ec        0x8 /usr/lib/gcc/i686-linux-gnu/4.6/../../../i386-linux-gnu/crti.o
 .rel.text.packet_input
                0x00000000000058f4       0xd0 /usr/lib/gcc/i686-linux-gnu/4.6/../../../i386-linux-gnu/crti.o
 .rel.text.on   0x00000000000059c4       0x10 /usr/lib/gcc/i686-linux-gnu/4.6/../../../i386-linux-gnu/crti.o
 .rel.text.off  0x00000000000059d4       0x18 /usr/lib/gcc/i686-linux-gnu/4.6/../../../i386-linux-gnu/crti.o
 .rel.text.create
                0x00000000000059ec       0xb0 /usr/lib/gcc/i686-linux-gnu/4.6/../../../i386-linux-gnu/crti.o
 .rel.text.parse
                0x0000000000005a9c       0x30 /usr/lib/gcc/i686-linux-gnu/4.6/../../../i386-linux-gnu/crti.o
 .rel.text.neighbor_queue_from_addr
                0x0000000000005acc       0x20 /usr/lib/gcc/i686-linux-gnu/4.6/../../../i386-linux-gnu/crti.o
 .rel.text.default_timebase
                0x0000000000005aec        0x8 /usr/lib/gcc/i686-linux-gnu/4.6/../../../i386-linux-gnu/crti.o
 .rel.text.transmit_packet_list
                0x0000000000005af4       0x18 /usr/lib/gcc/i686-linux-gnu/4.6/../../../i386-linux-gnu/crti.o
 .rel.text.free_packet
                0x0000000000005b0c       0x70 /usr/lib/gcc/i686-linux-gnu/4.6/../../../i386-linux-gnu/crti.o
 .rel.text.packet_sent
                0x0000000000005b7c       0x68 /usr/lib/gcc/i686-linux-gnu/4.6/../../../i386-linux-gnu/crti.o
 .rel.text.send_packet
                0x0000000000005be4      0x110 /usr/lib/gcc/i686-linux-gnu/4.6/../../../i386-linux-gnu/crti.o
 .rel.text.input_packet
                0x0000000000005cf4        0x8 /usr/lib/gcc/i686-linux-gnu/4.6/../../../i386-linux-gnu/crti.o
 .rel.text.channel_check_interval
                0x0000000000005cfc       0x10 /usr/lib/gcc/i686-linux-gnu/4.6/../../../i386-linux-gnu/crti.o
 .rel.text.init
                0x0000000000005d0c       0x40 /usr/lib/gcc/i686-linux-gnu/4.6/../../../i386-linux-gnu/crti.o
 .rel.text.process_alloc_event
                0x0000000000005d4c       0x10 /usr/lib/gcc/i686-linux-gnu/4.6/../../../i386-linux-gnu/crti.o
 .rel.text.process_start
                0x0000000000005d5c       0x20 /usr/lib/gcc/i686-linux-gnu/4.6/../../../i386-linux-gnu/crti.o
 .rel.text.exit_process
                0x0000000000005d7c       0x50 /usr/lib/gcc/i686-linux-gnu/4.6/../../../i386-linux-gnu/crti.o
 .rel.text.call_process
                0x0000000000005dcc        0x8 /usr/lib/gcc/i686-linux-gnu/4.6/../../../i386-linux-gnu/crti.o
 .rel.text.process_exit
                0x0000000000005dd4        0x8 /usr/lib/gcc/i686-linux-gnu/4.6/../../../i386-linux-gnu/crti.o
 .rel.text.process_init
                0x0000000000005ddc       0x38 /usr/lib/gcc/i686-linux-gnu/4.6/../../../i386-linux-gnu/crti.o
 .rel.text.do_poll
                0x0000000000005e14       0x10 /usr/lib/gcc/i686-linux-gnu/4.6/../../../i386-linux-gnu/crti.o
 .rel.text.do_event
                0x0000000000005e24       0xe8 /usr/lib/gcc/i686-linux-gnu/4.6/../../../i386-linux-gnu/crti.o
 .rel.text.process_run
                0x0000000000005f0c       0x18 /usr/lib/gcc/i686-linux-gnu/4.6/../../../i386-linux-gnu/crti.o
 .rel.text.process_nevents
                0x0000000000005f24       0x10 /usr/lib/gcc/i686-linux-gnu/4.6/../../../i386-linux-gnu/crti.o
 .rel.text.process_post
                0x0000000000005f34       0x60 /usr/lib/gcc/i686-linux-gnu/4.6/../../../i386-linux-gnu/crti.o
 .rel.text.process_post_synch
                0x0000000000005f94       0x10 /usr/lib/gcc/i686-linux-gnu/4.6/../../../i386-linux-gnu/crti.o
 .rel.text.process_poll
                0x0000000000005fa4        0x8 /usr/lib/gcc/i686-linux-gnu/4.6/../../../i386-linux-gnu/crti.o
 .rel.text.autostart_start
                0x0000000000005fac        0x8 /usr/lib/gcc/i686-linux-gnu/4.6/../../../i386-linux-gnu/crti.o
 .rel.text.autostart_exit
                0x0000000000005fb4        0x8 /usr/lib/gcc/i686-linux-gnu/4.6/../../../i386-linux-gnu/crti.o
 .rel.text.serial_line_input_byte
                0x0000000000005fbc       0x48 /usr/lib/gcc/i686-linux-gnu/4.6/../../../i386-linux-gnu/crti.o
 .rel.text.process_thread_serial_line_process
                0x0000000000006004       0x90 /usr/lib/gcc/i686-linux-gnu/4.6/../../../i386-linux-gnu/crti.o
 .rel.text.serial_line_init
                0x0000000000006094       0x28 /usr/lib/gcc/i686-linux-gnu/4.6/../../../i386-linux-gnu/crti.o
 .rel.text.memb_init
                0x00000000000060bc       0x10 /usr/lib/gcc/i686-linux-gnu/4.6/../../../i386-linux-gnu/crti.o
 .rel.text.list_add
                0x00000000000060cc       0x10 /usr/lib/gcc/i686-linux-gnu/4.6/../../../i386-linux-gnu/crti.o
 .rel.text.list_push
                0x00000000000060dc        0x8 /usr/lib/gcc/i686-linux-gnu/4.6/../../../i386-linux-gnu/crti.o
 .rel.text.list_insert
                0x00000000000060e4        0x8 /usr/lib/gcc/i686-linux-gnu/4.6/../../../i386-linux-gnu/crti.o
 .rel.text.update_time
                0x00000000000060ec       0x28 /usr/lib/gcc/i686-linux-gnu/4.6/../../../i386-linux-gnu/crti.o
 .rel.text.process_thread_etimer_process
                0x0000000000006114       0x60 /usr/lib/gcc/i686-linux-gnu/4.6/../../../i386-linux-gnu/crti.o
 .rel.text.etimer_request_poll
                0x0000000000006174       0x10 /usr/lib/gcc/i686-linux-gnu/4.6/../../../i386-linux-gnu/crti.o
 .rel.text.add_timer
                0x0000000000006184       0x30 /usr/lib/gcc/i686-linux-gnu/4.6/../../../i386-linux-gnu/crti.o
 .rel.text.etimer_set
                0x00000000000061b4        0x8 /usr/lib/gcc/i686-linux-gnu/4.6/../../../i386-linux-gnu/crti.o
 .rel.text.etimer_reset
                0x00000000000061bc        0x8 /usr/lib/gcc/i686-linux-gnu/4.6/../../../i386-linux-gnu/crti.o
 .rel.text.etimer_restart
                0x00000000000061c4        0x8 /usr/lib/gcc/i686-linux-gnu/4.6/../../../i386-linux-gnu/crti.o
 .rel.text.etimer_pending
                0x00000000000061cc        0x8 /usr/lib/gcc/i686-linux-gnu/4.6/../../../i386-linux-gnu/crti.o
 .rel.text.etimer_next_expiration_time
                0x00000000000061d4       0x10 /usr/lib/gcc/i686-linux-gnu/4.6/../../../i386-linux-gnu/crti.o
 .rel.text.etimer_stop
                0x00000000000061e4       0x20 /usr/lib/gcc/i686-linux-gnu/4.6/../../../i386-linux-gnu/crti.o
 .rel.text.process_thread_ctimer_process
                0x0000000000006204       0x58 /usr/lib/gcc/i686-linux-gnu/4.6/../../../i386-linux-gnu/crti.o
 .rel.text.ctimer_init
                0x000000000000625c       0x28 /usr/lib/gcc/i686-linux-gnu/4.6/../../../i386-linux-gnu/crti.o
 .rel.text.ctimer_set
                0x0000000000006284       0x58 /usr/lib/gcc/i686-linux-gnu/4.6/../../../i386-linux-gnu/crti.o
 .rel.text.ctimer_reset
                0x00000000000062dc       0x50 /usr/lib/gcc/i686-linux-gnu/4.6/../../../i386-linux-gnu/crti.o
 .rel.text.ctimer_restart
                0x000000000000632c       0x50 /usr/lib/gcc/i686-linux-gnu/4.6/../../../i386-linux-gnu/crti.o
 .rel.text.ctimer_stop
                0x000000000000637c       0x20 /usr/lib/gcc/i686-linux-gnu/4.6/../../../i386-linux-gnu/crti.o
 .rel.text.ctimer_expired
                0x000000000000639c       0x20 /usr/lib/gcc/i686-linux-gnu/4.6/../../../i386-linux-gnu/crti.o
 .rel.text.random_init
                0x00000000000063bc        0x8 /usr/lib/gcc/i686-linux-gnu/4.6/../../../i386-linux-gnu/crti.o
 .rel.text.random_rand
                0x00000000000063c4        0x8 /usr/lib/gcc/i686-linux-gnu/4.6/../../../i386-linux-gnu/crti.o
 .rel.text.netstack_init
                0x00000000000063cc       0x20 /usr/lib/gcc/i686-linux-gnu/4.6/../../../i386-linux-gnu/crti.o
 .rel.text.packetbuf_clear
                0x00000000000063ec       0x38 /usr/lib/gcc/i686-linux-gnu/4.6/../../../i386-linux-gnu/crti.o
 .rel.text.packetbuf_clear_hdr
                0x0000000000006424        0x8 /usr/lib/gcc/i686-linux-gnu/4.6/../../../i386-linux-gnu/crti.o
 .rel.text.packetbuf_copyfrom
                0x000000000000642c       0x20 /usr/lib/gcc/i686-linux-gnu/4.6/../../../i386-linux-gnu/crti.o
 .rel.text.packetbuf_compact
                0x000000000000644c       0x58 /usr/lib/gcc/i686-linux-gnu/4.6/../../../i386-linux-gnu/crti.o
 .rel.text.packetbuf_copyto_hdr
                0x00000000000064a4       0x28 /usr/lib/gcc/i686-linux-gnu/4.6/../../../i386-linux-gnu/crti.o
 .rel.text.packetbuf_copyto
                0x00000000000064cc       0x68 /usr/lib/gcc/i686-linux-gnu/4.6/../../../i386-linux-gnu/crti.o
 .rel.text.packetbuf_hdralloc
                0x0000000000006534       0x20 /usr/lib/gcc/i686-linux-gnu/4.6/../../../i386-linux-gnu/crti.o
 .rel.text.packetbuf_hdr_remove
                0x0000000000006554       0x10 /usr/lib/gcc/i686-linux-gnu/4.6/../../../i386-linux-gnu/crti.o
 .rel.text.packetbuf_hdrreduce
                0x0000000000006564       0x28 /usr/lib/gcc/i686-linux-gnu/4.6/../../../i386-linux-gnu/crti.o
 .rel.text.packetbuf_set_datalen
                0x000000000000658c        0x8 /usr/lib/gcc/i686-linux-gnu/4.6/../../../i386-linux-gnu/crti.o
 .rel.text.packetbuf_dataptr
                0x0000000000006594       0x10 /usr/lib/gcc/i686-linux-gnu/4.6/../../../i386-linux-gnu/crti.o
 .rel.text.packetbuf_hdrptr
                0x00000000000065a4       0x10 /usr/lib/gcc/i686-linux-gnu/4.6/../../../i386-linux-gnu/crti.o
 .rel.text.packetbuf_reference
                0x00000000000065b4       0x18 /usr/lib/gcc/i686-linux-gnu/4.6/../../../i386-linux-gnu/crti.o
 .rel.text.packetbuf_is_reference
                0x00000000000065cc       0x10 /usr/lib/gcc/i686-linux-gnu/4.6/../../../i386-linux-gnu/crti.o
 .rel.text.packetbuf_reference_ptr
                0x00000000000065dc        0x8 /usr/lib/gcc/i686-linux-gnu/4.6/../../../i386-linux-gnu/crti.o
 .rel.text.packetbuf_datalen
                0x00000000000065e4        0x8 /usr/lib/gcc/i686-linux-gnu/4.6/../../../i386-linux-gnu/crti.o
 .rel.text.packetbuf_hdrlen
                0x00000000000065ec        0x8 /usr/lib/gcc/i686-linux-gnu/4.6/../../../i386-linux-gnu/crti.o
 .rel.text.packetbuf_totlen
                0x00000000000065f4       0x10 /usr/lib/gcc/i686-linux-gnu/4.6/../../../i386-linux-gnu/crti.o
 .rel.text.packetbuf_attr_clear
                0x0000000000006604       0x20 /usr/lib/gcc/i686-linux-gnu/4.6/../../../i386-linux-gnu/crti.o
 .rel.text.packetbuf_attr_copyto
                0x0000000000006624       0x48 /usr/lib/gcc/i686-linux-gnu/4.6/../../../i386-linux-gnu/crti.o
 .rel.text.packetbuf_attr_copyfrom
                0x000000000000666c       0x48 /usr/lib/gcc/i686-linux-gnu/4.6/../../../i386-linux-gnu/crti.o
 .rel.text.queuebuf_init
                0x00000000000066b4       0x30 /usr/lib/gcc/i686-linux-gnu/4.6/../../../i386-linux-gnu/crti.o
 .rel.text.queuebuf_new_from_packetbuf
                0x00000000000066e4       0x60 /usr/lib/gcc/i686-linux-gnu/4.6/../../../i386-linux-gnu/crti.o
 .rel.text.queuebuf_update_attr_from_packetbuf
                0x0000000000006744        0x8 /usr/lib/gcc/i686-linux-gnu/4.6/../../../i386-linux-gnu/crti.o
 .rel.text.queuebuf_free
                0x000000000000674c       0x50 /usr/lib/gcc/i686-linux-gnu/4.6/../../../i386-linux-gnu/crti.o
 .rel.text.queuebuf_to_packetbuf
                0x000000000000679c       0x58 /usr/lib/gcc/i686-linux-gnu/4.6/../../../i386-linux-gnu/crti.o
 .rel.text.queuebuf_dataptr
                0x00000000000067f4       0x20 /usr/lib/gcc/i686-linux-gnu/4.6/../../../i386-linux-gnu/crti.o
 .rel.text.rime_sniffer_add
                0x0000000000006814        0x8 /usr/lib/gcc/i686-linux-gnu/4.6/../../../i386-linux-gnu/crti.o
 .rel.text.rime_sniffer_remove
                0x000000000000681c        0x8 /usr/lib/gcc/i686-linux-gnu/4.6/../../../i386-linux-gnu/crti.o
 .rel.text.set_packet_attrs
                0x0000000000006824       0x60 /usr/lib/gcc/i686-linux-gnu/4.6/../../../i386-linux-gnu/crti.o
 .rel.text.addr_context_lookup_by_prefix
                0x0000000000006884       0x20 /usr/lib/gcc/i686-linux-gnu/4.6/../../../i386-linux-gnu/crti.o
 .rel.text.addr_context_lookup_by_number
                0x00000000000068a4       0x18 /usr/lib/gcc/i686-linux-gnu/4.6/../../../i386-linux-gnu/crti.o
 .rel.text.compress_addr_64
                0x00000000000068bc       0x30 /usr/lib/gcc/i686-linux-gnu/4.6/../../../i386-linux-gnu/crti.o
 .rel.text.uncompress_addr
                0x00000000000068ec       0x38 /usr/lib/gcc/i686-linux-gnu/4.6/../../../i386-linux-gnu/crti.o
 .rel.text.compress_hdr_hc06
                0x0000000000006924      0x5a0 /usr/lib/gcc/i686-linux-gnu/4.6/../../../i386-linux-gnu/crti.o
 .rel.text.uncompress_hdr_hc06
                0x0000000000006ec4      0x3e0 /usr/lib/gcc/i686-linux-gnu/4.6/../../../i386-linux-gnu/crti.o
 .rel.text.compress_hdr_ipv6
                0x00000000000072a4       0x50 /usr/lib/gcc/i686-linux-gnu/4.6/../../../i386-linux-gnu/crti.o
 .rel.text.output
                0x00000000000072f4      0x2f8 /usr/lib/gcc/i686-linux-gnu/4.6/../../../i386-linux-gnu/crti.o
 .rel.text.input
                0x00000000000075ec      0x2e8 /usr/lib/gcc/i686-linux-gnu/4.6/../../../i386-linux-gnu/crti.o
 .rel.text.sicslowpan_init
                0x00000000000078d4       0x38 /usr/lib/gcc/i686-linux-gnu/4.6/../../../i386-linux-gnu/crti.o
 .rel.text.init_simple_udp
                0x000000000000790c       0x20 /usr/lib/gcc/i686-linux-gnu/4.6/../../../i386-linux-gnu/crti.o
 .rel.text.simple_udp_send
                0x000000000000792c        0x8 /usr/lib/gcc/i686-linux-gnu/4.6/../../../i386-linux-gnu/crti.o
 .rel.text.simple_udp_sendto
                0x0000000000007934        0x8 /usr/lib/gcc/i686-linux-gnu/4.6/../../../i386-linux-gnu/crti.o
 .rel.text.simple_udp_sendto_port
                0x000000000000793c        0x8 /usr/lib/gcc/i686-linux-gnu/4.6/../../../i386-linux-gnu/crti.o
 .rel.text.simple_udp_register
                0x0000000000007944       0x28 /usr/lib/gcc/i686-linux-gnu/4.6/../../../i386-linux-gnu/crti.o
 .rel.text.process_thread_simple_udp_process
                0x000000000000796c       0x88 /usr/lib/gcc/i686-linux-gnu/4.6/../../../i386-linux-gnu/crti.o
 .rel.text.tcpip_output
                0x00000000000079f4       0x10 /usr/lib/gcc/i686-linux-gnu/4.6/../../../i386-linux-gnu/crti.o
 .rel.text.tcpip_set_outputfunc
                0x0000000000007a04        0x8 /usr/lib/gcc/i686-linux-gnu/4.6/../../../i386-linux-gnu/crti.o
 .rel.text.start_periodic_tcp_timer
                0x0000000000007a0c       0x20 /usr/lib/gcc/i686-linux-gnu/4.6/../../../i386-linux-gnu/crti.o
 .rel.text.check_for_tcp_syn
                0x0000000000007a2c       0x10 /usr/lib/gcc/i686-linux-gnu/4.6/../../../i386-linux-gnu/crti.o
 .rel.text.tcp_connect
                0x0000000000007a3c       0x18 /usr/lib/gcc/i686-linux-gnu/4.6/../../../i386-linux-gnu/crti.o
 .rel.text.tcp_unlisten
                0x0000000000007a54       0x38 /usr/lib/gcc/i686-linux-gnu/4.6/../../../i386-linux-gnu/crti.o
 .rel.text.tcp_listen
                0x0000000000007a8c       0x38 /usr/lib/gcc/i686-linux-gnu/4.6/../../../i386-linux-gnu/crti.o
 .rel.text.tcp_attach
                0x0000000000007ac4        0x8 /usr/lib/gcc/i686-linux-gnu/4.6/../../../i386-linux-gnu/crti.o
 .rel.text.udp_attach
                0x0000000000007acc        0x8 /usr/lib/gcc/i686-linux-gnu/4.6/../../../i386-linux-gnu/crti.o
 .rel.text.udp_new
                0x0000000000007ad4       0x10 /usr/lib/gcc/i686-linux-gnu/4.6/../../../i386-linux-gnu/crti.o
 .rel.text.udp_broadcast_new
                0x0000000000007ae4       0x10 /usr/lib/gcc/i686-linux-gnu/4.6/../../../i386-linux-gnu/crti.o
 .rel.text.eventhandler
                0x0000000000007af4      0x128 /usr/lib/gcc/i686-linux-gnu/4.6/../../../i386-linux-gnu/crti.o
 .rel.text.tcpip_input
                0x0000000000007c1c       0x20 /usr/lib/gcc/i686-linux-gnu/4.6/../../../i386-linux-gnu/crti.o
 .rel.text.tcpip_ipv6_output
                0x0000000000007c3c      0x258 /usr/lib/gcc/i686-linux-gnu/4.6/../../../i386-linux-gnu/crti.o
 .rel.text.tcpip_poll_udp
                0x0000000000007e94       0x10 /usr/lib/gcc/i686-linux-gnu/4.6/../../../i386-linux-gnu/crti.o
 .rel.text.tcpip_poll_tcp
                0x0000000000007ea4       0x10 /usr/lib/gcc/i686-linux-gnu/4.6/../../../i386-linux-gnu/crti.o
 .rel.text.tcpip_uipcall
                0x0000000000007eb4       0x60 /usr/lib/gcc/i686-linux-gnu/4.6/../../../i386-linux-gnu/crti.o
 .rel.text.process_thread_tcpip_process
                0x0000000000007f14       0x70 /usr/lib/gcc/i686-linux-gnu/4.6/../../../i386-linux-gnu/crti.o
 .rel.text.uip_debug_ipaddr_print
                0x0000000000007f84       0x40 /usr/lib/gcc/i686-linux-gnu/4.6/../../../i386-linux-gnu/crti.o
 .rel.text.uip_debug_lladdr_print
                0x0000000000007fc4       0x20 /usr/lib/gcc/i686-linux-gnu/4.6/../../../i386-linux-gnu/crti.o
 .rel.text.call_route_callback
                0x0000000000007fe4       0x30 /usr/lib/gcc/i686-linux-gnu/4.6/../../../i386-linux-gnu/crti.o
 .rel.text.uip_ds6_notification_add
                0x0000000000008014       0x10 /usr/lib/gcc/i686-linux-gnu/4.6/../../../i386-linux-gnu/crti.o
 .rel.text.uip_ds6_notification_rm
                0x0000000000008024       0x10 /usr/lib/gcc/i686-linux-gnu/4.6/../../../i386-linux-gnu/crti.o
 .rel.text.uip_ds6_route_init
                0x0000000000008034       0x58 /usr/lib/gcc/i686-linux-gnu/4.6/../../../i386-linux-gnu/crti.o
 .rel.text.uip_ds6_route_nexthop_lladdr
                0x000000000000808c       0x10 /usr/lib/gcc/i686-linux-gnu/4.6/../../../i386-linux-gnu/crti.o
 .rel.text.uip_ds6_route_nexthop
                0x000000000000809c        0x8 /usr/lib/gcc/i686-linux-gnu/4.6/../../../i386-linux-gnu/crti.o
 .rel.text.uip_ds6_route_head
                0x00000000000080a4       0x20 /usr/lib/gcc/i686-linux-gnu/4.6/../../../i386-linux-gnu/crti.o
 .rel.text.uip_ds6_route_next
                0x00000000000080c4       0x20 /usr/lib/gcc/i686-linux-gnu/4.6/../../../i386-linux-gnu/crti.o
 .rel.text.uip_ds6_route_num_routes
                0x00000000000080e4        0x8 /usr/lib/gcc/i686-linux-gnu/4.6/../../../i386-linux-gnu/crti.o
 .rel.text.uip_ds6_route_lookup
                0x00000000000080ec       0x18 /usr/lib/gcc/i686-linux-gnu/4.6/../../../i386-linux-gnu/crti.o
 .rel.text.uip_ds6_route_add
                0x0000000000008104       0x60 /usr/lib/gcc/i686-linux-gnu/4.6/../../../i386-linux-gnu/crti.o
 .rel.text.uip_ds6_route_rm
                0x0000000000008164       0x48 /usr/lib/gcc/i686-linux-gnu/4.6/../../../i386-linux-gnu/crti.o
 .rel.text.rm_routelist
                0x00000000000081ac       0x28 /usr/lib/gcc/i686-linux-gnu/4.6/../../../i386-linux-gnu/crti.o
 .rel.text.uip_ds6_route_rm_by_nexthop
                0x00000000000081d4       0x18 /usr/lib/gcc/i686-linux-gnu/4.6/../../../i386-linux-gnu/crti.o
 .rel.text.uip_ds6_defrt_add
                0x00000000000081ec       0x30 /usr/lib/gcc/i686-linux-gnu/4.6/../../../i386-linux-gnu/crti.o
 .rel.text.uip_ds6_defrt_rm
                0x000000000000821c       0x38 /usr/lib/gcc/i686-linux-gnu/4.6/../../../i386-linux-gnu/crti.o
 .rel.text.uip_ds6_defrt_lookup
                0x0000000000008254       0x20 /usr/lib/gcc/i686-linux-gnu/4.6/../../../i386-linux-gnu/crti.o
 .rel.text.uip_ds6_defrt_choose
                0x0000000000008274       0x20 /usr/lib/gcc/i686-linux-gnu/4.6/../../../i386-linux-gnu/crti.o
 .rel.text.uip_ds6_defrt_periodic
                0x0000000000008294       0x38 /usr/lib/gcc/i686-linux-gnu/4.6/../../../i386-linux-gnu/crti.o
 .rel.text.uip_ds6_neighbors_init
                0x00000000000082cc       0x18 /usr/lib/gcc/i686-linux-gnu/4.6/../../../i386-linux-gnu/crti.o
 .rel.text.uip_ds6_nbr_add
                0x00000000000082e4       0x30 /usr/lib/gcc/i686-linux-gnu/4.6/../../../i386-linux-gnu/crti.o
 .rel.text.uip_ds6_nbr_rm
                0x0000000000008314       0x20 /usr/lib/gcc/i686-linux-gnu/4.6/../../../i386-linux-gnu/crti.o
 .rel.text.uip_ds6_nbr_get_ll
                0x0000000000008334       0x10 /usr/lib/gcc/i686-linux-gnu/4.6/../../../i386-linux-gnu/crti.o
 .rel.text.uip_ds6_nbr_num
                0x0000000000008344       0x20 /usr/lib/gcc/i686-linux-gnu/4.6/../../../i386-linux-gnu/crti.o
 .rel.text.uip_ds6_nbr_lookup
                0x0000000000008364       0x28 /usr/lib/gcc/i686-linux-gnu/4.6/../../../i386-linux-gnu/crti.o
 .rel.text.uip_ds6_nbr_ll_lookup
                0x000000000000838c       0x10 /usr/lib/gcc/i686-linux-gnu/4.6/../../../i386-linux-gnu/crti.o
 .rel.text.uip_ds6_nbr_ipaddr_from_lladdr
                0x000000000000839c        0x8 /usr/lib/gcc/i686-linux-gnu/4.6/../../../i386-linux-gnu/crti.o
 .rel.text.uip_ds6_nbr_lladdr_from_ipaddr
                0x00000000000083a4       0x10 /usr/lib/gcc/i686-linux-gnu/4.6/../../../i386-linux-gnu/crti.o
 .rel.text.uip_ds6_link_neighbor_callback
                0x00000000000083b4       0x18 /usr/lib/gcc/i686-linux-gnu/4.6/../../../i386-linux-gnu/crti.o
 .rel.text.uip_ds6_neighbor_periodic
                0x00000000000083cc       0xa8 /usr/lib/gcc/i686-linux-gnu/4.6/../../../i386-linux-gnu/crti.o
 .rel.text.uip_ds6_get_least_lifetime_neighbor
                0x0000000000008474       0x30 /usr/lib/gcc/i686-linux-gnu/4.6/../../../i386-linux-gnu/crti.o
 .rel.text.uip_ds6_init
                0x00000000000084a4      0x170 /usr/lib/gcc/i686-linux-gnu/4.6/../../../i386-linux-gnu/crti.o
 .rel.text.uip_ds6_periodic
                0x0000000000008614       0x80 /usr/lib/gcc/i686-linux-gnu/4.6/../../../i386-linux-gnu/crti.o
 .rel.text.uip_ds6_list_loop
                0x0000000000008694        0x8 /usr/lib/gcc/i686-linux-gnu/4.6/../../../i386-linux-gnu/crti.o
 .rel.text.uip_ds6_prefix_add
                0x000000000000869c       0x58 /usr/lib/gcc/i686-linux-gnu/4.6/../../../i386-linux-gnu/crti.o
 .rel.text.uip_ds6_prefix_lookup
                0x00000000000086f4       0x20 /usr/lib/gcc/i686-linux-gnu/4.6/../../../i386-linux-gnu/crti.o
 .rel.text.uip_ds6_is_addr_onlink
                0x0000000000008714       0x50 /usr/lib/gcc/i686-linux-gnu/4.6/../../../i386-linux-gnu/crti.o
 .rel.text.uip_ds6_addr_add
                0x0000000000008764       0xc8 /usr/lib/gcc/i686-linux-gnu/4.6/../../../i386-linux-gnu/crti.o
 .rel.text.uip_ds6_addr_rm
                0x000000000000882c       0x88 /usr/lib/gcc/i686-linux-gnu/4.6/../../../i386-linux-gnu/crti.o
 .rel.text.uip_ds6_addr_lookup
                0x00000000000088b4       0x20 /usr/lib/gcc/i686-linux-gnu/4.6/../../../i386-linux-gnu/crti.o
 .rel.text.uip_ds6_get_link_local
                0x00000000000088d4       0x58 /usr/lib/gcc/i686-linux-gnu/4.6/../../../i386-linux-gnu/crti.o
 .rel.text.uip_ds6_get_global
                0x000000000000892c       0x58 /usr/lib/gcc/i686-linux-gnu/4.6/../../../i386-linux-gnu/crti.o
 .rel.text.uip_ds6_maddr_add
                0x0000000000008984       0x30 /usr/lib/gcc/i686-linux-gnu/4.6/../../../i386-linux-gnu/crti.o
 .rel.text.uip_ds6_maddr_lookup
                0x00000000000089b4       0x20 /usr/lib/gcc/i686-linux-gnu/4.6/../../../i386-linux-gnu/crti.o
 .rel.text.uip_ds6_aaddr_add
                0x00000000000089d4       0x30 /usr/lib/gcc/i686-linux-gnu/4.6/../../../i386-linux-gnu/crti.o
 .rel.text.uip_ds6_aaddr_lookup
                0x0000000000008a04       0x20 /usr/lib/gcc/i686-linux-gnu/4.6/../../../i386-linux-gnu/crti.o
 .rel.text.uip_ds6_select_src
                0x0000000000008a24       0x70 /usr/lib/gcc/i686-linux-gnu/4.6/../../../i386-linux-gnu/crti.o
 .rel.text.uip_ds6_compute_reachable_time
                0x0000000000008a94       0x30 /usr/lib/gcc/i686-linux-gnu/4.6/../../../i386-linux-gnu/crti.o
 .rel.text.create_llao
                0x0000000000008ac4       0x10 /usr/lib/gcc/i686-linux-gnu/4.6/../../../i386-linux-gnu/crti.o
 .rel.text.uip_nd6_ns_input
                0x0000000000008ad4      0x378 /usr/lib/gcc/i686-linux-gnu/4.6/../../../i386-linux-gnu/crti.o
 .rel.text.uip_nd6_ns_output
                0x0000000000008e4c      0x1e0 /usr/lib/gcc/i686-linux-gnu/4.6/../../../i386-linux-gnu/crti.o
 .rel.text.uip_nd6_na_input
                0x000000000000902c      0x2d0 /usr/lib/gcc/i686-linux-gnu/4.6/../../../i386-linux-gnu/crti.o
 .rel.text.packet_timedout
                0x00000000000092fc       0x10 /usr/lib/gcc/i686-linux-gnu/4.6/../../../i386-linux-gnu/crti.o
 .rel.text.uip_packetqueue_alloc
                0x000000000000930c       0x20 /usr/lib/gcc/i686-linux-gnu/4.6/../../../i386-linux-gnu/crti.o
 .rel.text.uip_packetqueue_free
                0x000000000000932c       0x18 /usr/lib/gcc/i686-linux-gnu/4.6/../../../i386-linux-gnu/crti.o
 .rel.text.uip_udp_packet_send
                0x0000000000009344       0x38 /usr/lib/gcc/i686-linux-gnu/4.6/../../../i386-linux-gnu/crti.o
 .rel.text.uip_udp_packet_sendto
                0x000000000000937c       0x10 /usr/lib/gcc/i686-linux-gnu/4.6/../../../i386-linux-gnu/crti.o
 .rel.text.uip_add32
                0x000000000000938c       0x98 /usr/lib/gcc/i686-linux-gnu/4.6/../../../i386-linux-gnu/crti.o
 .rel.text.uip_chksum
                0x0000000000009424        0x8 /usr/lib/gcc/i686-linux-gnu/4.6/../../../i386-linux-gnu/crti.o
 .rel.text.upper_layer_chksum
                0x000000000000942c       0x38 /usr/lib/gcc/i686-linux-gnu/4.6/../../../i386-linux-gnu/crti.o
 .rel.text.uip_init
                0x0000000000009464       0xa0 /usr/lib/gcc/i686-linux-gnu/4.6/../../../i386-linux-gnu/crti.o
 .rel.text.uip_connect
                0x0000000000009504       0xc0 /usr/lib/gcc/i686-linux-gnu/4.6/../../../i386-linux-gnu/crti.o
 .rel.text.remove_ext_hdr
                0x00000000000095c4       0x98 /usr/lib/gcc/i686-linux-gnu/4.6/../../../i386-linux-gnu/crti.o
 .rel.text.uip_udp_new
                0x000000000000965c       0xb8 /usr/lib/gcc/i686-linux-gnu/4.6/../../../i386-linux-gnu/crti.o
 .rel.text.uip_unlisten
                0x0000000000009714       0x40 /usr/lib/gcc/i686-linux-gnu/4.6/../../../i386-linux-gnu/crti.o
 .rel.text.uip_listen
                0x0000000000009754       0x40 /usr/lib/gcc/i686-linux-gnu/4.6/../../../i386-linux-gnu/crti.o
 .rel.text.uip_add_rcv_nxt
                0x0000000000009794       0x50 /usr/lib/gcc/i686-linux-gnu/4.6/../../../i386-linux-gnu/crti.o
 .rel.text.ext_hdr_options_process
                0x00000000000097e4      0x108 /usr/lib/gcc/i686-linux-gnu/4.6/../../../i386-linux-gnu/crti.o
 .rel.text.uip_process
                0x00000000000098ec     0x1188 /usr/lib/gcc/i686-linux-gnu/4.6/../../../i386-linux-gnu/crti.o
 .rel.text.uip_send
                0x000000000000aa74       0x38 /usr/lib/gcc/i686-linux-gnu/4.6/../../../i386-linux-gnu/crti.o
 .rel.text.purge_registrations
                0x000000000000aaac       0x78 /usr/lib/gcc/i686-linux-gnu/4.6/../../../i386-linux-gnu/crti.o
 .rel.text.servreg_hack_init
                0x000000000000ab24       0x50 /usr/lib/gcc/i686-linux-gnu/4.6/../../../i386-linux-gnu/crti.o
 .rel.text.servreg_hack_register
                0x000000000000ab74       0x98 /usr/lib/gcc/i686-linux-gnu/4.6/../../../i386-linux-gnu/crti.o
 .rel.text.servreg_hack_list_head
                0x000000000000ac0c       0x10 /usr/lib/gcc/i686-linux-gnu/4.6/../../../i386-linux-gnu/crti.o
 .rel.text.servreg_hack_lookup
                0x000000000000ac1c       0x28 /usr/lib/gcc/i686-linux-gnu/4.6/../../../i386-linux-gnu/crti.o
 .rel.text.handle_incoming_reg
                0x000000000000ac44       0x78 /usr/lib/gcc/i686-linux-gnu/4.6/../../../i386-linux-gnu/crti.o
 .rel.text.send_udp_packet
                0x000000000000acbc       0x58 /usr/lib/gcc/i686-linux-gnu/4.6/../../../i386-linux-gnu/crti.o
 .rel.text.process_thread_servreg_hack_process
                0x000000000000ad14       0xb0 /usr/lib/gcc/i686-linux-gnu/4.6/../../../i386-linux-gnu/crti.o
 .rel.text.doActionsBeforeTick
                0x000000000000adc4       0x10 /usr/lib/gcc/i686-linux-gnu/4.6/../../../i386-linux-gnu/crti.o
 .rel.text.doActionsAfterTick
                0x000000000000add4       0x10 /usr/lib/gcc/i686-linux-gnu/4.6/../../../i386-linux-gnu/crti.o
 .rel.text.cooja_mt_init
                0x000000000000ade4        0x8 /usr/lib/gcc/i686-linux-gnu/4.6/../../../i386-linux-gnu/crti.o
 .rel.text.cooja_mt_remove
                0x000000000000adec        0x8 /usr/lib/gcc/i686-linux-gnu/4.6/../../../i386-linux-gnu/crti.o
 .rel.text.cooja_mt_start
                0x000000000000adf4        0x8 /usr/lib/gcc/i686-linux-gnu/4.6/../../../i386-linux-gnu/crti.o
 .rel.text.cooja_mt_exec
                0x000000000000adfc       0x10 /usr/lib/gcc/i686-linux-gnu/4.6/../../../i386-linux-gnu/crti.o
 .rel.text.cooja_mt_exit
                0x000000000000ae0c       0x18 /usr/lib/gcc/i686-linux-gnu/4.6/../../../i386-linux-gnu/crti.o
 .rel.text.cooja_mt_yield
                0x000000000000ae24       0x18 /usr/lib/gcc/i686-linux-gnu/4.6/../../../i386-linux-gnu/crti.o
 .rel.text.cooja_sw
                0x000000000000ae3c        0x8 /usr/lib/gcc/i686-linux-gnu/4.6/../../../i386-linux-gnu/crti.o
 .rel.text.cooja_mtarch_exec
                0x000000000000ae44       0x18 /usr/lib/gcc/i686-linux-gnu/4.6/../../../i386-linux-gnu/crti.o
 .rel.text.cooja_mtarch_yield
                0x000000000000ae5c        0x8 /usr/lib/gcc/i686-linux-gnu/4.6/../../../i386-linux-gnu/crti.o
 .rel.text.rtimer_arch_init
                0x000000000000ae64       0x18 /usr/lib/gcc/i686-linux-gnu/4.6/../../../i386-linux-gnu/crti.o
 .rel.text.rtimer_arch_schedule
                0x000000000000ae7c       0x10 /usr/lib/gcc/i686-linux-gnu/4.6/../../../i386-linux-gnu/crti.o
 .rel.text.rtimer_arch_next
                0x000000000000ae8c        0x8 /usr/lib/gcc/i686-linux-gnu/4.6/../../../i386-linux-gnu/crti.o
 .rel.text.rtimer_arch_pending
                0x000000000000ae94        0x8 /usr/lib/gcc/i686-linux-gnu/4.6/../../../i386-linux-gnu/crti.o
 .rel.text.rtimer_arch_check
                0x000000000000ae9c       0x20 /usr/lib/gcc/i686-linux-gnu/4.6/../../../i386-linux-gnu/crti.o
 .rel.text.rtimer_arch_now
                0x000000000000aebc       0x48 /usr/lib/gcc/i686-linux-gnu/4.6/../../../i386-linux-gnu/crti.o
 .rel.text.beep_alarm
                0x000000000000af04        0x8 /usr/lib/gcc/i686-linux-gnu/4.6/../../../i386-linux-gnu/crti.o
 .rel.text.beep_beep
                0x000000000000af0c        0x8 /usr/lib/gcc/i686-linux-gnu/4.6/../../../i386-linux-gnu/crti.o
 .rel.text.beep
                0x000000000000af14        0x8 /usr/lib/gcc/i686-linux-gnu/4.6/../../../i386-linux-gnu/crti.o
 .rel.text.beep_down
                0x000000000000af1c        0x8 /usr/lib/gcc/i686-linux-gnu/4.6/../../../i386-linux-gnu/crti.o
 .rel.text.beep_on
                0x000000000000af24        0x8 /usr/lib/gcc/i686-linux-gnu/4.6/../../../i386-linux-gnu/crti.o
 .rel.text.beep_off
                0x000000000000af2c        0x8 /usr/lib/gcc/i686-linux-gnu/4.6/../../../i386-linux-gnu/crti.o
 .rel.text.beep_spinup
                0x000000000000af34        0x8 /usr/lib/gcc/i686-linux-gnu/4.6/../../../i386-linux-gnu/crti.o
 .rel.text.beep_quick
                0x000000000000af3c        0x8 /usr/lib/gcc/i686-linux-gnu/4.6/../../../i386-linux-gnu/crti.o
 .rel.text.beep_long
                0x000000000000af44        0x8 /usr/lib/gcc/i686-linux-gnu/4.6/../../../i386-linux-gnu/crti.o
 .rel.text.value
                0x000000000000af4c       0x28 /usr/lib/gcc/i686-linux-gnu/4.6/../../../i386-linux-gnu/crti.o
 .rel.text.configure
                0x000000000000af74       0x40 /usr/lib/gcc/i686-linux-gnu/4.6/../../../i386-linux-gnu/crti.o
 .rel.text.status
                0x000000000000afb4       0x18 /usr/lib/gcc/i686-linux-gnu/4.6/../../../i386-linux-gnu/crti.o
 .rel.text.doInterfaceActionsBeforeTick
                0x000000000000afcc      0x188 /usr/lib/gcc/i686-linux-gnu/4.6/../../../i386-linux-gnu/crti.o
 .rel.text.leds_arch_init
                0x000000000000b154        0x8 /usr/lib/gcc/i686-linux-gnu/4.6/../../../i386-linux-gnu/crti.o
 .rel.text.leds_arch_get
                0x000000000000b15c        0x8 /usr/lib/gcc/i686-linux-gnu/4.6/../../../i386-linux-gnu/crti.o
 .rel.text.leds_arch_set
                0x000000000000b164       0x10 /usr/lib/gcc/i686-linux-gnu/4.6/../../../i386-linux-gnu/crti.o
 .rel.text.rs232_set_input
                0x000000000000b174        0x8 /usr/lib/gcc/i686-linux-gnu/4.6/../../../i386-linux-gnu/crti.o
 .rel.text.rs232_send
                0x000000000000b17c       0x10 /usr/lib/gcc/i686-linux-gnu/4.6/../../../i386-linux-gnu/crti.o
 .rel.text.rs232_print
                0x000000000000b18c       0x10 /usr/lib/gcc/i686-linux-gnu/4.6/../../../i386-linux-gnu/crti.o
 .rel.text.slip_arch_writeb
                0x000000000000b19c        0x8 /usr/lib/gcc/i686-linux-gnu/4.6/../../../i386-linux-gnu/crti.o
 .rel.text.clock_time
                0x000000000000b1a4        0x8 /usr/lib/gcc/i686-linux-gnu/4.6/../../../i386-linux-gnu/crti.o
 .rel.text.clock_seconds
                0x000000000000b1ac        0x8 /usr/lib/gcc/i686-linux-gnu/4.6/../../../i386-linux-gnu/crti.o
 .rel.text.simlog_char
                0x000000000000b1b4       0x30 /usr/lib/gcc/i686-linux-gnu/4.6/../../../i386-linux-gnu/crti.o
 .rel.text.simlog
                0x000000000000b1e4       0x38 /usr/lib/gcc/i686-linux-gnu/4.6/../../../i386-linux-gnu/crti.o
 .rel.text.log_message
                0x000000000000b21c       0x10 /usr/lib/gcc/i686-linux-gnu/4.6/../../../i386-linux-gnu/crti.o
 .rel.text.log_set_putchar_with_slip
                0x000000000000b22c        0x8 /usr/lib/gcc/i686-linux-gnu/4.6/../../../i386-linux-gnu/crti.o
 .rel.text.putchar
                0x000000000000b234       0x50 /usr/lib/gcc/i686-linux-gnu/4.6/../../../i386-linux-gnu/crti.o
 .rel.text.puts
                0x000000000000b284       0x10 /usr/lib/gcc/i686-linux-gnu/4.6/../../../i386-linux-gnu/crti.o
 .rel.text.printf
                0x000000000000b294       0x20 /usr/lib/gcc/i686-linux-gnu/4.6/../../../i386-linux-gnu/crti.o
 .rel.text.cfs_open
                0x000000000000b2b4       0x30 /usr/lib/gcc/i686-linux-gnu/4.6/../../../i386-linux-gnu/crti.o
 .rel.text.cfs_close
                0x000000000000b2e4        0x8 /usr/lib/gcc/i686-linux-gnu/4.6/../../../i386-linux-gnu/crti.o
 .rel.text.cfs_read
                0x000000000000b2ec       0x70 /usr/lib/gcc/i686-linux-gnu/4.6/../../../i386-linux-gnu/crti.o
 .rel.text.cfs_write
                0x000000000000b35c       0x90 /usr/lib/gcc/i686-linux-gnu/4.6/../../../i386-linux-gnu/crti.o
 .rel.text.cfs_seek
                0x000000000000b3ec       0x68 /usr/lib/gcc/i686-linux-gnu/4.6/../../../i386-linux-gnu/crti.o
 .rel.text.cfs_remove
                0x000000000000b454        0x8 /usr/lib/gcc/i686-linux-gnu/4.6/../../../i386-linux-gnu/crti.o
 .rel.text.radio_set_channel
                0x000000000000b45c        0x8 /usr/lib/gcc/i686-linux-gnu/4.6/../../../i386-linux-gnu/crti.o
 .rel.text.radio_set_txpower
                0x000000000000b464        0x8 /usr/lib/gcc/i686-linux-gnu/4.6/../../../i386-linux-gnu/crti.o
 .rel.text.radio_signal_strength_last
                0x000000000000b46c        0x8 /usr/lib/gcc/i686-linux-gnu/4.6/../../../i386-linux-gnu/crti.o
 .rel.text.radio_signal_strength_current
                0x000000000000b474        0x8 /usr/lib/gcc/i686-linux-gnu/4.6/../../../i386-linux-gnu/crti.o
 .rel.text.radio_on
                0x000000000000b47c        0x8 /usr/lib/gcc/i686-linux-gnu/4.6/../../../i386-linux-gnu/crti.o
 .rel.text.radio_off
                0x000000000000b484        0x8 /usr/lib/gcc/i686-linux-gnu/4.6/../../../i386-linux-gnu/crti.o
 .rel.text.radio_read
                0x000000000000b48c       0x50 /usr/lib/gcc/i686-linux-gnu/4.6/../../../i386-linux-gnu/crti.o
 .rel.text.channel_clear
                0x000000000000b4dc        0x8 /usr/lib/gcc/i686-linux-gnu/4.6/../../../i386-linux-gnu/crti.o
 .rel.text.radio_send
                0x000000000000b4e4       0x70 /usr/lib/gcc/i686-linux-gnu/4.6/../../../i386-linux-gnu/crti.o
 .rel.text.prepare_packet
                0x000000000000b554        0x8 /usr/lib/gcc/i686-linux-gnu/4.6/../../../i386-linux-gnu/crti.o
 .rel.text.transmit_packet
                0x000000000000b55c       0x10 /usr/lib/gcc/i686-linux-gnu/4.6/../../../i386-linux-gnu/crti.o
 .rel.text.receiving_packet
                0x000000000000b56c        0x8 /usr/lib/gcc/i686-linux-gnu/4.6/../../../i386-linux-gnu/crti.o
 .rel.text.pending_packet
                0x000000000000b574       0x10 /usr/lib/gcc/i686-linux-gnu/4.6/../../../i386-linux-gnu/crti.o
 .rel.text.process_thread_cooja_radio_process
                0x000000000000b584       0x20 /usr/lib/gcc/i686-linux-gnu/4.6/../../../i386-linux-gnu/crti.o
 .rel.text.get_sensor_index
                0x000000000000b5a4       0x10 /usr/lib/gcc/i686-linux-gnu/4.6/../../../i386-linux-gnu/crti.o
 .rel.text.sensors_first
                0x000000000000b5b4        0x8 /usr/lib/gcc/i686-linux-gnu/4.6/../../../i386-linux-gnu/crti.o
 .rel.text.sensors_next
                0x000000000000b5bc        0x8 /usr/lib/gcc/i686-linux-gnu/4.6/../../../i386-linux-gnu/crti.o
 .rel.text.sensors_changed
                0x000000000000b5c4       0x20 /usr/lib/gcc/i686-linux-gnu/4.6/../../../i386-linux-gnu/crti.o
 .rel.text.sensors_find
                0x000000000000b5e4       0x20 /usr/lib/gcc/i686-linux-gnu/4.6/../../../i386-linux-gnu/crti.o
 .rel.text.process_thread_sensors_process
                0x000000000000b604      0x108 /usr/lib/gcc/i686-linux-gnu/4.6/../../../i386-linux-gnu/crti.o
 .rel.text.show_leds
                0x000000000000b70c       0x18 /usr/lib/gcc/i686-linux-gnu/4.6/../../../i386-linux-gnu/crti.o
 .rel.text.leds_init
                0x000000000000b724       0x20 /usr/lib/gcc/i686-linux-gnu/4.6/../../../i386-linux-gnu/crti.o
 .rel.text.leds_blink
                0x000000000000b744       0x28 /usr/lib/gcc/i686-linux-gnu/4.6/../../../i386-linux-gnu/crti.o
 .rel.text.leds_get
                0x000000000000b76c        0x8 /usr/lib/gcc/i686-linux-gnu/4.6/../../../i386-linux-gnu/crti.o
 .rel.text.leds_on
                0x000000000000b774       0x18 /usr/lib/gcc/i686-linux-gnu/4.6/../../../i386-linux-gnu/crti.o
 .rel.text.leds_off
                0x000000000000b78c       0x18 /usr/lib/gcc/i686-linux-gnu/4.6/../../../i386-linux-gnu/crti.o
 .rel.text.leds_toggle
                0x000000000000b7a4        0x8 /usr/lib/gcc/i686-linux-gnu/4.6/../../../i386-linux-gnu/crti.o
 .rel.text.leds_invert
                0x000000000000b7ac       0x10 /usr/lib/gcc/i686-linux-gnu/4.6/../../../i386-linux-gnu/crti.o
 .rel.text.frame802154_parse
                0x000000000000b7bc       0x40 /usr/lib/gcc/i686-linux-gnu/4.6/../../../i386-linux-gnu/crti.o
 .rel.text.rpl_purge_routes
                0x000000000000b7fc       0x50 /usr/lib/gcc/i686-linux-gnu/4.6/../../../i386-linux-gnu/crti.o
 .rel.text.rpl_remove_routes
                0x000000000000b84c       0x20 /usr/lib/gcc/i686-linux-gnu/4.6/../../../i386-linux-gnu/crti.o
 .rel.text.rpl_remove_routes_by_nexthop
                0x000000000000b86c       0x30 /usr/lib/gcc/i686-linux-gnu/4.6/../../../i386-linux-gnu/crti.o
 .rel.text.rpl_add_route
                0x000000000000b89c        0x8 /usr/lib/gcc/i686-linux-gnu/4.6/../../../i386-linux-gnu/crti.o
 .rel.text.rpl_link_neighbor_callback
                0x000000000000b8a4       0x20 /usr/lib/gcc/i686-linux-gnu/4.6/../../../i386-linux-gnu/crti.o
 .rel.text.rpl_ipv6_neighbor_callback
                0x000000000000b8c4       0x10 /usr/lib/gcc/i686-linux-gnu/4.6/../../../i386-linux-gnu/crti.o
 .rel.text.rpl_init
                0x000000000000b8d4       0x28 /usr/lib/gcc/i686-linux-gnu/4.6/../../../i386-linux-gnu/crti.o
 .rel.text.rpl_dag_init
                0x000000000000b8fc       0x18 /usr/lib/gcc/i686-linux-gnu/4.6/../../../i386-linux-gnu/crti.o
 .rel.text.rpl_get_parent_rank
                0x000000000000b914       0x10 /usr/lib/gcc/i686-linux-gnu/4.6/../../../i386-linux-gnu/crti.o
 .rel.text.rpl_get_parent_link_metric
                0x000000000000b924       0x10 /usr/lib/gcc/i686-linux-gnu/4.6/../../../i386-linux-gnu/crti.o
 .rel.text.rpl_get_parent_ipaddr
                0x000000000000b934       0x18 /usr/lib/gcc/i686-linux-gnu/4.6/../../../i386-linux-gnu/crti.o
 .rel.text.rpl_set_preferred_parent
                0x000000000000b94c       0x20 /usr/lib/gcc/i686-linux-gnu/4.6/../../../i386-linux-gnu/crti.o
 .rel.text.remove_parents
                0x000000000000b96c       0x28 /usr/lib/gcc/i686-linux-gnu/4.6/../../../i386-linux-gnu/crti.o
 .rel.text.nullify_parents
                0x000000000000b994       0x28 /usr/lib/gcc/i686-linux-gnu/4.6/../../../i386-linux-gnu/crti.o
 .rel.text.get_dag
                0x000000000000b9bc       0x10 /usr/lib/gcc/i686-linux-gnu/4.6/../../../i386-linux-gnu/crti.o
 .rel.text.rpl_set_root
                0x000000000000b9cc       0x30 /usr/lib/gcc/i686-linux-gnu/4.6/../../../i386-linux-gnu/crti.o
 .rel.text.rpl_repair_root
                0x000000000000b9fc       0x10 /usr/lib/gcc/i686-linux-gnu/4.6/../../../i386-linux-gnu/crti.o
 .rel.text.set_ip_from_prefix
                0x000000000000ba0c       0x18 /usr/lib/gcc/i686-linux-gnu/4.6/../../../i386-linux-gnu/crti.o
 .rel.text.check_prefix
                0x000000000000ba24       0x30 /usr/lib/gcc/i686-linux-gnu/4.6/../../../i386-linux-gnu/crti.o
 .rel.text.rpl_set_prefix
                0x000000000000ba54       0x10 /usr/lib/gcc/i686-linux-gnu/4.6/../../../i386-linux-gnu/crti.o
 .rel.text.rpl_set_default_route
                0x000000000000ba64       0x18 /usr/lib/gcc/i686-linux-gnu/4.6/../../../i386-linux-gnu/crti.o
 .rel.text.rpl_alloc_instance
                0x000000000000ba7c        0x8 /usr/lib/gcc/i686-linux-gnu/4.6/../../../i386-linux-gnu/crti.o
 .rel.text.rpl_alloc_dag
                0x000000000000ba84       0x18 /usr/lib/gcc/i686-linux-gnu/4.6/../../../i386-linux-gnu/crti.o
 .rel.text.rpl_set_default_instance
                0x000000000000ba9c        0x8 /usr/lib/gcc/i686-linux-gnu/4.6/../../../i386-linux-gnu/crti.o
 .rel.text.rpl_free_instance
                0x000000000000baa4       0x30 /usr/lib/gcc/i686-linux-gnu/4.6/../../../i386-linux-gnu/crti.o
 .rel.text.rpl_free_dag
                0x000000000000bad4        0x8 /usr/lib/gcc/i686-linux-gnu/4.6/../../../i386-linux-gnu/crti.o
 .rel.text.rpl_add_parent
                0x000000000000badc       0x18 /usr/lib/gcc/i686-linux-gnu/4.6/../../../i386-linux-gnu/crti.o
 .rel.text.find_parent_any_dag_any_instance
                0x000000000000baf4       0x20 /usr/lib/gcc/i686-linux-gnu/4.6/../../../i386-linux-gnu/crti.o
 .rel.text.rpl_select_dag
                0x000000000000bb14       0x40 /usr/lib/gcc/i686-linux-gnu/4.6/../../../i386-linux-gnu/crti.o
 .rel.text.rpl_select_parent
                0x000000000000bb54       0x20 /usr/lib/gcc/i686-linux-gnu/4.6/../../../i386-linux-gnu/crti.o
 .rel.text.rpl_remove_parent
                0x000000000000bb74       0x18 /usr/lib/gcc/i686-linux-gnu/4.6/../../../i386-linux-gnu/crti.o
 .rel.text.rpl_nullify_parent
                0x000000000000bb8c       0x10 /usr/lib/gcc/i686-linux-gnu/4.6/../../../i386-linux-gnu/crti.o
 .rel.text.rpl_move_parent
                0x000000000000bb9c       0x28 /usr/lib/gcc/i686-linux-gnu/4.6/../../../i386-linux-gnu/crti.o
 .rel.text.rpl_get_any_dag
                0x000000000000bbc4       0x18 /usr/lib/gcc/i686-linux-gnu/4.6/../../../i386-linux-gnu/crti.o
 .rel.text.rpl_get_instance
                0x000000000000bbdc       0x18 /usr/lib/gcc/i686-linux-gnu/4.6/../../../i386-linux-gnu/crti.o
 .rel.text.rpl_find_of
                0x000000000000bbf4       0x10 /usr/lib/gcc/i686-linux-gnu/4.6/../../../i386-linux-gnu/crti.o
 .rel.text.rpl_join_instance
                0x000000000000bc04       0x48 /usr/lib/gcc/i686-linux-gnu/4.6/../../../i386-linux-gnu/crti.o
 .rel.text.rpl_add_dag
                0x000000000000bc4c       0x38 /usr/lib/gcc/i686-linux-gnu/4.6/../../../i386-linux-gnu/crti.o
 .rel.text.global_repair
                0x000000000000bc84       0x10 /usr/lib/gcc/i686-linux-gnu/4.6/../../../i386-linux-gnu/crti.o
 .rel.text.rpl_local_repair
                0x000000000000bc94        0x8 /usr/lib/gcc/i686-linux-gnu/4.6/../../../i386-linux-gnu/crti.o
 .rel.text.rpl_recalculate_ranks
                0x000000000000bc9c       0x28 /usr/lib/gcc/i686-linux-gnu/4.6/../../../i386-linux-gnu/crti.o
 .rel.text.rpl_process_parent_event
                0x000000000000bcc4       0x18 /usr/lib/gcc/i686-linux-gnu/4.6/../../../i386-linux-gnu/crti.o
 .rel.text.rpl_process_dio
                0x000000000000bcdc       0x78 /usr/lib/gcc/i686-linux-gnu/4.6/../../../i386-linux-gnu/crti.o
 .rel.text.get_global_addr
                0x000000000000bd54       0x28 /usr/lib/gcc/i686-linux-gnu/4.6/../../../i386-linux-gnu/crti.o
 .rel.text.dis_input
                0x000000000000bd7c       0x28 /usr/lib/gcc/i686-linux-gnu/4.6/../../../i386-linux-gnu/crti.o
 .rel.text.dis_output
                0x000000000000bda4       0x20 /usr/lib/gcc/i686-linux-gnu/4.6/../../../i386-linux-gnu/crti.o
 .rel.text.dio_input
                0x000000000000bdc4       0x60 /usr/lib/gcc/i686-linux-gnu/4.6/../../../i386-linux-gnu/crti.o
 .rel.text.dio_output
                0x000000000000be24       0x28 /usr/lib/gcc/i686-linux-gnu/4.6/../../../i386-linux-gnu/crti.o
 .rel.text.dao_input
                0x000000000000be4c       0x98 /usr/lib/gcc/i686-linux-gnu/4.6/../../../i386-linux-gnu/crti.o
 .rel.text.dao_output
                0x000000000000bee4       0x10 /usr/lib/gcc/i686-linux-gnu/4.6/../../../i386-linux-gnu/crti.o
 .rel.text.dao_output_target
                0x000000000000bef4       0x60 /usr/lib/gcc/i686-linux-gnu/4.6/../../../i386-linux-gnu/crti.o
 .rel.text.dao_ack_output
                0x000000000000bf54       0x18 /usr/lib/gcc/i686-linux-gnu/4.6/../../../i386-linux-gnu/crti.o
 .rel.text.uip_rpl_input
                0x000000000000bf6c       0x18 /usr/lib/gcc/i686-linux-gnu/4.6/../../../i386-linux-gnu/crti.o
 .rel.text.handle_periodic_timer
                0x000000000000bf84       0x50 /usr/lib/gcc/i686-linux-gnu/4.6/../../../i386-linux-gnu/crti.o
 .rel.text.new_dio_interval
                0x000000000000bfd4       0x18 /usr/lib/gcc/i686-linux-gnu/4.6/../../../i386-linux-gnu/crti.o
 .rel.text.handle_dio_timer
                0x000000000000bfec       0x40 /usr/lib/gcc/i686-linux-gnu/4.6/../../../i386-linux-gnu/crti.o
 .rel.text.rpl_reset_periodic_timer
                0x000000000000c02c       0x28 /usr/lib/gcc/i686-linux-gnu/4.6/../../../i386-linux-gnu/crti.o
 .rel.text.handle_dao_timer
                0x000000000000c054       0x30 /usr/lib/gcc/i686-linux-gnu/4.6/../../../i386-linux-gnu/crti.o
 .rel.text.rpl_schedule_dao
                0x000000000000c084       0x28 /usr/lib/gcc/i686-linux-gnu/4.6/../../../i386-linux-gnu/crti.o
 .rel.text.rpl_verify_header
                0x000000000000c0ac       0xd0 /usr/lib/gcc/i686-linux-gnu/4.6/../../../i386-linux-gnu/crti.o
 .rel.text.set_rpl_opt
                0x000000000000c17c      0x108 /usr/lib/gcc/i686-linux-gnu/4.6/../../../i386-linux-gnu/crti.o
 .rel.text.rpl_update_header_empty
                0x000000000000c284      0x120 /usr/lib/gcc/i686-linux-gnu/4.6/../../../i386-linux-gnu/crti.o
 .rel.text.rpl_update_header_final
                0x000000000000c3a4       0xc0 /usr/lib/gcc/i686-linux-gnu/4.6/../../../i386-linux-gnu/crti.o
 .rel.text.rpl_remove_header
                0x000000000000c464       0xb0 /usr/lib/gcc/i686-linux-gnu/4.6/../../../i386-linux-gnu/crti.o
 .rel.text.rpl_invert_header
                0x000000000000c514       0xa8 /usr/lib/gcc/i686-linux-gnu/4.6/../../../i386-linux-gnu/crti.o
 .rel.text.rpl_insert_header
                0x000000000000c5bc       0x20 /usr/lib/gcc/i686-linux-gnu/4.6/../../../i386-linux-gnu/crti.o
 .rel.text.timer_set
                0x000000000000c5dc        0x8 /usr/lib/gcc/i686-linux-gnu/4.6/../../../i386-linux-gnu/crti.o
 .rel.text.timer_restart
                0x000000000000c5e4        0x8 /usr/lib/gcc/i686-linux-gnu/4.6/../../../i386-linux-gnu/crti.o
 .rel.text.timer_expired
                0x000000000000c5ec        0x8 /usr/lib/gcc/i686-linux-gnu/4.6/../../../i386-linux-gnu/crti.o
 .rel.text.timer_remaining
                0x000000000000c5f4        0x8 /usr/lib/gcc/i686-linux-gnu/4.6/../../../i386-linux-gnu/crti.o
 .rel.text.rtimer_init
                0x000000000000c5fc        0x8 /usr/lib/gcc/i686-linux-gnu/4.6/../../../i386-linux-gnu/crti.o
 .rel.text.rtimer_set
                0x000000000000c604       0x18 /usr/lib/gcc/i686-linux-gnu/4.6/../../../i386-linux-gnu/crti.o
 .rel.text.rtimer_run_next
                0x000000000000c61c       0x30 /usr/lib/gcc/i686-linux-gnu/4.6/../../../i386-linux-gnu/crti.o
 .rel.text.stimer_set
                0x000000000000c64c        0x8 /usr/lib/gcc/i686-linux-gnu/4.6/../../../i386-linux-gnu/crti.o
 .rel.text.stimer_restart
                0x000000000000c654        0x8 /usr/lib/gcc/i686-linux-gnu/4.6/../../../i386-linux-gnu/crti.o
 .rel.text.stimer_expired
                0x000000000000c65c        0x8 /usr/lib/gcc/i686-linux-gnu/4.6/../../../i386-linux-gnu/crti.o
 .rel.text.stimer_remaining
                0x000000000000c664        0x8 /usr/lib/gcc/i686-linux-gnu/4.6/../../../i386-linux-gnu/crti.o
 .rel.text.stimer_elapsed
                0x000000000000c66c        0x8 /usr/lib/gcc/i686-linux-gnu/4.6/../../../i386-linux-gnu/crti.o
 .rel.text.key_from_index
                0x000000000000c674        0x8 /usr/lib/gcc/i686-linux-gnu/4.6/../../../i386-linux-gnu/crti.o
 .rel.text.index_from_key
                0x000000000000c67c        0x8 /usr/lib/gcc/i686-linux-gnu/4.6/../../../i386-linux-gnu/crti.o
 .rel.text.index_from_lladdr
                0x000000000000c684       0x28 /usr/lib/gcc/i686-linux-gnu/4.6/../../../i386-linux-gnu/crti.o
 .rel.text.nbr_table_allocate
                0x000000000000c6ac       0x80 /usr/lib/gcc/i686-linux-gnu/4.6/../../../i386-linux-gnu/crti.o
 .rel.text.nbr_table_register
                0x000000000000c72c       0x20 /usr/lib/gcc/i686-linux-gnu/4.6/../../../i386-linux-gnu/crti.o
 .rel.text.nbr_table_head
                0x000000000000c74c       0x20 /usr/lib/gcc/i686-linux-gnu/4.6/../../../i386-linux-gnu/crti.o
 .rel.text.nbr_table_next
                0x000000000000c76c       0x10 /usr/lib/gcc/i686-linux-gnu/4.6/../../../i386-linux-gnu/crti.o
 .rel.text.nbr_table_add_lladdr
                0x000000000000c77c       0x30 /usr/lib/gcc/i686-linux-gnu/4.6/../../../i386-linux-gnu/crti.o
 .rel.text.nbr_table_get_from_lladdr
                0x000000000000c7ac        0x8 /usr/lib/gcc/i686-linux-gnu/4.6/../../../i386-linux-gnu/crti.o
 .rel.text.nbr_table_remove
                0x000000000000c7b4       0x10 /usr/lib/gcc/i686-linux-gnu/4.6/../../../i386-linux-gnu/crti.o
 .rel.text.nbr_table_lock
                0x000000000000c7c4        0x8 /usr/lib/gcc/i686-linux-gnu/4.6/../../../i386-linux-gnu/crti.o
 .rel.text.nbr_table_unlock
                0x000000000000c7cc        0x8 /usr/lib/gcc/i686-linux-gnu/4.6/../../../i386-linux-gnu/crti.o
 .rel.text.uip_icmp6_echo_request_input
                0x000000000000c7d4      0x1f0 /usr/lib/gcc/i686-linux-gnu/4.6/../../../i386-linux-gnu/crti.o
 .rel.text.uip_icmp6_error_output
                0x000000000000c9c4      0x238 /usr/lib/gcc/i686-linux-gnu/4.6/../../../i386-linux-gnu/crti.o
 .rel.text.uip_icmp6_send
                0x000000000000cbfc       0xb8 /usr/lib/gcc/i686-linux-gnu/4.6/../../../i386-linux-gnu/crti.o
 *(.rel.fini)
 *(.rel.rodata .rel.rodata.* .rel.gnu.linkonce.r.*)
 .rel.rodata    0x000000000000ccb4      0x568 /usr/lib/gcc/i686-linux-gnu/4.6/../../../i386-linux-gnu/crti.o
 *(.rel.data.rel.ro* .rel.gnu.linkonce.d.rel.ro.*)
 *(.rel.data .rel.data.* .rel.gnu.linkonce.d.*)
 .rel.data.rel  0x000000000000d21c        0x8 /usr/lib/gcc/i686-linux-gnu/4.6/../../../i386-linux-gnu/crti.o
 .rel.data      0x000000000000d224      0x250 /usr/lib/gcc/i686-linux-gnu/4.6/../../../i386-linux-gnu/crti.o
 *(.rel.tdata .rel.tdata.* .rel.gnu.linkonce.td.*)
 *(.rel.tbss .rel.tbss.* .rel.gnu.linkonce.tb.*)
 *(.rel.ctors)
 *(.rel.dtors)
 *(.rel.got)
 .rel.got       0x000000000000d474       0x18 /usr/lib/gcc/i686-linux-gnu/4.6/../../../i386-linux-gnu/crti.o
 *(.rel.bss .rel.bss.* .rel.gnu.linkonce.b.*)
 *(.rel.ifunc)
 .rel.ifunc     0x0000000000000000        0x0 /usr/lib/gcc/i686-linux-gnu/4.6/../../../i386-linux-gnu/crti.o

.rel.plt        0x000000000000d48c       0x10
 *(.rel.plt)
 .rel.plt       0x000000000000d48c       0x10 /usr/lib/gcc/i686-linux-gnu/4.6/../../../i386-linux-gnu/crti.o
 *(.rel.iplt)

.init           0x000000000000d49c       0x2e
 *(.init)
 .init          0x000000000000d49c       0x1f /usr/lib/gcc/i686-linux-gnu/4.6/../../../i386-linux-gnu/crti.o
                0x000000000000d49c                _init
 .init          0x000000000000d4bb        0x5 /usr/lib/gcc/i686-linux-gnu/4.6/crtbeginS.o
 .init          0x000000000000d4c0        0x5 /usr/lib/gcc/i686-linux-gnu/4.6/crtendS.o
 .init          0x000000000000d4c5        0x5 /usr/lib/gcc/i686-linux-gnu/4.6/../../../i386-linux-gnu/crtn.o

.plt            0x000000000000d4d0       0x30
 *(.plt)
 .plt           0x000000000000d4d0       0x30 /usr/lib/gcc/i686-linux-gnu/4.6/../../../i386-linux-gnu/crti.o
 *(.iplt)

.text           0x000000000000d500    0x13838
 *(.text.unlikely .text.*_unlikely)
 *(.text.exit .text.exit.*)
 *(.text.startup .text.startup.*)
 *(.text.hot .text.hot.*)
 *(.text .stub .text.* .gnu.linkonce.t.*)
 .text          0x000000000000d500        0x0 /usr/lib/gcc/i686-linux-gnu/4.6/../../../i386-linux-gnu/crti.o
 .text          0x000000000000d500       0xb7 /usr/lib/gcc/i686-linux-gnu/4.6/crtbeginS.o
 .text.__i686.get_pc_thunk.bx
                0x000000000000d5b7        0x4 /usr/lib/gcc/i686-linux-gnu/4.6/crtbeginS.o
                0x000000000000d5b7                __i686.get_pc_thunk.bx
 *fill*         0x000000000000d5bb        0x1 90909090
 .text          0x000000000000d5bc        0x0 desk-controller.co
 .text.receiver
                0x000000000000d5bc       0x1d desk-controller.co
 .text.set_global_address
                0x000000000000d5d9       0xfc desk-controller.co
 .text.process_thread_unicast_sender_process
                0x000000000000d6d5      0x264 desk-controller.co
 *fill*         0x000000000000d939        0x3 90909090
 .text          0x000000000000d93c        0x0 obj_cooja/mtype892.o
 .text.print_processes
                0x000000000000d93c       0x49 obj_cooja/mtype892.o
 .text.rtimer_thread_loop
                0x000000000000d985       0x12 obj_cooja/mtype892.o
 .text.set_rime_addr
                0x000000000000d997       0xd1 obj_cooja/mtype892.o
 .text.contiki_init
                0x000000000000da68      0x3b0 obj_cooja/mtype892.o
                0x000000000000da68                contiki_init
 .text.process_run_thread_loop
                0x000000000000de18       0x6e obj_cooja/mtype892.o
 .text.Java_se_sics_cooja_corecomm_Lib143_init
                0x000000000000de86       0x40 obj_cooja/mtype892.o
                0x000000000000de86                Java_se_sics_cooja_corecomm_Lib143_init
 .text.Java_se_sics_cooja_corecomm_Lib143_getMemory
                0x000000000000dec6       0x3d obj_cooja/mtype892.o
                0x000000000000dec6                Java_se_sics_cooja_corecomm_Lib143_getMemory
 .text.Java_se_sics_cooja_corecomm_Lib143_setMemory
                0x000000000000df03       0x74 obj_cooja/mtype892.o
                0x000000000000df03                Java_se_sics_cooja_corecomm_Lib143_setMemory
 .text.Java_se_sics_cooja_corecomm_Lib143_tick
                0x000000000000df77       0xe1 obj_cooja/mtype892.o
                0x000000000000df77                Java_se_sics_cooja_corecomm_Lib143_tick
 .text.Java_se_sics_cooja_corecomm_Lib143_setReferenceAddress
                0x000000000000e058       0x12 obj_cooja/mtype892.o
                0x000000000000e058                Java_se_sics_cooja_corecomm_Lib143_setReferenceAddress
 *fill*         0x000000000000e06a        0x2 90909090
 .text          0x000000000000e06c        0x0 obj_cooja/mtype892.a(rimeaddr.o)
 .text.rimeaddr_copy
                0x000000000000e06c       0x15 obj_cooja/mtype892.a(rimeaddr.o)
                0x000000000000e06c                rimeaddr_copy
 .text.rimeaddr_cmp
                0x000000000000e081       0x2a obj_cooja/mtype892.a(rimeaddr.o)
                0x000000000000e081                rimeaddr_cmp
 .text.rimeaddr_set_node_addr
                0x000000000000e0ab       0x1b obj_cooja/mtype892.a(rimeaddr.o)
                0x000000000000e0ab                rimeaddr_set_node_addr
 *fill*         0x000000000000e0c6        0x2 90909090
 .text          0x000000000000e0c8        0x0 obj_cooja/mtype892.a(nullrdc.o)
 .text.packetbuf_set_attr
                0x000000000000e0c8       0x2a obj_cooja/mtype892.a(nullrdc.o)
 .text.packetbuf_attr
                0x000000000000e0f2       0x1a obj_cooja/mtype892.a(nullrdc.o)
 .text.packetbuf_set_addr
                0x000000000000e10c       0x32 obj_cooja/mtype892.a(nullrdc.o)
 .text.packetbuf_addr
                0x000000000000e13e       0x1d obj_cooja/mtype892.a(nullrdc.o)
 .text.send_one_packet
                0x000000000000e15b      0x1f9 obj_cooja/mtype892.a(nullrdc.o)
 .text.send_packet
                0x000000000000e354       0x1a obj_cooja/mtype892.a(nullrdc.o)
 .text.send_list
                0x000000000000e36e       0x4a obj_cooja/mtype892.a(nullrdc.o)
 .text.packet_input
                0x000000000000e3b8      0x212 obj_cooja/mtype892.a(nullrdc.o)
 .text.on       0x000000000000e5ca        0xf obj_cooja/mtype892.a(nullrdc.o)
 .text.off      0x000000000000e5d9       0x1e obj_cooja/mtype892.a(nullrdc.o)
 .text.channel_check_interval
                0x000000000000e5f7        0xa obj_cooja/mtype892.a(nullrdc.o)
 .text.init     0x000000000000e601        0xd obj_cooja/mtype892.a(nullrdc.o)
 *fill*         0x000000000000e60e        0x2 90909090
 .text          0x000000000000e610        0x0 obj_cooja/mtype892.a(mac.o)
 .text.mac_call_sent_callback
                0x000000000000e610       0x3c obj_cooja/mtype892.a(mac.o)
                0x000000000000e610                mac_call_sent_callback
 .text          0x000000000000e64c        0x0 obj_cooja/mtype892.a(framer-802154.o)
 .text.packetbuf_set_attr
                0x000000000000e64c       0x2a obj_cooja/mtype892.a(framer-802154.o)
 .text.packetbuf_attr
                0x000000000000e676       0x1a obj_cooja/mtype892.a(framer-802154.o)
 .text.packetbuf_set_addr
                0x000000000000e690       0x32 obj_cooja/mtype892.a(framer-802154.o)
 .text.packetbuf_addr
                0x000000000000e6c2       0x1d obj_cooja/mtype892.a(framer-802154.o)
 .text.is_broadcast_addr
                0x000000000000e6df       0x4d obj_cooja/mtype892.a(framer-802154.o)
 .text.create   0x000000000000e72c      0x1cd obj_cooja/mtype892.a(framer-802154.o)
 .text.parse    0x000000000000e8f9      0x12c obj_cooja/mtype892.a(framer-802154.o)
 *fill*         0x000000000000ea25        0x3 90909090
 .text          0x000000000000ea28        0x0 obj_cooja/mtype892.a(csma.o)
 .text.packetbuf_set_attr
                0x000000000000ea28       0x2a obj_cooja/mtype892.a(csma.o)
 .text.packetbuf_attr
                0x000000000000ea52       0x1a obj_cooja/mtype892.a(csma.o)
 .text.packetbuf_addr
                0x000000000000ea6c       0x1d obj_cooja/mtype892.a(csma.o)
 .text.neighbor_queue_from_addr
                0x000000000000ea89       0x51 obj_cooja/mtype892.a(csma.o)
 .text.default_timebase
                0x000000000000eada       0x25 obj_cooja/mtype892.a(csma.o)
 .text.transmit_packet_list
                0x000000000000eaff       0x48 obj_cooja/mtype892.a(csma.o)
 .text.free_packet
                0x000000000000eb47       0xe2 obj_cooja/mtype892.a(csma.o)
 .text.packet_sent
                0x000000000000ec29      0x215 obj_cooja/mtype892.a(csma.o)
 .text.send_packet
                0x000000000000ee3e      0x28b obj_cooja/mtype892.a(csma.o)
 .text.input_packet
                0x000000000000f0c9        0xf obj_cooja/mtype892.a(csma.o)
 .text.on       0x000000000000f0d8        0xf obj_cooja/mtype892.a(csma.o)
 .text.off      0x000000000000f0e7       0x16 obj_cooja/mtype892.a(csma.o)
 .text.channel_check_interval
                0x000000000000f0fd       0x1f obj_cooja/mtype892.a(csma.o)
 .text.init     0x000000000000f11c       0x2c obj_cooja/mtype892.a(csma.o)
 .text          0x000000000000f148        0x0 obj_cooja/mtype892.a(process.o)
 .text.process_alloc_event
                0x000000000000f148       0x18 obj_cooja/mtype892.a(process.o)
                0x000000000000f148                process_alloc_event
 .text.process_start
                0x000000000000f160       0x70 obj_cooja/mtype892.a(process.o)
                0x000000000000f160                process_start
 .text.exit_process
                0x000000000000f1d0       0xec obj_cooja/mtype892.a(process.o)
 .text.call_process
                0x000000000000f2bc       0x90 obj_cooja/mtype892.a(process.o)
 .text.process_exit
                0x000000000000f34c       0x1c obj_cooja/mtype892.a(process.o)
                0x000000000000f34c                process_exit
 .text.process_init
                0x000000000000f368       0x33 obj_cooja/mtype892.a(process.o)
                0x000000000000f368                process_init
 .text.do_poll  0x000000000000f39b       0x5b obj_cooja/mtype892.a(process.o)
 .text.do_event
                0x000000000000f3f6      0x145 obj_cooja/mtype892.a(process.o)
 .text.process_run
                0x000000000000f53b       0x33 obj_cooja/mtype892.a(process.o)
                0x000000000000f53b                process_run
 .text.process_nevents
                0x000000000000f56e       0x1b obj_cooja/mtype892.a(process.o)
                0x000000000000f56e                process_nevents
 .text.process_post
                0x000000000000f589       0xac obj_cooja/mtype892.a(process.o)
                0x000000000000f589                process_post
 .text.process_post_synch
                0x000000000000f635       0x38 obj_cooja/mtype892.a(process.o)
                0x000000000000f635                process_post_synch
 .text.process_poll
                0x000000000000f66d       0x2f obj_cooja/mtype892.a(process.o)
                0x000000000000f66d                process_poll
 .text.process_is_running
                0x000000000000f69c       0x14 obj_cooja/mtype892.a(process.o)
                0x000000000000f69c                process_is_running
 .text          0x000000000000f6b0        0x0 obj_cooja/mtype892.a(autostart.o)
 .text.autostart_start
                0x000000000000f6b0       0x3f obj_cooja/mtype892.a(autostart.o)
                0x000000000000f6b0                autostart_start
 .text.autostart_exit
                0x000000000000f6ef       0x37 obj_cooja/mtype892.a(autostart.o)
                0x000000000000f6ef                autostart_exit
 *fill*         0x000000000000f726        0x2 90909090
 .text          0x000000000000f728        0x0 obj_cooja/mtype892.a(serial-line.o)
 .text.serial_line_input_byte
                0x000000000000f728       0x7d obj_cooja/mtype892.a(serial-line.o)
                0x000000000000f728                serial_line_input_byte
 .text.process_thread_serial_line_process
                0x000000000000f7a5      0x137 obj_cooja/mtype892.a(serial-line.o)
 .text.serial_line_init
                0x000000000000f8dc       0x38 obj_cooja/mtype892.a(serial-line.o)
                0x000000000000f8dc                serial_line_init
 .text          0x000000000000f914        0x0 obj_cooja/mtype892.a(memb.o)
 .text.memb_init
                0x000000000000f914       0x5e obj_cooja/mtype892.a(memb.o)
                0x000000000000f914                memb_init
 .text.memb_alloc
                0x000000000000f972       0x65 obj_cooja/mtype892.a(memb.o)
                0x000000000000f972                memb_alloc
 .text.memb_free
                0x000000000000f9d7       0x7b obj_cooja/mtype892.a(memb.o)
                0x000000000000f9d7                memb_free
 .text.memb_inmemb
                0x000000000000fa52       0x3f obj_cooja/mtype892.a(memb.o)
                0x000000000000fa52                memb_inmemb
 *fill*         0x000000000000fa91        0x3 90909090
 .text          0x000000000000fa94        0x0 obj_cooja/mtype892.a(list.o)
 .text.list_init
                0x000000000000fa94        0xe obj_cooja/mtype892.a(list.o)
                0x000000000000fa94                list_init
 .text.list_head
                0x000000000000faa2        0xa obj_cooja/mtype892.a(list.o)
                0x000000000000faa2                list_head
 .text.list_copy
                0x000000000000faac        0xf obj_cooja/mtype892.a(list.o)
                0x000000000000faac                list_copy
 .text.list_tail
                0x000000000000fabb       0x36 obj_cooja/mtype892.a(list.o)
                0x000000000000fabb                list_tail
 .text.list_add
                0x000000000000faf1       0x49 obj_cooja/mtype892.a(list.o)
                0x000000000000faf1                list_add
 .text.list_push
                0x000000000000fb3a       0x2c obj_cooja/mtype892.a(list.o)
                0x000000000000fb3a                list_push
 .text.list_chop
                0x000000000000fb66       0x6a obj_cooja/mtype892.a(list.o)
                0x000000000000fb66                list_chop
 .text.list_pop
                0x000000000000fbd0       0x28 obj_cooja/mtype892.a(list.o)
                0x000000000000fbd0                list_pop
 .text.list_remove
                0x000000000000fbf8       0x68 obj_cooja/mtype892.a(list.o)
                0x000000000000fbf8                list_remove
 .text.list_length
                0x000000000000fc60       0x2e obj_cooja/mtype892.a(list.o)
                0x000000000000fc60                list_length
 .text.list_insert
                0x000000000000fc8e       0x34 obj_cooja/mtype892.a(list.o)
                0x000000000000fc8e                list_insert
 .text.list_item_next
                0x000000000000fcc2       0x17 obj_cooja/mtype892.a(list.o)
                0x000000000000fcc2                list_item_next
 *fill*         0x000000000000fcd9        0x3 90909090
 .text          0x000000000000fcdc        0x0 obj_cooja/mtype892.a(etimer.o)
 .text.update_time
                0x000000000000fcdc       0x8f obj_cooja/mtype892.a(etimer.o)
 .text.process_thread_etimer_process
                0x000000000000fd6b      0x190 obj_cooja/mtype892.a(etimer.o)
 .text.etimer_request_poll
                0x000000000000fefb       0x14 obj_cooja/mtype892.a(etimer.o)
                0x000000000000fefb                etimer_request_poll
 .text.add_timer
                0x000000000000ff0f       0x70 obj_cooja/mtype892.a(etimer.o)
 .text.etimer_set
                0x000000000000ff7f       0x25 obj_cooja/mtype892.a(etimer.o)
                0x000000000000ff7f                etimer_set
 .text.etimer_reset
                0x000000000000ffa4       0x1e obj_cooja/mtype892.a(etimer.o)
                0x000000000000ffa4                etimer_reset
 .text.etimer_restart
                0x000000000000ffc2       0x1e obj_cooja/mtype892.a(etimer.o)
                0x000000000000ffc2                etimer_restart
 .text.etimer_adjust
                0x000000000000ffe0       0x1c obj_cooja/mtype892.a(etimer.o)
                0x000000000000ffe0                etimer_adjust
 .text.etimer_expired
                0x000000000000fffc       0x13 obj_cooja/mtype892.a(etimer.o)
                0x000000000000fffc                etimer_expired
 .text.etimer_expiration_time
                0x000000000001000f       0x12 obj_cooja/mtype892.a(etimer.o)
                0x000000000001000f                etimer_expiration_time
 .text.etimer_start_time
                0x0000000000010021        0xa obj_cooja/mtype892.a(etimer.o)
                0x0000000000010021                etimer_start_time
 .text.etimer_pending
                0x000000000001002b       0x12 obj_cooja/mtype892.a(etimer.o)
                0x000000000001002b                etimer_pending
 .text.etimer_next_expiration_time
                0x000000000001003d       0x1a obj_cooja/mtype892.a(etimer.o)
                0x000000000001003d                etimer_next_expiration_time
 .text.etimer_stop
                0x0000000000010057       0x75 obj_cooja/mtype892.a(etimer.o)
                0x0000000000010057                etimer_stop
 .text          0x00000000000100cc        0x0 obj_cooja/mtype892.a(ctimer.o)
 .text.process_thread_ctimer_process
                0x00000000000100cc      0x11b obj_cooja/mtype892.a(ctimer.o)
 .text.ctimer_init
                0x00000000000101e7       0x30 obj_cooja/mtype892.a(ctimer.o)
                0x00000000000101e7                ctimer_init
 .text.ctimer_set
                0x0000000000010217       0x93 obj_cooja/mtype892.a(ctimer.o)
                0x0000000000010217                ctimer_set
 .text.ctimer_reset
                0x00000000000102aa       0x63 obj_cooja/mtype892.a(ctimer.o)
                0x00000000000102aa                ctimer_reset
 .text.ctimer_restart
                0x000000000001030d       0x63 obj_cooja/mtype892.a(ctimer.o)
                0x000000000001030d                ctimer_restart
 .text.ctimer_stop
                0x0000000000010370       0x4b obj_cooja/mtype892.a(ctimer.o)
                0x0000000000010370                ctimer_stop
 .text.ctimer_expired
                0x00000000000103bb       0x57 obj_cooja/mtype892.a(ctimer.o)
                0x00000000000103bb                ctimer_expired
 *fill*         0x0000000000010412        0x2 90909090
 .text          0x0000000000010414        0x0 obj_cooja/mtype892.a(energest.o)
 .text.energest_type_set
                0x0000000000010414        0x5 obj_cooja/mtype892.a(energest.o)
                0x0000000000010414                energest_type_set
 .text.energest_init
                0x0000000000010419        0x5 obj_cooja/mtype892.a(energest.o)
                0x0000000000010419                energest_init
 .text.energest_type_time
                0x000000000001041e        0xa obj_cooja/mtype892.a(energest.o)
                0x000000000001041e                energest_type_time
 .text.energest_flush
                0x0000000000010428        0x5 obj_cooja/mtype892.a(energest.o)
                0x0000000000010428                energest_flush
 *fill*         0x000000000001042d        0x3 90909090
 .text          0x0000000000010430        0x0 obj_cooja/mtype892.a(random.o)
 .text.random_init
                0x0000000000010430       0x1b obj_cooja/mtype892.a(random.o)
                0x0000000000010430                random_init
 .text.random_rand
                0x000000000001044b        0xd obj_cooja/mtype892.a(random.o)
                0x000000000001044b                random_rand
 .text          0x0000000000010458        0x0 obj_cooja/mtype892.a(ringbuf.o)
 .text.ringbuf_init
                0x0000000000010458       0x31 obj_cooja/mtype892.a(ringbuf.o)
                0x0000000000010458                ringbuf_init
 .text.ringbuf_put
                0x0000000000010489       0x7e obj_cooja/mtype892.a(ringbuf.o)
                0x0000000000010489                ringbuf_put
 .text.ringbuf_get
                0x0000000000010507       0x6d obj_cooja/mtype892.a(ringbuf.o)
                0x0000000000010507                ringbuf_get
 .text.ringbuf_size
                0x0000000000010574       0x12 obj_cooja/mtype892.a(ringbuf.o)
                0x0000000000010574                ringbuf_size
 .text.ringbuf_elements
                0x0000000000010586       0x27 obj_cooja/mtype892.a(ringbuf.o)
                0x0000000000010586                ringbuf_elements
 *fill*         0x00000000000105ad        0x3 90909090
 .text          0x00000000000105b0        0x0 obj_cooja/mtype892.a(netstack.o)
 .text.netstack_init
                0x00000000000105b0       0x24 obj_cooja/mtype892.a(netstack.o)
                0x00000000000105b0                netstack_init
 .text          0x00000000000105d4        0x0 obj_cooja/mtype892.a(packetbuf.o)
 .text.packetbuf_clear
                0x00000000000105d4       0x37 obj_cooja/mtype892.a(packetbuf.o)
                0x00000000000105d4                packetbuf_clear
 .text.packetbuf_clear_hdr
                0x000000000001060b        0xc obj_cooja/mtype892.a(packetbuf.o)
                0x000000000001060b                packetbuf_clear_hdr
 .text.packetbuf_copyfrom
                0x0000000000010617       0x52 obj_cooja/mtype892.a(packetbuf.o)
                0x0000000000010617                packetbuf_copyfrom
 .text.packetbuf_compact
                0x0000000000010669       0x9e obj_cooja/mtype892.a(packetbuf.o)
                0x0000000000010669                packetbuf_compact
 .text.packetbuf_copyto_hdr
                0x0000000000010707       0x5a obj_cooja/mtype892.a(packetbuf.o)
                0x0000000000010707                packetbuf_copyto_hdr
 .text.packetbuf_copyto
                0x0000000000010761       0xe3 obj_cooja/mtype892.a(packetbuf.o)
                0x0000000000010761                packetbuf_copyto
 .text.packetbuf_hdralloc
                0x0000000000010844       0x4a obj_cooja/mtype892.a(packetbuf.o)
                0x0000000000010844                packetbuf_hdralloc
 .text.packetbuf_hdr_remove
                0x000000000001088e       0x18 obj_cooja/mtype892.a(packetbuf.o)
                0x000000000001088e                packetbuf_hdr_remove
 .text.packetbuf_hdrreduce
                0x00000000000108a6       0x4b obj_cooja/mtype892.a(packetbuf.o)
                0x00000000000108a6                packetbuf_hdrreduce
 .text.packetbuf_set_datalen
                0x00000000000108f1       0x19 obj_cooja/mtype892.a(packetbuf.o)
                0x00000000000108f1                packetbuf_set_datalen
 .text.packetbuf_dataptr
                0x000000000001090a       0x19 obj_cooja/mtype892.a(packetbuf.o)
                0x000000000001090a                packetbuf_dataptr
 .text.packetbuf_hdrptr
                0x0000000000010923       0x17 obj_cooja/mtype892.a(packetbuf.o)
                0x0000000000010923                packetbuf_hdrptr
 .text.packetbuf_reference
                0x000000000001093a       0x26 obj_cooja/mtype892.a(packetbuf.o)
                0x000000000001093a                packetbuf_reference
 .text.packetbuf_is_reference
                0x0000000000010960       0x1a obj_cooja/mtype892.a(packetbuf.o)
                0x0000000000010960                packetbuf_is_reference
 .text.packetbuf_reference_ptr
                0x000000000001097a        0xa obj_cooja/mtype892.a(packetbuf.o)
                0x000000000001097a                packetbuf_reference_ptr
 .text.packetbuf_datalen
                0x0000000000010984        0xc obj_cooja/mtype892.a(packetbuf.o)
                0x0000000000010984                packetbuf_datalen
 .text.packetbuf_hdrlen
                0x0000000000010990       0x17 obj_cooja/mtype892.a(packetbuf.o)
                0x0000000000010990                packetbuf_hdrlen
 .text.packetbuf_totlen
                0x00000000000109a7       0x16 obj_cooja/mtype892.a(packetbuf.o)
                0x00000000000109a7                packetbuf_totlen
 .text.packetbuf_attr_clear
                0x00000000000109bd       0x56 obj_cooja/mtype892.a(packetbuf.o)
                0x00000000000109bd                packetbuf_attr_clear
 .text.packetbuf_attr_copyto
                0x0000000000010a13       0x9d obj_cooja/mtype892.a(packetbuf.o)
                0x0000000000010a13                packetbuf_attr_copyto
 .text.packetbuf_attr_copyfrom
                0x0000000000010ab0       0x9c obj_cooja/mtype892.a(packetbuf.o)
                0x0000000000010ab0                packetbuf_attr_copyfrom
 .text          0x0000000000010b4c        0x0 obj_cooja/mtype892.a(queuebuf.o)
 .text.queuebuf_load_to_ram
                0x0000000000010b4c        0xa obj_cooja/mtype892.a(queuebuf.o)
 .text.queuebuf_init
                0x0000000000010b56       0x2c obj_cooja/mtype892.a(queuebuf.o)
                0x0000000000010b56                queuebuf_init
 .text.queuebuf_new_from_packetbuf
                0x0000000000010b82       0xcb obj_cooja/mtype892.a(queuebuf.o)
                0x0000000000010b82                queuebuf_new_from_packetbuf
 .text.queuebuf_update_attr_from_packetbuf
                0x0000000000010c4d       0x33 obj_cooja/mtype892.a(queuebuf.o)
                0x0000000000010c4d                queuebuf_update_attr_from_packetbuf
 .text.queuebuf_free
                0x0000000000010c80       0x73 obj_cooja/mtype892.a(queuebuf.o)
                0x0000000000010c80                queuebuf_free
 .text.queuebuf_to_packetbuf
                0x0000000000010cf3       0xe8 obj_cooja/mtype892.a(queuebuf.o)
                0x0000000000010cf3                queuebuf_to_packetbuf
 .text.queuebuf_dataptr
                0x0000000000010ddb       0x5f obj_cooja/mtype892.a(queuebuf.o)
                0x0000000000010ddb                queuebuf_dataptr
 .text.queuebuf_datalen
                0x0000000000010e3a       0x1f obj_cooja/mtype892.a(queuebuf.o)
                0x0000000000010e3a                queuebuf_datalen
 .text.queuebuf_addr
                0x0000000000010e59       0x2f obj_cooja/mtype892.a(queuebuf.o)
                0x0000000000010e59                queuebuf_addr
 .text.queuebuf_attr
                0x0000000000010e88       0x2b obj_cooja/mtype892.a(queuebuf.o)
                0x0000000000010e88                queuebuf_attr
 .text.queuebuf_debug_print
                0x0000000000010eb3        0x5 obj_cooja/mtype892.a(queuebuf.o)
                0x0000000000010eb3                queuebuf_debug_print
 .text          0x0000000000010eb8        0x0 obj_cooja/mtype892.a(sicslowpan.o)
 .text.packetbuf_set_attr
                0x0000000000010eb8       0x2a obj_cooja/mtype892.a(sicslowpan.o)
 .text.packetbuf_set_addr
                0x0000000000010ee2       0x32 obj_cooja/mtype892.a(sicslowpan.o)
 .text.packetbuf_addr
                0x0000000000010f14       0x1d obj_cooja/mtype892.a(sicslowpan.o)
 .text.rime_sniffer_add
                0x0000000000010f31        0xd obj_cooja/mtype892.a(sicslowpan.o)
                0x0000000000010f31                rime_sniffer_add
 .text.rime_sniffer_remove
                0x0000000000010f3e        0xf obj_cooja/mtype892.a(sicslowpan.o)
                0x0000000000010f3e                rime_sniffer_remove
 .text.set_packet_attrs
                0x0000000000010f4d       0xe9 obj_cooja/mtype892.a(sicslowpan.o)
 .text.addr_context_lookup_by_prefix
                0x0000000000011036       0x7a obj_cooja/mtype892.a(sicslowpan.o)
 .text.addr_context_lookup_by_number
                0x00000000000110b0       0x6a obj_cooja/mtype892.a(sicslowpan.o)
 .text.compress_addr_64
                0x000000000001111a      0x163 obj_cooja/mtype892.a(sicslowpan.o)
 .text.uncompress_addr
                0x000000000001127d      0x12e obj_cooja/mtype892.a(sicslowpan.o)
 .text.compress_hdr_hc06
                0x00000000000113ab      0x942 obj_cooja/mtype892.a(sicslowpan.o)
 .text.uncompress_hdr_hc06
                0x0000000000011ced      0x77d obj_cooja/mtype892.a(sicslowpan.o)
 .text.compress_hdr_ipv6
                0x000000000001246a       0x8d obj_cooja/mtype892.a(sicslowpan.o)
 .text.packet_sent
                0x00000000000124f7       0x3b obj_cooja/mtype892.a(sicslowpan.o)
 .text.send_packet
                0x0000000000012532       0x36 obj_cooja/mtype892.a(sicslowpan.o)
 .text.output   0x0000000000012568      0x54f obj_cooja/mtype892.a(sicslowpan.o)
 .text.input    0x0000000000012ab7      0x54f obj_cooja/mtype892.a(sicslowpan.o)
 .text.sicslowpan_init
                0x0000000000013006       0x57 obj_cooja/mtype892.a(sicslowpan.o)
                0x0000000000013006                sicslowpan_init
 *fill*         0x000000000001305d        0x3 90909090
 .text          0x0000000000013060        0x0 obj_cooja/mtype892.a(simple-udp.o)
 .text.init_simple_udp
                0x0000000000013060       0x2e obj_cooja/mtype892.a(simple-udp.o)
 .text.simple_udp_send
                0x000000000001308e       0x6d obj_cooja/mtype892.a(simple-udp.o)
                0x000000000001308e                simple_udp_send
 .text.simple_udp_sendto
                0x00000000000130fb       0x65 obj_cooja/mtype892.a(simple-udp.o)
                0x00000000000130fb                simple_udp_sendto
 .text.simple_udp_sendto_port
                0x0000000000013160       0x63 obj_cooja/mtype892.a(simple-udp.o)
                0x0000000000013160                simple_udp_sendto_port
 .text.simple_udp_register
                0x00000000000131c3       0xe6 obj_cooja/mtype892.a(simple-udp.o)
                0x00000000000131c3                simple_udp_register
 .text.process_thread_simple_udp_process
                0x00000000000132a9      0x15b obj_cooja/mtype892.a(simple-udp.o)
 .text          0x0000000000013404        0x0 obj_cooja/mtype892.a(tcpip.o)
 .text.tcpip_output
                0x0000000000013404       0x2f obj_cooja/mtype892.a(tcpip.o)
                0x0000000000013404                tcpip_output
 .text.tcpip_set_outputfunc
                0x0000000000013433        0xd obj_cooja/mtype892.a(tcpip.o)
                0x0000000000013433                tcpip_set_outputfunc
 .text.start_periodic_tcp_timer
                0x0000000000013440       0x24 obj_cooja/mtype892.a(tcpip.o)
 .text.check_for_tcp_syn
                0x0000000000013464       0x2d obj_cooja/mtype892.a(tcpip.o)
 .text.packet_input
                0x0000000000013491       0x36 obj_cooja/mtype892.a(tcpip.o)
 .text.tcp_connect
                0x00000000000134c7       0x55 obj_cooja/mtype892.a(tcpip.o)
                0x00000000000134c7                tcp_connect
 .text.tcp_unlisten
                0x000000000001351c       0x6e obj_cooja/mtype892.a(tcpip.o)
                0x000000000001351c                tcp_unlisten
 .text.tcp_listen
                0x000000000001358a       0x6c obj_cooja/mtype892.a(tcpip.o)
                0x000000000001358a                tcp_listen
 .text.tcp_attach
                0x00000000000135f6       0x25 obj_cooja/mtype892.a(tcpip.o)
                0x00000000000135f6                tcp_attach
 .text.udp_attach
                0x000000000001361b       0x25 obj_cooja/mtype892.a(tcpip.o)
                0x000000000001361b                udp_attach
 .text.udp_new  0x0000000000013640       0x52 obj_cooja/mtype892.a(tcpip.o)
                0x0000000000013640                udp_new
 .text.udp_broadcast_new
                0x0000000000013692       0x92 obj_cooja/mtype892.a(tcpip.o)
                0x0000000000013692                udp_broadcast_new
 .text.eventhandler
                0x0000000000013724      0x21b obj_cooja/mtype892.a(tcpip.o)
 .text.tcpip_input
                0x000000000001393f       0x34 obj_cooja/mtype892.a(tcpip.o)
                0x000000000001393f                tcpip_input
 .text.tcpip_ipv6_output
                0x0000000000013973      0x483 obj_cooja/mtype892.a(tcpip.o)
                0x0000000000013973                tcpip_ipv6_output
 .text.tcpip_poll_udp
                0x0000000000013df6       0x23 obj_cooja/mtype892.a(tcpip.o)
                0x0000000000013df6                tcpip_poll_udp
 .text.tcpip_poll_tcp
                0x0000000000013e19       0x23 obj_cooja/mtype892.a(tcpip.o)
                0x0000000000013e19                tcpip_poll_tcp
 .text.tcpip_uipcall
                0x0000000000013e3c       0xd0 obj_cooja/mtype892.a(tcpip.o)
                0x0000000000013e3c                tcpip_uipcall
 .text.process_thread_tcpip_process
                0x0000000000013f0c       0xd3 obj_cooja/mtype892.a(tcpip.o)
 *fill*         0x0000000000013fdf        0x1 90909090
 .text          0x0000000000013fe0        0x0 obj_cooja/mtype892.a(uip-debug.o)
 .text.uip_debug_ipaddr_print
                0x0000000000013fe0       0xd3 obj_cooja/mtype892.a(uip-debug.o)
                0x0000000000013fe0                uip_debug_ipaddr_print
 .text.uip_debug_lladdr_print
                0x00000000000140b3       0x4d obj_cooja/mtype892.a(uip-debug.o)
                0x00000000000140b3                uip_debug_lladdr_print
 .text          0x0000000000014100        0x0 obj_cooja/mtype892.a(uip-ds6-route.o)
 .text.call_route_callback
                0x0000000000014100       0x77 obj_cooja/mtype892.a(uip-ds6-route.o)
 .text.uip_ds6_notification_add
                0x0000000000014177       0x31 obj_cooja/mtype892.a(uip-ds6-route.o)
                0x0000000000014177                uip_ds6_notification_add
 .text.uip_ds6_notification_rm
                0x00000000000141a8       0x1c obj_cooja/mtype892.a(uip-ds6-route.o)
                0x00000000000141a8                uip_ds6_notification_rm
 .text.uip_ds6_route_init
                0x00000000000141c4       0x4f obj_cooja/mtype892.a(uip-ds6-route.o)
                0x00000000000141c4                uip_ds6_route_init
 .text.uip_ds6_route_nexthop_lladdr
                0x0000000000014213       0x2c obj_cooja/mtype892.a(uip-ds6-route.o)
 .text.uip_ds6_route_nexthop
                0x000000000001423f       0x28 obj_cooja/mtype892.a(uip-ds6-route.o)
                0x000000000001423f                uip_ds6_route_nexthop
 .text.uip_ds6_route_head
                0x0000000000014267       0x41 obj_cooja/mtype892.a(uip-ds6-route.o)
                0x0000000000014267                uip_ds6_route_head
 .text.uip_ds6_route_next
                0x00000000000142a8       0x5c obj_cooja/mtype892.a(uip-ds6-route.o)
                0x00000000000142a8                uip_ds6_route_next
 .text.uip_ds6_route_num_routes
                0x0000000000014304        0xa obj_cooja/mtype892.a(uip-ds6-route.o)
                0x0000000000014304                uip_ds6_route_num_routes
 .text.uip_ds6_route_lookup
                0x000000000001430e       0x7a obj_cooja/mtype892.a(uip-ds6-route.o)
                0x000000000001430e                uip_ds6_route_lookup
 .text.uip_ds6_route_add
                0x0000000000014388      0x150 obj_cooja/mtype892.a(uip-ds6-route.o)
                0x0000000000014388                uip_ds6_route_add
 .text.uip_ds6_route_rm
                0x00000000000144d8       0xac obj_cooja/mtype892.a(uip-ds6-route.o)
                0x00000000000144d8                uip_ds6_route_rm
 .text.rm_routelist
                0x0000000000014584       0x61 obj_cooja/mtype892.a(uip-ds6-route.o)
 .text.rm_routelist_callback
                0x00000000000145e5       0x13 obj_cooja/mtype892.a(uip-ds6-route.o)
 .text.uip_ds6_route_rm_by_nexthop
                0x00000000000145f8       0x38 obj_cooja/mtype892.a(uip-ds6-route.o)
                0x00000000000145f8                uip_ds6_route_rm_by_nexthop
 .text.uip_ds6_defrt_add
                0x0000000000014630       0xb1 obj_cooja/mtype892.a(uip-ds6-route.o)
                0x0000000000014630                uip_ds6_defrt_add
 .text.uip_ds6_defrt_rm
                0x00000000000146e1       0x7f obj_cooja/mtype892.a(uip-ds6-route.o)
                0x00000000000146e1                uip_ds6_defrt_rm
 .text.uip_ds6_defrt_lookup
                0x0000000000014760       0x59 obj_cooja/mtype892.a(uip-ds6-route.o)
                0x0000000000014760                uip_ds6_defrt_lookup
 .text.uip_ds6_defrt_choose
                0x00000000000147b9       0x6b obj_cooja/mtype892.a(uip-ds6-route.o)
                0x00000000000147b9                uip_ds6_defrt_choose
 .text.uip_ds6_defrt_periodic
                0x0000000000014824       0x68 obj_cooja/mtype892.a(uip-ds6-route.o)
                0x0000000000014824                uip_ds6_defrt_periodic
 .text          0x000000000001488c        0x0 obj_cooja/mtype892.a(uip-ds6-nbr.o)
 .text.packetbuf_addr
                0x000000000001488c       0x1d obj_cooja/mtype892.a(uip-ds6-nbr.o)
 .text.uip_ds6_neighbors_init
                0x00000000000148a9       0x1d obj_cooja/mtype892.a(uip-ds6-nbr.o)
                0x00000000000148a9                uip_ds6_neighbors_init
 .text.uip_ds6_nbr_add
                0x00000000000148c6       0xbb obj_cooja/mtype892.a(uip-ds6-nbr.o)
                0x00000000000148c6                uip_ds6_nbr_add
 .text.uip_ds6_nbr_rm
                0x0000000000014981       0x3b obj_cooja/mtype892.a(uip-ds6-nbr.o)
                0x0000000000014981                uip_ds6_nbr_rm
 .text.uip_ds6_nbr_get_ipaddr
                0x00000000000149bc       0x15 obj_cooja/mtype892.a(uip-ds6-nbr.o)
                0x00000000000149bc                uip_ds6_nbr_get_ipaddr
 .text.uip_ds6_nbr_get_ll
                0x00000000000149d1       0x1c obj_cooja/mtype892.a(uip-ds6-nbr.o)
                0x00000000000149d1                uip_ds6_nbr_get_ll
 .text.uip_ds6_nbr_num
                0x00000000000149ed       0x45 obj_cooja/mtype892.a(uip-ds6-nbr.o)
                0x00000000000149ed                uip_ds6_nbr_num
 .text.uip_ds6_nbr_lookup
                0x0000000000014a32       0x65 obj_cooja/mtype892.a(uip-ds6-nbr.o)
                0x0000000000014a32                uip_ds6_nbr_lookup
 .text.uip_ds6_nbr_ll_lookup
                0x0000000000014a97       0x1c obj_cooja/mtype892.a(uip-ds6-nbr.o)
                0x0000000000014a97                uip_ds6_nbr_ll_lookup
 .text.uip_ds6_nbr_ipaddr_from_lladdr
                0x0000000000014ab3       0x26 obj_cooja/mtype892.a(uip-ds6-nbr.o)
                0x0000000000014ab3                uip_ds6_nbr_ipaddr_from_lladdr
 .text.uip_ds6_nbr_lladdr_from_ipaddr
                0x0000000000014ad9       0x2e obj_cooja/mtype892.a(uip-ds6-nbr.o)
                0x0000000000014ad9                uip_ds6_nbr_lladdr_from_ipaddr
 .text.uip_ds6_link_neighbor_callback
                0x0000000000014b07       0x4a obj_cooja/mtype892.a(uip-ds6-nbr.o)
                0x0000000000014b07                uip_ds6_link_neighbor_callback
 .text.uip_ds6_neighbor_periodic
                0x0000000000014b51      0x22a obj_cooja/mtype892.a(uip-ds6-nbr.o)
                0x0000000000014b51                uip_ds6_neighbor_periodic
 .text.uip_ds6_get_least_lifetime_neighbor
                0x0000000000014d7b       0x79 obj_cooja/mtype892.a(uip-ds6-nbr.o)
                0x0000000000014d7b                uip_ds6_get_least_lifetime_neighbor
 .text          0x0000000000014df4        0x0 obj_cooja/mtype892.a(uip-ds6.o)
 .text.uip_ds6_init
                0x0000000000014df4      0x1cb obj_cooja/mtype892.a(uip-ds6.o)
                0x0000000000014df4                uip_ds6_init
 .text.uip_ds6_periodic
                0x0000000000014fbf       0x7d obj_cooja/mtype892.a(uip-ds6.o)
                0x0000000000014fbf                uip_ds6_periodic
 .text.uip_ds6_list_loop
                0x000000000001503c       0xa3 obj_cooja/mtype892.a(uip-ds6.o)
                0x000000000001503c                uip_ds6_list_loop
 .text.uip_ds6_prefix_add
                0x00000000000150df       0xbe obj_cooja/mtype892.a(uip-ds6.o)
                0x00000000000150df                uip_ds6_prefix_add
 .text.uip_ds6_prefix_rm
                0x000000000001519d       0x11 obj_cooja/mtype892.a(uip-ds6.o)
                0x000000000001519d                uip_ds6_prefix_rm
 .text.uip_ds6_prefix_lookup
                0x00000000000151ae       0x51 obj_cooja/mtype892.a(uip-ds6.o)
                0x00000000000151ae                uip_ds6_prefix_lookup
 .text.uip_ds6_is_addr_onlink
                0x00000000000151ff       0x74 obj_cooja/mtype892.a(uip-ds6.o)
                0x00000000000151ff                uip_ds6_is_addr_onlink
 .text.uip_ds6_addr_add
                0x0000000000015273      0x12e obj_cooja/mtype892.a(uip-ds6.o)
                0x0000000000015273                uip_ds6_addr_add
 .text.uip_ds6_addr_rm
                0x00000000000153a1       0x9f obj_cooja/mtype892.a(uip-ds6.o)
                0x00000000000153a1                uip_ds6_addr_rm
 .text.uip_ds6_addr_lookup
                0x0000000000015440       0x4b obj_cooja/mtype892.a(uip-ds6.o)
                0x0000000000015440                uip_ds6_addr_lookup
 .text.uip_ds6_get_link_local
                0x000000000001548b       0x7f obj_cooja/mtype892.a(uip-ds6.o)
                0x000000000001548b                uip_ds6_get_link_local
 .text.uip_ds6_get_global
                0x000000000001550a       0x7f obj_cooja/mtype892.a(uip-ds6.o)
                0x000000000001550a                uip_ds6_get_global
 .text.uip_ds6_maddr_add
                0x0000000000015589       0x72 obj_cooja/mtype892.a(uip-ds6.o)
                0x0000000000015589                uip_ds6_maddr_add
 .text.uip_ds6_maddr_rm
                0x00000000000155fb       0x11 obj_cooja/mtype892.a(uip-ds6.o)
                0x00000000000155fb                uip_ds6_maddr_rm
 .text.uip_ds6_maddr_lookup
                0x000000000001560c       0x4b obj_cooja/mtype892.a(uip-ds6.o)
                0x000000000001560c                uip_ds6_maddr_lookup
 .text.uip_ds6_aaddr_add
                0x0000000000015657       0x72 obj_cooja/mtype892.a(uip-ds6.o)
                0x0000000000015657                uip_ds6_aaddr_add
 .text.uip_ds6_aaddr_rm
                0x00000000000156c9       0x11 obj_cooja/mtype892.a(uip-ds6.o)
                0x00000000000156c9                uip_ds6_aaddr_rm
 .text.uip_ds6_aaddr_lookup
                0x00000000000156da       0x4b obj_cooja/mtype892.a(uip-ds6.o)
                0x00000000000156da                uip_ds6_aaddr_lookup
 .text.uip_ds6_select_src
                0x0000000000015725      0x145 obj_cooja/mtype892.a(uip-ds6.o)
                0x0000000000015725                uip_ds6_select_src
 .text.uip_ds6_set_addr_iid
                0x000000000001586a       0x2a obj_cooja/mtype892.a(uip-ds6.o)
                0x000000000001586a                uip_ds6_set_addr_iid
 .text.get_match_length
                0x0000000000015894       0x7f obj_cooja/mtype892.a(uip-ds6.o)
                0x0000000000015894                get_match_length
 .text.uip_ds6_compute_reachable_time
                0x0000000000015913       0x4c obj_cooja/mtype892.a(uip-ds6.o)
                0x0000000000015913                uip_ds6_compute_reachable_time
 *fill*         0x000000000001595f        0x1 90909090
 .text          0x0000000000015960        0x0 obj_cooja/mtype892.a(uip-nd6.o)
 .text.create_llao
                0x0000000000015960       0x48 obj_cooja/mtype892.a(uip-nd6.o)
 .text.uip_nd6_ns_input
                0x00000000000159a8      0x5b4 obj_cooja/mtype892.a(uip-nd6.o)
                0x00000000000159a8                uip_nd6_ns_input
 .text.uip_nd6_ns_output
                0x0000000000015f5c      0x2f8 obj_cooja/mtype892.a(uip-nd6.o)
                0x0000000000015f5c                uip_nd6_ns_output
 .text.uip_nd6_na_input
                0x0000000000016254      0x467 obj_cooja/mtype892.a(uip-nd6.o)
                0x0000000000016254                uip_nd6_na_input
 *fill*         0x00000000000166bb        0x1 90909090
 .text          0x00000000000166bc        0x0 obj_cooja/mtype892.a(uip-packetqueue)
 .text.packet_timedout
                0x00000000000166bc       0x2c obj_cooja/mtype892.a(uip-packetqueue)
 .text.uip_packetqueue_new
                0x00000000000166e8        0xe obj_cooja/mtype892.a(uip-packetqueue)
                0x00000000000166e8                uip_packetqueue_new
 .text.uip_packetqueue_alloc
                0x00000000000166f6       0x60 obj_cooja/mtype892.a(uip-packetqueue)
                0x00000000000166f6                uip_packetqueue_alloc
 .text.uip_packetqueue_free
                0x0000000000016756       0x41 obj_cooja/mtype892.a(uip-packetqueue)
                0x0000000000016756                uip_packetqueue_free
 .text.uip_packetqueue_buf
                0x0000000000016797       0x1d obj_cooja/mtype892.a(uip-packetqueue)
                0x0000000000016797                uip_packetqueue_buf
 .text.uip_packetqueue_buflen
                0x00000000000167b4       0x21 obj_cooja/mtype892.a(uip-packetqueue)
                0x00000000000167b4                uip_packetqueue_buflen
 .text.uip_packetqueue_set_buflen
                0x00000000000167d5       0x28 obj_cooja/mtype892.a(uip-packetqueue)
                0x00000000000167d5                uip_packetqueue_set_buflen
 *fill*         0x00000000000167fd        0x3 90909090
 .text          0x0000000000016800        0x0 obj_cooja/mtype892.a(uip-udp-packet.)
 .text.uip_udp_packet_send
                0x0000000000016800       0x63 obj_cooja/mtype892.a(uip-udp-packet.)
                0x0000000000016800                uip_udp_packet_send
 .text.uip_udp_packet_sendto
                0x0000000000016863       0xd1 obj_cooja/mtype892.a(uip-udp-packet.)
                0x0000000000016863                uip_udp_packet_sendto
 .text          0x0000000000016934        0x0 obj_cooja/mtype892.a(uip6.o)
 .text.uip_add32
                0x0000000000016934       0xed obj_cooja/mtype892.a(uip6.o)
                0x0000000000016934                uip_add32
 .text.chksum   0x0000000000016a21       0xa1 obj_cooja/mtype892.a(uip6.o)
 .text.uip_chksum
                0x0000000000016ac2       0x35 obj_cooja/mtype892.a(uip6.o)
                0x0000000000016ac2                uip_chksum
 .text.upper_layer_chksum
                0x0000000000016af7       0xbc obj_cooja/mtype892.a(uip6.o)
 .text.uip_icmp6chksum
                0x0000000000016bb3       0x14 obj_cooja/mtype892.a(uip6.o)
                0x0000000000016bb3                uip_icmp6chksum
 .text.uip_tcpchksum
                0x0000000000016bc7       0x14 obj_cooja/mtype892.a(uip6.o)
                0x0000000000016bc7                uip_tcpchksum
 .text.uip_udpchksum
                0x0000000000016bdb       0x14 obj_cooja/mtype892.a(uip6.o)
                0x0000000000016bdb                uip_udpchksum
 .text.uip_init
                0x0000000000016bef       0xc6 obj_cooja/mtype892.a(uip6.o)
                0x0000000000016bef                uip_init
 .text.uip_connect
                0x0000000000016cb5      0x1b0 obj_cooja/mtype892.a(uip6.o)
                0x0000000000016cb5                uip_connect
 .text.remove_ext_hdr
                0x0000000000016e65       0xda obj_cooja/mtype892.a(uip6.o)
                0x0000000000016e65                remove_ext_hdr
 .text.uip_udp_new
                0x0000000000016f3f      0x160 obj_cooja/mtype892.a(uip6.o)
                0x0000000000016f3f                uip_udp_new
 .text.uip_unlisten
                0x000000000001709f       0x60 obj_cooja/mtype892.a(uip6.o)
                0x000000000001709f                uip_unlisten
 .text.uip_listen
                0x00000000000170ff       0x61 obj_cooja/mtype892.a(uip6.o)
                0x00000000000170ff                uip_listen
 .text.uip_add_rcv_nxt
                0x0000000000017160       0x64 obj_cooja/mtype892.a(uip6.o)
 .text.ext_hdr_options_process
                0x00000000000171c4      0x1fd obj_cooja/mtype892.a(uip6.o)
 .text.uip_process
                0x00000000000173c1     0x1dd3 obj_cooja/mtype892.a(uip6.o)
                0x00000000000173c1                uip_process
 .text.uip_htons
                0x0000000000019194       0x22 obj_cooja/mtype892.a(uip6.o)
                0x0000000000019194                uip_htons
 .text.uip_htonl
                0x00000000000191b6       0x40 obj_cooja/mtype892.a(uip6.o)
                0x00000000000191b6                uip_htonl
 .text.uip_send
                0x00000000000191f6       0x60 obj_cooja/mtype892.a(uip6.o)
                0x00000000000191f6                uip_send
 *fill*         0x0000000000019256        0x2 90909090
 .text          0x0000000000019258        0x0 obj_cooja/mtype892.a(servreg-hack.o)
 .text.purge_registrations
                0x0000000000019258       0xd5 obj_cooja/mtype892.a(servreg-hack.o)
 .text.servreg_hack_init
                0x000000000001932d       0x54 obj_cooja/mtype892.a(servreg-hack.o)
                0x000000000001932d                servreg_hack_init
 .text.servreg_hack_register
                0x0000000000019381      0x125 obj_cooja/mtype892.a(servreg-hack.o)
                0x0000000000019381                servreg_hack_register
 .text.servreg_hack_list_head
                0x00000000000194a6       0x1a obj_cooja/mtype892.a(servreg-hack.o)
                0x00000000000194a6                servreg_hack_list_head
 .text.servreg_hack_item_id
                0x00000000000194c0        0xc obj_cooja/mtype892.a(servreg-hack.o)
                0x00000000000194c0                servreg_hack_item_id
 .text.servreg_hack_item_address
                0x00000000000194cc        0xb obj_cooja/mtype892.a(servreg-hack.o)
                0x00000000000194cc                servreg_hack_item_address
 .text.servreg_hack_lookup
                0x00000000000194d7       0x58 obj_cooja/mtype892.a(servreg-hack.o)
                0x00000000000194d7                servreg_hack_lookup
 .text.handle_incoming_reg
                0x000000000001952f      0x12d obj_cooja/mtype892.a(servreg-hack.o)
 .text.send_udp_packet
                0x000000000001965c      0x1b8 obj_cooja/mtype892.a(servreg-hack.o)
 .text.parse_incoming_packet
                0x0000000000019814       0x73 obj_cooja/mtype892.a(servreg-hack.o)
 .text.process_thread_servreg_hack_process
                0x0000000000019887      0x1ae obj_cooja/mtype892.a(servreg-hack.o)
 *fill*         0x0000000000019a35        0x3 90909090
 .text          0x0000000000019a38        0x0 obj_cooja/mtype892.a(simEnvChange.o)
 .text.doActionsBeforeTick
                0x0000000000019a38       0x31 obj_cooja/mtype892.a(simEnvChange.o)
                0x0000000000019a38                doActionsBeforeTick
 .text.doActionsAfterTick
                0x0000000000019a69       0x32 obj_cooja/mtype892.a(simEnvChange.o)
                0x0000000000019a69                doActionsAfterTick
 *fill*         0x0000000000019a9b        0x1 90909090
 .text          0x0000000000019a9c        0x0 obj_cooja/mtype892.a(cooja_mt.o)
 .text.cooja_mt_init
                0x0000000000019a9c        0xd obj_cooja/mtype892.a(cooja_mt.o)
                0x0000000000019a9c                cooja_mt_init
 .text.cooja_mt_remove
                0x0000000000019aa9        0xd obj_cooja/mtype892.a(cooja_mt.o)
                0x0000000000019aa9                cooja_mt_remove
 .text.cooja_mt_start
                0x0000000000019ab6       0x2d obj_cooja/mtype892.a(cooja_mt.o)
                0x0000000000019ab6                cooja_mt_start
 .text.cooja_mt_exec
                0x0000000000019ae3       0x31 obj_cooja/mtype892.a(cooja_mt.o)
                0x0000000000019ae3                cooja_mt_exec
 .text.cooja_mt_exit
                0x0000000000019b14       0x22 obj_cooja/mtype892.a(cooja_mt.o)
                0x0000000000019b14                cooja_mt_exit
 .text.cooja_mt_yield
                0x0000000000019b36       0x22 obj_cooja/mtype892.a(cooja_mt.o)
                0x0000000000019b36                cooja_mt_yield
 .text          0x0000000000019b58        0x0 obj_cooja/mtype892.a(cooja_mtarch.o)
 .text.cooja_mtarch_init
                0x0000000000019b58        0x5 obj_cooja/mtype892.a(cooja_mtarch.o)
                0x0000000000019b58                cooja_mtarch_init
 .text.cooja_mtarch_start
                0x0000000000019b5d       0xc1 obj_cooja/mtype892.a(cooja_mtarch.o)
                0x0000000000019b5d                cooja_mtarch_start
 .text.cooja_sw
                0x0000000000019c1e       0x22 obj_cooja/mtype892.a(cooja_mtarch.o)
                0x0000000000019c1e                cooja_sw
 .text.cooja_mtarch_exec
                0x0000000000019c40       0x1c obj_cooja/mtype892.a(cooja_mtarch.o)
                0x0000000000019c40                cooja_mtarch_exec
 .text.cooja_mtarch_remove
                0x0000000000019c5c        0x5 obj_cooja/mtype892.a(cooja_mtarch.o)
                0x0000000000019c5c                cooja_mtarch_remove
 .text.cooja_mtarch_yield
                0x0000000000019c61        0xa obj_cooja/mtype892.a(cooja_mtarch.o)
                0x0000000000019c61                cooja_mtarch_yield
 .text.cooja_mtarch_pstop
                0x0000000000019c6b        0x5 obj_cooja/mtype892.a(cooja_mtarch.o)
                0x0000000000019c6b                cooja_mtarch_pstop
 .text.cooja_mtarch_pstart
                0x0000000000019c70        0x5 obj_cooja/mtype892.a(cooja_mtarch.o)
                0x0000000000019c70                cooja_mtarch_pstart
 .text.cooja_mtarch_stack_usage
                0x0000000000019c75       0x3e obj_cooja/mtype892.a(cooja_mtarch.o)
                0x0000000000019c75                cooja_mtarch_stack_usage
 *fill*         0x0000000000019cb3        0x1 90909090
 .text          0x0000000000019cb4        0x0 obj_cooja/mtype892.a(rtimer-arch.o)
 .text.rtimer_arch_init
                0x0000000000019cb4       0x23 obj_cooja/mtype892.a(rtimer-arch.o)
                0x0000000000019cb4                rtimer_arch_init
 .text.rtimer_arch_schedule
                0x0000000000019cd7       0x17 obj_cooja/mtype892.a(rtimer-arch.o)
                0x0000000000019cd7                rtimer_arch_schedule
 .text.rtimer_arch_next
                0x0000000000019cee        0xa obj_cooja/mtype892.a(rtimer-arch.o)
                0x0000000000019cee                rtimer_arch_next
 .text.rtimer_arch_pending
                0x0000000000019cf8        0xa obj_cooja/mtype892.a(rtimer-arch.o)
                0x0000000000019cf8                rtimer_arch_pending
 .text.rtimer_arch_check
                0x0000000000019d02       0x32 obj_cooja/mtype892.a(rtimer-arch.o)
                0x0000000000019d02                rtimer_arch_check
 .text.rtimer_arch_now
                0x0000000000019d34       0x42 obj_cooja/mtype892.a(rtimer-arch.o)
                0x0000000000019d34                rtimer_arch_now
 *fill*         0x0000000000019d76        0x2 90909090
 .text          0x0000000000019d78        0x0 obj_cooja/mtype892.a(watchdog.o)
 .text.watchdog_init
                0x0000000000019d78        0x5 obj_cooja/mtype892.a(watchdog.o)
                0x0000000000019d78                watchdog_init
 .text.watchdog_start
                0x0000000000019d7d        0x5 obj_cooja/mtype892.a(watchdog.o)
                0x0000000000019d7d                watchdog_start
 .text.watchdog_periodic
                0x0000000000019d82        0x5 obj_cooja/mtype892.a(watchdog.o)
                0x0000000000019d82                watchdog_periodic
 .text.watchdog_stop
                0x0000000000019d87        0x5 obj_cooja/mtype892.a(watchdog.o)
                0x0000000000019d87                watchdog_stop
 .text.watchdog_reboot
                0x0000000000019d8c        0x5 obj_cooja/mtype892.a(watchdog.o)
                0x0000000000019d8c                watchdog_reboot
 *fill*         0x0000000000019d91        0x3 90909090
 .text          0x0000000000019d94        0x0 obj_cooja/mtype892.a(beep.o)
 .text.beep_alarm
                0x0000000000019d94        0xc obj_cooja/mtype892.a(beep.o)
                0x0000000000019d94                beep_alarm
 .text.beep_beep
                0x0000000000019da0        0xc obj_cooja/mtype892.a(beep.o)
                0x0000000000019da0                beep_beep
 .text.beep     0x0000000000019dac        0xc obj_cooja/mtype892.a(beep.o)
                0x0000000000019dac                beep
 .text.beep_down
                0x0000000000019db8        0xc obj_cooja/mtype892.a(beep.o)
                0x0000000000019db8                beep_down
 .text.beep_on  0x0000000000019dc4        0xc obj_cooja/mtype892.a(beep.o)
                0x0000000000019dc4                beep_on
 .text.beep_off
                0x0000000000019dd0        0xc obj_cooja/mtype892.a(beep.o)
                0x0000000000019dd0                beep_off
 .text.beep_spinup
                0x0000000000019ddc        0xc obj_cooja/mtype892.a(beep.o)
                0x0000000000019ddc                beep_spinup
 .text.beep_quick
                0x0000000000019de8        0xc obj_cooja/mtype892.a(beep.o)
                0x0000000000019de8                beep_quick
 .text.beep_long
                0x0000000000019df4        0xc obj_cooja/mtype892.a(beep.o)
                0x0000000000019df4                beep_long
 .text.doInterfaceActionsBeforeTick
                0x0000000000019e00        0x5 obj_cooja/mtype892.a(beep.o)
 .text.doInterfaceActionsAfterTick
                0x0000000000019e05        0x5 obj_cooja/mtype892.a(beep.o)
 *fill*         0x0000000000019e0a        0x2 90909090
 .text          0x0000000000019e0c        0x0 obj_cooja/mtype892.a(button-sensor.o)
 .text.value    0x0000000000019e0c       0x2f obj_cooja/mtype892.a(button-sensor.o)
 .text.configure
                0x0000000000019e3b       0x50 obj_cooja/mtype892.a(button-sensor.o)
 .text.status   0x0000000000019e8b       0x1f obj_cooja/mtype892.a(button-sensor.o)
 .text.doInterfaceActionsBeforeTick
                0x0000000000019eaa       0x60 obj_cooja/mtype892.a(button-sensor.o)
 .text.doInterfaceActionsAfterTick
                0x0000000000019f0a        0x5 obj_cooja/mtype892.a(button-sensor.o)
 *fill*         0x0000000000019f0f        0x1 90909090
 .text          0x0000000000019f10        0x0 obj_cooja/mtype892.a(leds-arch.o)
 .text.leds_arch_init
                0x0000000000019f10        0xc obj_cooja/mtype892.a(leds-arch.o)
                0x0000000000019f10                leds_arch_init
 .text.leds_arch_get
                0x0000000000019f1c        0xc obj_cooja/mtype892.a(leds-arch.o)
                0x0000000000019f1c                leds_arch_get
 .text.leds_arch_set
                0x0000000000019f28       0x23 obj_cooja/mtype892.a(leds-arch.o)
                0x0000000000019f28                leds_arch_set
 .text.doInterfaceActionsBeforeTick
                0x0000000000019f4b        0x5 obj_cooja/mtype892.a(leds-arch.o)
 .text.doInterfaceActionsAfterTick
                0x0000000000019f50        0x5 obj_cooja/mtype892.a(leds-arch.o)
 *fill*         0x0000000000019f55        0x3 90909090
 .text          0x0000000000019f58        0x0 obj_cooja/mtype892.a(moteid.o)
 .text.doInterfaceActionsBeforeTick
                0x0000000000019f58       0x2a obj_cooja/mtype892.a(moteid.o)
 .text.doInterfaceActionsAfterTick
                0x0000000000019f82        0x5 obj_cooja/mtype892.a(moteid.o)
 *fill*         0x0000000000019f87        0x1 90909090
 .text          0x0000000000019f88        0x0 obj_cooja/mtype892.a(pir-sensor.o)
 .text.value    0x0000000000019f88        0xf obj_cooja/mtype892.a(pir-sensor.o)
 .text.configure
                0x0000000000019f97       0x3a obj_cooja/mtype892.a(pir-sensor.o)
 .text.status   0x0000000000019fd1       0x23 obj_cooja/mtype892.a(pir-sensor.o)
 .text.doInterfaceActionsBeforeTick
                0x0000000000019ff4       0x40 obj_cooja/mtype892.a(pir-sensor.o)
 .text.doInterfaceActionsAfterTick
                0x000000000001a034        0x5 obj_cooja/mtype892.a(pir-sensor.o)
 *fill*         0x000000000001a039        0x3 90909090
 .text          0x000000000001a03c        0x0 obj_cooja/mtype892.a(rs232.o)
 .text.rs232_init
                0x000000000001a03c        0x5 obj_cooja/mtype892.a(rs232.o)
                0x000000000001a03c                rs232_init
 .text.rs232_set_speed
                0x000000000001a041        0xe obj_cooja/mtype892.a(rs232.o)
                0x000000000001a041                rs232_set_speed
 .text.rs232_set_input
                0x000000000001a04f        0xd obj_cooja/mtype892.a(rs232.o)
                0x000000000001a04f                rs232_set_input
 .text.rs232_send
                0x000000000001a05c       0x23 obj_cooja/mtype892.a(rs232.o)
                0x000000000001a05c                rs232_send
 .text.rs232_print
                0x000000000001a07f       0x1c obj_cooja/mtype892.a(rs232.o)
                0x000000000001a07f                rs232_print
 .text.slip_arch_writeb
                0x000000000001a09b       0x1a obj_cooja/mtype892.a(rs232.o)
                0x000000000001a09b                slip_arch_writeb
 .text.doInterfaceActionsBeforeTick
                0x000000000001a0b5       0xb4 obj_cooja/mtype892.a(rs232.o)
 .text.doInterfaceActionsAfterTick
                0x000000000001a169        0x5 obj_cooja/mtype892.a(rs232.o)
 *fill*         0x000000000001a16e        0x2 90909090
 .text          0x000000000001a170        0x0 obj_cooja/mtype892.a(vib-sensor.o)
 .text.value    0x000000000001a170        0xf obj_cooja/mtype892.a(vib-sensor.o)
 .text.configure
                0x000000000001a17f       0x3a obj_cooja/mtype892.a(vib-sensor.o)
 .text.status   0x000000000001a1b9       0x23 obj_cooja/mtype892.a(vib-sensor.o)
 .text.doInterfaceActionsBeforeTick
                0x000000000001a1dc       0x40 obj_cooja/mtype892.a(vib-sensor.o)
 .text.doInterfaceActionsAfterTick
                0x000000000001a21c        0x5 obj_cooja/mtype892.a(vib-sensor.o)
 *fill*         0x000000000001a221        0x3 90909090
 .text          0x000000000001a224        0x0 obj_cooja/mtype892.a(clock.o)
 .text.clock_init
                0x000000000001a224        0x5 obj_cooja/mtype892.a(clock.o)
                0x000000000001a224                clock_init
 .text.clock_time
                0x000000000001a229        0xa obj_cooja/mtype892.a(clock.o)
                0x000000000001a229                clock_time
 .text.clock_seconds
                0x000000000001a233       0x1f obj_cooja/mtype892.a(clock.o)
                0x000000000001a233                clock_seconds
 .text.clock_delay
                0x000000000001a252        0x5 obj_cooja/mtype892.a(clock.o)
                0x000000000001a252                clock_delay
 .text.doInterfaceActionsBeforeTick
                0x000000000001a257        0x5 obj_cooja/mtype892.a(clock.o)
 .text.doInterfaceActionsAfterTick
                0x000000000001a25c        0x5 obj_cooja/mtype892.a(clock.o)
 *fill*         0x000000000001a261        0x3 90909090
 .text          0x000000000001a264        0x0 obj_cooja/mtype892.a(log.o)
 .text.simlog_char
                0x000000000001a264       0x43 obj_cooja/mtype892.a(log.o)
                0x000000000001a264                simlog_char
 .text.simlog   0x000000000001a2a7       0xb1 obj_cooja/mtype892.a(log.o)
                0x000000000001a2a7                simlog
 .text.log_message
                0x000000000001a358       0x1e obj_cooja/mtype892.a(log.o)
                0x000000000001a358                log_message
 .text.doInterfaceActionsBeforeTick
                0x000000000001a376        0x5 obj_cooja/mtype892.a(log.o)
 .text.doInterfaceActionsAfterTick
                0x000000000001a37b        0x5 obj_cooja/mtype892.a(log.o)
 .text.log_set_putchar_with_slip
                0x000000000001a380        0xd obj_cooja/mtype892.a(log.o)
                0x000000000001a380                log_set_putchar_with_slip
 .text.putchar  0x000000000001a38d       0x84 obj_cooja/mtype892.a(log.o)
                0x000000000001a38d                log_putchar
 .text.puts     0x000000000001a411       0x24 obj_cooja/mtype892.a(log.o)
                0x000000000001a411                log_puts
 .text.printf   0x000000000001a435       0x63 obj_cooja/mtype892.a(log.o)
                0x000000000001a435                log_printf
 .text          0x000000000001a498        0x0 obj_cooja/mtype892.a(cfs-cooja.o)
 .text.cfs_open
                0x000000000001a498       0x4b obj_cooja/mtype892.a(cfs-cooja.o)
                0x000000000001a498                cfs_open
 .text.cfs_close
                0x000000000001a4e3        0xc obj_cooja/mtype892.a(cfs-cooja.o)
                0x000000000001a4e3                cfs_close
 .text.cfs_read
                0x000000000001a4ef       0x93 obj_cooja/mtype892.a(cfs-cooja.o)
                0x000000000001a4ef                cfs_read
 .text.cfs_write
                0x000000000001a582       0xbb obj_cooja/mtype892.a(cfs-cooja.o)
                0x000000000001a582                cfs_write
 .text.cfs_seek
                0x000000000001a63d       0x82 obj_cooja/mtype892.a(cfs-cooja.o)
                0x000000000001a63d                cfs_seek
 .text.cfs_remove
                0x000000000001a6bf       0x23 obj_cooja/mtype892.a(cfs-cooja.o)
                0x000000000001a6bf                cfs_remove
 .text.cfs_opendir
                0x000000000001a6e2        0xa obj_cooja/mtype892.a(cfs-cooja.o)
                0x000000000001a6e2                cfs_opendir
 .text.cfs_readdir
                0x000000000001a6ec        0xa obj_cooja/mtype892.a(cfs-cooja.o)
                0x000000000001a6ec                cfs_readdir
 .text.cfs_closedir
                0x000000000001a6f6        0x5 obj_cooja/mtype892.a(cfs-cooja.o)
                0x000000000001a6f6                cfs_closedir
 .text.doInterfaceActionsBeforeTick
                0x000000000001a6fb        0x5 obj_cooja/mtype892.a(cfs-cooja.o)
 .text.doInterfaceActionsAfterTick
                0x000000000001a700        0x5 obj_cooja/mtype892.a(cfs-cooja.o)
 *fill*         0x000000000001a705        0x3 90909090
 .text          0x000000000001a708        0x0 obj_cooja/mtype892.a(cooja-radio.o)
 .text.radio_set_channel
                0x000000000001a708        0xd obj_cooja/mtype892.a(cooja-radio.o)
                0x000000000001a708                radio_set_channel
 .text.radio_set_txpower
                0x000000000001a715       0x17 obj_cooja/mtype892.a(cooja-radio.o)
                0x000000000001a715                radio_set_txpower
 .text.radio_signal_strength_last
                0x000000000001a72c        0xa obj_cooja/mtype892.a(cooja-radio.o)
                0x000000000001a72c                radio_signal_strength_last
 .text.radio_signal_strength_current
                0x000000000001a736        0xa obj_cooja/mtype892.a(cooja-radio.o)
                0x000000000001a736                radio_signal_strength_current
 .text.radio_on
                0x000000000001a740       0x11 obj_cooja/mtype892.a(cooja-radio.o)
 .text.radio_off
                0x000000000001a751       0x11 obj_cooja/mtype892.a(cooja-radio.o)
 .text.doInterfaceActionsBeforeTick
                0x000000000001a762       0x4b obj_cooja/mtype892.a(cooja-radio.o)
 .text.doInterfaceActionsAfterTick
                0x000000000001a7ad        0x5 obj_cooja/mtype892.a(cooja-radio.o)
 .text.radio_read
                0x000000000001a7b2       0x7e obj_cooja/mtype892.a(cooja-radio.o)
 .text.channel_clear
                0x000000000001a830       0x1b obj_cooja/mtype892.a(cooja-radio.o)
 .text.radio_send
                0x000000000001a84b       0xd2 obj_cooja/mtype892.a(cooja-radio.o)
 .text.prepare_packet
                0x000000000001a91d       0x1c obj_cooja/mtype892.a(cooja-radio.o)
 .text.transmit_packet
                0x000000000001a939       0x3a obj_cooja/mtype892.a(cooja-radio.o)
 .text.receiving_packet
                0x000000000001a973        0xf obj_cooja/mtype892.a(cooja-radio.o)
 .text.pending_packet
                0x000000000001a982       0x25 obj_cooja/mtype892.a(cooja-radio.o)
 .text.process_thread_cooja_radio_process
                0x000000000001a9a7       0x93 obj_cooja/mtype892.a(cooja-radio.o)
 .text.init     0x000000000001aa3a       0x21 obj_cooja/mtype892.a(cooja-radio.o)
 *fill*         0x000000000001aa5b        0x1 90909090
 .text          0x000000000001aa5c        0x0 obj_cooja/mtype892.a(sensors.o)
 .text.get_sensor_index
                0x000000000001aa5c       0x3b obj_cooja/mtype892.a(sensors.o)
 .text.sensors_first
                0x000000000001aa97        0xa obj_cooja/mtype892.a(sensors.o)
                0x000000000001aa97                sensors_first
 .text.sensors_next
                0x000000000001aaa1       0x1d obj_cooja/mtype892.a(sensors.o)
                0x000000000001aaa1                sensors_next
 .text.sensors_changed
                0x000000000001aabe       0x2f obj_cooja/mtype892.a(sensors.o)
                0x000000000001aabe                sensors_changed
 .text.sensors_find
                0x000000000001aaed       0x84 obj_cooja/mtype892.a(sensors.o)
                0x000000000001aaed                sensors_find
 .text.process_thread_sensors_process
                0x000000000001ab71      0x1a5 obj_cooja/mtype892.a(sensors.o)
 *fill*         0x000000000001ad16        0x2 90909090
 .text          0x000000000001ad18        0x0 obj_cooja/mtype892.a(leds.o)
 .text.show_leds
                0x000000000001ad18       0x44 obj_cooja/mtype892.a(leds.o)
 .text.leds_init
                0x000000000001ad5c       0x20 obj_cooja/mtype892.a(leds.o)
                0x000000000001ad5c                leds_init
 .text.leds_blink
                0x000000000001ad7c       0x41 obj_cooja/mtype892.a(leds.o)
                0x000000000001ad7c                leds_blink
 .text.leds_get
                0x000000000001adbd        0xd obj_cooja/mtype892.a(leds.o)
                0x000000000001adbd                leds_get
 .text.leds_on  0x000000000001adca       0x3d obj_cooja/mtype892.a(leds.o)
                0x000000000001adca                leds_on
 .text.leds_off
                0x000000000001ae07       0x3d obj_cooja/mtype892.a(leds.o)
                0x000000000001ae07                leds_off
 .text.leds_toggle
                0x000000000001ae44       0x1a obj_cooja/mtype892.a(leds.o)
                0x000000000001ae44                leds_toggle
 .text.leds_invert
                0x000000000001ae5e       0x29 obj_cooja/mtype892.a(leds.o)
                0x000000000001ae5e                leds_invert
 *fill*         0x000000000001ae87        0x1 90909090
 .text          0x000000000001ae88        0x0 obj_cooja/mtype892.a(rimestats.o)
 .text          0x000000000001ae88        0x0 obj_cooja/mtype892.a(frame802154.o)
 .text.addr_len
                0x000000000001ae88       0x31 obj_cooja/mtype892.a(frame802154.o)
 .text.field_len
                0x000000000001aeb9       0xc6 obj_cooja/mtype892.a(frame802154.o)
 .text.frame802154_hdrlen
                0x000000000001af7f       0x48 obj_cooja/mtype892.a(frame802154.o)
                0x000000000001af7f                frame802154_hdrlen
 .text.frame802154_create
                0x000000000001afc7      0x1d3 obj_cooja/mtype892.a(frame802154.o)
                0x000000000001afc7                frame802154_create
 .text.frame802154_parse
                0x000000000001b19a      0x29b obj_cooja/mtype892.a(frame802154.o)
                0x000000000001b19a                frame802154_parse
 *fill*         0x000000000001b435        0x3 90909090
 .text          0x000000000001b438        0x0 obj_cooja/mtype892.a(rpl.o)
 .text.rpl_purge_routes
                0x000000000001b438       0xfa obj_cooja/mtype892.a(rpl.o)
                0x000000000001b438                rpl_purge_routes
 .text.rpl_remove_routes
                0x000000000001b532       0x46 obj_cooja/mtype892.a(rpl.o)
                0x000000000001b532                rpl_remove_routes
 .text.rpl_remove_routes_by_nexthop
                0x000000000001b578       0x6c obj_cooja/mtype892.a(rpl.o)
                0x000000000001b578                rpl_remove_routes_by_nexthop
 .text.rpl_add_route
                0x000000000001b5e4       0x70 obj_cooja/mtype892.a(rpl.o)
                0x000000000001b5e4                rpl_add_route
 .text.rpl_link_neighbor_callback
                0x000000000001b654       0xeb obj_cooja/mtype892.a(rpl.o)
                0x000000000001b654                rpl_link_neighbor_callback
 .text.rpl_ipv6_neighbor_callback
                0x000000000001b73f       0x64 obj_cooja/mtype892.a(rpl.o)
                0x000000000001b73f                rpl_ipv6_neighbor_callback
 .text.rpl_init
                0x000000000001b7a3       0x73 obj_cooja/mtype892.a(rpl.o)
                0x000000000001b7a3                rpl_init
 *fill*         0x000000000001b816        0x2 90909090
 .text          0x000000000001b818        0x0 obj_cooja/mtype892.a(rpl-dag.o)
 .text.rpl_dag_init
                0x000000000001b818       0x1d obj_cooja/mtype892.a(rpl-dag.o)
                0x000000000001b818                rpl_dag_init
 .text.rpl_get_parent_rank
                0x000000000001b835       0x33 obj_cooja/mtype892.a(rpl-dag.o)
                0x000000000001b835                rpl_get_parent_rank
 .text.rpl_get_parent_link_metric
                0x000000000001b868       0x33 obj_cooja/mtype892.a(rpl-dag.o)
                0x000000000001b868                rpl_get_parent_link_metric
 .text.rpl_get_parent_ipaddr
                0x000000000001b89b       0x2a obj_cooja/mtype892.a(rpl-dag.o)
                0x000000000001b89b                rpl_get_parent_ipaddr
 .text.rpl_set_preferred_parent
                0x000000000001b8c5       0x4d obj_cooja/mtype892.a(rpl-dag.o)
 .text.lollipop_greater_than
                0x000000000001b912       0x65 obj_cooja/mtype892.a(rpl-dag.o)
 .text.remove_parents
                0x000000000001b977       0x61 obj_cooja/mtype892.a(rpl-dag.o)
 .text.nullify_parents
                0x000000000001b9d8       0x61 obj_cooja/mtype892.a(rpl-dag.o)
 .text.should_send_dao
                0x000000000001ba39       0x5b obj_cooja/mtype892.a(rpl-dag.o)
 .text.acceptable_rank
                0x000000000001ba94       0x98 obj_cooja/mtype892.a(rpl-dag.o)
 .text.get_dag  0x000000000001bb2c       0x88 obj_cooja/mtype892.a(rpl-dag.o)
 .text.rpl_set_root
                0x000000000001bbb4      0x1d1 obj_cooja/mtype892.a(rpl-dag.o)
                0x000000000001bbb4                rpl_set_root
 .text.rpl_repair_root
                0x000000000001bd85       0xd6 obj_cooja/mtype892.a(rpl-dag.o)
                0x000000000001bd85                rpl_repair_root
 .text.set_ip_from_prefix
                0x000000000001be5b       0x6b obj_cooja/mtype892.a(rpl-dag.o)
 .text.check_prefix
                0x000000000001bec6      0x103 obj_cooja/mtype892.a(rpl-dag.o)
 .text.rpl_set_prefix
                0x000000000001bfc9      0x10e obj_cooja/mtype892.a(rpl-dag.o)
                0x000000000001bfc9                rpl_set_prefix
 .text.rpl_set_default_route
                0x000000000001c0d7       0xa5 obj_cooja/mtype892.a(rpl-dag.o)
                0x000000000001c0d7                rpl_set_default_route
 .text.rpl_alloc_instance
                0x000000000001c17c       0xd9 obj_cooja/mtype892.a(rpl-dag.o)
                0x000000000001c17c                rpl_alloc_instance
 .text.rpl_alloc_dag
                0x000000000001c255      0x112 obj_cooja/mtype892.a(rpl-dag.o)
                0x000000000001c255                rpl_alloc_dag
 .text.rpl_set_default_instance
                0x000000000001c367        0xd obj_cooja/mtype892.a(rpl-dag.o)
                0x000000000001c367                rpl_set_default_instance
 .text.rpl_free_instance
                0x000000000001c374       0x91 obj_cooja/mtype892.a(rpl-dag.o)
                0x000000000001c374                rpl_free_instance
 .text.rpl_free_dag
                0x000000000001c405       0x66 obj_cooja/mtype892.a(rpl-dag.o)
                0x000000000001c405                rpl_free_dag
 .text.rpl_add_parent
                0x000000000001c46b       0x6a obj_cooja/mtype892.a(rpl-dag.o)
                0x000000000001c46b                rpl_add_parent
 .text.find_parent_any_dag_any_instance
                0x000000000001c4d5       0x38 obj_cooja/mtype892.a(rpl-dag.o)
 .text.rpl_find_parent
                0x000000000001c50d       0x31 obj_cooja/mtype892.a(rpl-dag.o)
                0x000000000001c50d                rpl_find_parent
 .text.find_parent_dag
                0x000000000001c53e       0x29 obj_cooja/mtype892.a(rpl-dag.o)
 .text.rpl_find_parent_any_dag
                0x000000000001c567       0x3e obj_cooja/mtype892.a(rpl-dag.o)
                0x000000000001c567                rpl_find_parent_any_dag
 .text.rpl_select_dag
                0x000000000001c5a5      0x31b obj_cooja/mtype892.a(rpl-dag.o)
                0x000000000001c5a5                rpl_select_dag
 .text.rpl_select_parent
                0x000000000001c8c0       0x92 obj_cooja/mtype892.a(rpl-dag.o)
                0x000000000001c8c0                rpl_select_parent
 .text.rpl_remove_parent
                0x000000000001c952       0x27 obj_cooja/mtype892.a(rpl-dag.o)
                0x000000000001c952                rpl_remove_parent
 .text.rpl_nullify_parent
                0x000000000001c979       0x94 obj_cooja/mtype892.a(rpl-dag.o)
                0x000000000001c979                rpl_nullify_parent
 .text.rpl_move_parent
                0x000000000001ca0d       0xc8 obj_cooja/mtype892.a(rpl-dag.o)
                0x000000000001ca0d                rpl_move_parent
 .text.rpl_get_any_dag
                0x000000000001cad5       0x62 obj_cooja/mtype892.a(rpl-dag.o)
                0x000000000001cad5                rpl_get_any_dag
 .text.rpl_get_instance
                0x000000000001cb37       0x63 obj_cooja/mtype892.a(rpl-dag.o)
                0x000000000001cb37                rpl_get_instance
 .text.rpl_find_of
                0x000000000001cb9a       0x47 obj_cooja/mtype892.a(rpl-dag.o)
                0x000000000001cb9a                rpl_find_of
 .text.rpl_join_instance
                0x000000000001cbe1      0x2a6 obj_cooja/mtype892.a(rpl-dag.o)
                0x000000000001cbe1                rpl_join_instance
 .text.rpl_add_dag
                0x000000000001ce87      0x280 obj_cooja/mtype892.a(rpl-dag.o)
                0x000000000001ce87                rpl_add_dag
 .text.global_repair
                0x000000000001d107      0x105 obj_cooja/mtype892.a(rpl-dag.o)
 .text.rpl_local_repair
                0x000000000001d20c       0x8c obj_cooja/mtype892.a(rpl-dag.o)
                0x000000000001d20c                rpl_local_repair
 .text.rpl_recalculate_ranks
                0x000000000001d298       0x78 obj_cooja/mtype892.a(rpl-dag.o)
                0x000000000001d298                rpl_recalculate_ranks
 .text.rpl_process_parent_event
                0x000000000001d310       0x81 obj_cooja/mtype892.a(rpl-dag.o)
                0x000000000001d310                rpl_process_parent_event
 .text.rpl_process_dio
                0x000000000001d391      0x43a obj_cooja/mtype892.a(rpl-dag.o)
                0x000000000001d391                rpl_process_dio
 *fill*         0x000000000001d7cb        0x1 90909090
 .text          0x000000000001d7cc        0x0 obj_cooja/mtype892.a(rpl-icmp6.o)
 .text.packetbuf_addr
                0x000000000001d7cc       0x1d obj_cooja/mtype892.a(rpl-icmp6.o)
 .text.get_global_addr
                0x000000000001d7e9       0xb7 obj_cooja/mtype892.a(rpl-icmp6.o)
 .text.get32    0x000000000001d8a0       0x4f obj_cooja/mtype892.a(rpl-icmp6.o)
 .text.set32    0x000000000001d8ef       0x4a obj_cooja/mtype892.a(rpl-icmp6.o)
 .text.get16    0x000000000001d939       0x27 obj_cooja/mtype892.a(rpl-icmp6.o)
 .text.set16    0x000000000001d960       0x33 obj_cooja/mtype892.a(rpl-icmp6.o)
 .text.dis_input
                0x000000000001d993       0x65 obj_cooja/mtype892.a(rpl-icmp6.o)
 .text.dis_output
                0x000000000001d9f8       0xaf obj_cooja/mtype892.a(rpl-icmp6.o)
                0x000000000001d9f8                dis_output
 .text.dio_input
                0x000000000001daa7      0x5d8 obj_cooja/mtype892.a(rpl-icmp6.o)
 .text.dio_output
                0x000000000001e07f      0x53e obj_cooja/mtype892.a(rpl-icmp6.o)
                0x000000000001e07f                dio_output
 .text.dao_input
                0x000000000001e5bd      0x40b obj_cooja/mtype892.a(rpl-icmp6.o)
 .text.dao_output
                0x000000000001e9c8       0x5c obj_cooja/mtype892.a(rpl-icmp6.o)
                0x000000000001e9c8                dao_output
 .text.dao_output_target
                0x000000000001ea24      0x243 obj_cooja/mtype892.a(rpl-icmp6.o)
                0x000000000001ea24                dao_output_target
 .text.dao_ack_input
                0x000000000001ec67        0x5 obj_cooja/mtype892.a(rpl-icmp6.o)
 .text.dao_ack_output
                0x000000000001ec6c       0x73 obj_cooja/mtype892.a(rpl-icmp6.o)
                0x000000000001ec6c                dao_ack_output
 .text.uip_rpl_input
                0x000000000001ecdf       0x63 obj_cooja/mtype892.a(rpl-icmp6.o)
                0x000000000001ecdf                uip_rpl_input
 *fill*         0x000000000001ed42        0x2 90909090
 .text          0x000000000001ed44        0x0 obj_cooja/mtype892.a(rpl-timers.o)
 .text.handle_periodic_timer
                0x000000000001ed44       0x59 obj_cooja/mtype892.a(rpl-timers.o)
 .text.new_dio_interval
                0x000000000001ed9d       0xda obj_cooja/mtype892.a(rpl-timers.o)
 .text.handle_dio_timer
                0x000000000001ee77      0x11f obj_cooja/mtype892.a(rpl-timers.o)
 .text.rpl_reset_periodic_timer
                0x000000000001ef96       0x5b obj_cooja/mtype892.a(rpl-timers.o)
                0x000000000001ef96                rpl_reset_periodic_timer
 .text.rpl_reset_dio_timer
                0x000000000001eff1       0x48 obj_cooja/mtype892.a(rpl-timers.o)
                0x000000000001eff1                rpl_reset_dio_timer
 .text.handle_dao_timer
                0x000000000001f039       0x92 obj_cooja/mtype892.a(rpl-timers.o)
 .text.rpl_schedule_dao
                0x000000000001f0cb       0x89 obj_cooja/mtype892.a(rpl-timers.o)
                0x000000000001f0cb                rpl_schedule_dao
 .text          0x000000000001f154        0x0 obj_cooja/mtype892.a(rpl-mrhof.o)
 .text.calculate_path_metric
                0x000000000001f154       0x22 obj_cooja/mtype892.a(rpl-mrhof.o)
 .text.reset    0x000000000001f176        0x5 obj_cooja/mtype892.a(rpl-mrhof.o)
 .text.neighbor_link_callback
                0x000000000001f17b       0x6c obj_cooja/mtype892.a(rpl-mrhof.o)
 .text.calculate_rank
                0x000000000001f1e7       0x75 obj_cooja/mtype892.a(rpl-mrhof.o)
 .text.best_dag
                0x000000000001f25c       0x75 obj_cooja/mtype892.a(rpl-mrhof.o)
 .text.best_parent
                0x000000000001f2d1       0x92 obj_cooja/mtype892.a(rpl-mrhof.o)
 .text.update_metric_container
                0x000000000001f363        0xb obj_cooja/mtype892.a(rpl-mrhof.o)
 *fill*         0x000000000001f36e        0x2 90909090
 .text          0x000000000001f370        0x0 obj_cooja/mtype892.a(rpl-ext-header.)
 .text.rpl_verify_header
                0x000000000001f370      0x1fa obj_cooja/mtype892.a(rpl-ext-header.)
                0x000000000001f370                rpl_verify_header
 .text.set_rpl_opt
                0x000000000001f56a      0x18b obj_cooja/mtype892.a(rpl-ext-header.)
 .text.rpl_update_header_empty
                0x000000000001f6f5      0x22f obj_cooja/mtype892.a(rpl-ext-header.)
                0x000000000001f6f5                rpl_update_header_empty
 .text.rpl_update_header_final
                0x000000000001f924      0x174 obj_cooja/mtype892.a(rpl-ext-header.)
                0x000000000001f924                rpl_update_header_final
 .text.rpl_remove_header
                0x000000000001fa98      0x114 obj_cooja/mtype892.a(rpl-ext-header.)
                0x000000000001fa98                rpl_remove_header
 .text.rpl_invert_header
                0x000000000001fbac      0x14c obj_cooja/mtype892.a(rpl-ext-header.)
                0x000000000001fbac                rpl_invert_header
 .text.rpl_insert_header
                0x000000000001fcf8       0x39 obj_cooja/mtype892.a(rpl-ext-header.)
                0x000000000001fcf8                rpl_insert_header
 *fill*         0x000000000001fd31        0x3 90909090
 .text          0x000000000001fd34        0x0 obj_cooja/mtype892.a(timer.o)
 .text.timer_set
                0x000000000001fd34       0x1b obj_cooja/mtype892.a(timer.o)
                0x000000000001fd34                timer_set
 .text.timer_reset
                0x000000000001fd4f       0x17 obj_cooja/mtype892.a(timer.o)
                0x000000000001fd4f                timer_reset
 .text.timer_restart
                0x000000000001fd66       0x12 obj_cooja/mtype892.a(timer.o)
                0x000000000001fd66                timer_restart
 .text.timer_expired
                0x000000000001fd78       0x29 obj_cooja/mtype892.a(timer.o)
                0x000000000001fd78                timer_expired
 .text.timer_remaining
                0x000000000001fda1       0x26 obj_cooja/mtype892.a(timer.o)
                0x000000000001fda1                timer_remaining
 *fill*         0x000000000001fdc7        0x1 90909090
 .text          0x000000000001fdc8        0x0 obj_cooja/mtype892.a(rtimer.o)
 .text.rtimer_init
                0x000000000001fdc8        0xd obj_cooja/mtype892.a(rtimer.o)
                0x000000000001fdc8                rtimer_init
 .text.rtimer_set
                0x000000000001fdd5       0x57 obj_cooja/mtype892.a(rtimer.o)
                0x000000000001fdd5                rtimer_set
 .text.rtimer_run_next
                0x000000000001fe2c       0x59 obj_cooja/mtype892.a(rtimer.o)
                0x000000000001fe2c                rtimer_run_next
 *fill*         0x000000000001fe85        0x3 90909090
 .text          0x000000000001fe88        0x0 obj_cooja/mtype892.a(stimer.o)
 .text.stimer_set
                0x000000000001fe88       0x1b obj_cooja/mtype892.a(stimer.o)
                0x000000000001fe88                stimer_set
 .text.stimer_reset
                0x000000000001fea3       0x17 obj_cooja/mtype892.a(stimer.o)
                0x000000000001fea3                stimer_reset
 .text.stimer_restart
                0x000000000001feba       0x12 obj_cooja/mtype892.a(stimer.o)
                0x000000000001feba                stimer_restart
 .text.stimer_expired
                0x000000000001fecc       0x27 obj_cooja/mtype892.a(stimer.o)
                0x000000000001fecc                stimer_expired
 .text.stimer_remaining
                0x000000000001fef3       0x26 obj_cooja/mtype892.a(stimer.o)
                0x000000000001fef3                stimer_remaining
 .text.stimer_elapsed
                0x000000000001ff19       0x14 obj_cooja/mtype892.a(stimer.o)
                0x000000000001ff19                stimer_elapsed
 *fill*         0x000000000001ff2d        0x3 90909090
 .text          0x000000000001ff30        0x0 obj_cooja/mtype892.a(nbr-table.o)
 .text.key_from_index
                0x000000000001ff30       0x26 obj_cooja/mtype892.a(nbr-table.o)
 .text.item_from_index
                0x000000000001ff56       0x2a obj_cooja/mtype892.a(nbr-table.o)
 .text.index_from_key
                0x000000000001ff80       0x29 obj_cooja/mtype892.a(nbr-table.o)
 .text.index_from_item
                0x000000000001ffa9       0x3b obj_cooja/mtype892.a(nbr-table.o)
 .text.item_from_key
                0x000000000001ffe4       0x22 obj_cooja/mtype892.a(nbr-table.o)
 .text.key_from_item
                0x0000000000020006       0x22 obj_cooja/mtype892.a(nbr-table.o)
 .text.index_from_lladdr
                0x0000000000020028       0x6c obj_cooja/mtype892.a(nbr-table.o)
 .text.nbr_get_bit
                0x0000000000020094       0x51 obj_cooja/mtype892.a(nbr-table.o)
 .text.nbr_set_bit
                0x00000000000200e5       0x96 obj_cooja/mtype892.a(nbr-table.o)
 .text.nbr_table_allocate
                0x000000000002017b      0x19b obj_cooja/mtype892.a(nbr-table.o)
 .text.nbr_table_register
                0x0000000000020316       0x47 obj_cooja/mtype892.a(nbr-table.o)
                0x0000000000020316                nbr_table_register
 .text.nbr_table_head
                0x000000000002035d       0x5c obj_cooja/mtype892.a(nbr-table.o)
                0x000000000002035d                nbr_table_head
 .text.nbr_table_next
                0x00000000000203b9       0x67 obj_cooja/mtype892.a(nbr-table.o)
                0x00000000000203b9                nbr_table_next
 .text.nbr_table_add_lladdr
                0x0000000000020420       0xd1 obj_cooja/mtype892.a(nbr-table.o)
                0x0000000000020420                nbr_table_add_lladdr
 .text.nbr_table_get_from_lladdr
                0x00000000000204f1       0x4d obj_cooja/mtype892.a(nbr-table.o)
                0x00000000000204f1                nbr_table_get_from_lladdr
 .text.nbr_table_remove
                0x000000000002053e       0x52 obj_cooja/mtype892.a(nbr-table.o)
                0x000000000002053e                nbr_table_remove
 .text.nbr_table_lock
                0x0000000000020590       0x2a obj_cooja/mtype892.a(nbr-table.o)
                0x0000000000020590                nbr_table_lock
 .text.nbr_table_unlock
                0x00000000000205ba       0x2a obj_cooja/mtype892.a(nbr-table.o)
                0x00000000000205ba                nbr_table_unlock
 .text.nbr_table_get_lladdr
                0x00000000000205e4       0x30 obj_cooja/mtype892.a(nbr-table.o)
                0x00000000000205e4                nbr_table_get_lladdr
 .text          0x0000000000020614        0x0 obj_cooja/mtype892.a(uip-icmp6.o)
 .text.uip_icmp6_echo_request_input
                0x0000000000020614      0x2b5 obj_cooja/mtype892.a(uip-icmp6.o)
                0x0000000000020614                uip_icmp6_echo_request_input
 .text.uip_icmp6_error_output
                0x00000000000208c9      0x32b obj_cooja/mtype892.a(uip-icmp6.o)
                0x00000000000208c9                uip_icmp6_error_output
 .text.uip_icmp6_send
                0x0000000000020bf4      0x10a obj_cooja/mtype892.a(uip-icmp6.o)
                0x0000000000020bf4                uip_icmp6_send
 *fill*         0x0000000000020cfe        0x2 90909090
 .text          0x0000000000020d00       0x38 /usr/lib/gcc/i686-linux-gnu/4.6/crtendS.o
 .text          0x0000000000020d38        0x0 /usr/lib/gcc/i686-linux-gnu/4.6/../../../i386-linux-gnu/crtn.o
 *(.gnu.warning)

.fini           0x0000000000020d38       0x1a
 *(.fini)
 .fini          0x0000000000020d38       0x10 /usr/lib/gcc/i686-linux-gnu/4.6/../../../i386-linux-gnu/crti.o
                0x0000000000020d38                _fini
 .fini          0x0000000000020d48        0x5 /usr/lib/gcc/i686-linux-gnu/4.6/crtbeginS.o
 .fini          0x0000000000020d4d        0x5 /usr/lib/gcc/i686-linux-gnu/4.6/../../../i386-linux-gnu/crtn.o
                0x0000000000020d52                PROVIDE (__etext, .)
                0x0000000000020d52                PROVIDE (_etext, .)
                0x0000000000020d52                PROVIDE (etext, .)

.rodata         0x0000000000020d60      0x654
 *(.rodata .rodata.* .gnu.linkonce.r.*)
 .rodata        0x0000000000020d60       0x8d desk-controller.co
                0x0000000000020d78                autostart_processes
 *fill*         0x0000000000020ded        0x3 00
 .rodata        0x0000000000020df0      0x123 obj_cooja/mtype892.o
 .rodata        0x0000000000020f13        0x8 obj_cooja/mtype892.a(rimeaddr.o)
                0x0000000000020f13                rimeaddr_null
 *fill*         0x0000000000020f1b        0x5 00
 .rodata        0x0000000000020f20       0x40 obj_cooja/mtype892.a(nullrdc.o)
                0x0000000000020f40                nullrdc_driver
 .rodata        0x0000000000020f60        0xc obj_cooja/mtype892.a(framer-802154.o)
                0x0000000000020f64                framer_802154
 .rodata        0x0000000000020f6c       0x24 obj_cooja/mtype892.a(csma.o)
                0x0000000000020f74                csma_driver
 .rodata        0x0000000000020f90        0xe obj_cooja/mtype892.a(serial-line.o)
 .rodata        0x0000000000020f9e        0xc obj_cooja/mtype892.a(etimer.o)
 .rodata        0x0000000000020faa        0xf obj_cooja/mtype892.a(ctimer.o)
 *fill*         0x0000000000020fb9        0x3 00
 .rodata        0x0000000000020fbc       0x2c obj_cooja/mtype892.a(sicslowpan.o)
                0x0000000000020fbc                unc_llconf
                0x0000000000020fc0                unc_ctxconf
                0x0000000000020fc4                unc_mxconf
                0x0000000000020fc8                llprefix
                0x0000000000020fdc                sicslowpan_driver
 .rodata        0x0000000000020fe8       0x13 obj_cooja/mtype892.a(simple-udp.o)
 .rodata        0x0000000000020ffb       0x29 obj_cooja/mtype892.a(tcpip.o)
 .rodata        0x0000000000021024       0x1c obj_cooja/mtype892.a(uip-debug.o)
 .rodata        0x0000000000021040      0x1ac obj_cooja/mtype892.a(uip6.o)
 .rodata        0x00000000000211ec       0x9d obj_cooja/mtype892.a(servreg-hack.o)
 *fill*         0x0000000000021289        0x3 00
 .rodata        0x000000000002128c        0x8 obj_cooja/mtype892.a(beep.o)
                0x000000000002128c                beep_interface
 .rodata        0x0000000000021294       0x20 obj_cooja/mtype892.a(button-sensor.o)
                0x0000000000021294                button_interface
                0x00000000000212a4                button_sensor
 .rodata        0x00000000000212b4        0x8 obj_cooja/mtype892.a(leds-arch.o)
                0x00000000000212b4                leds_interface
 .rodata        0x00000000000212bc        0x8 obj_cooja/mtype892.a(moteid.o)
                0x00000000000212bc                moteid_interface
 .rodata        0x00000000000212c4       0x1c obj_cooja/mtype892.a(pir-sensor.o)
                0x00000000000212c4                pir_interface
                0x00000000000212d0                pir_sensor
 .rodata        0x00000000000212e0        0xe obj_cooja/mtype892.a(rs232.o)
                0x00000000000212e0                rs232_interface
 *fill*         0x00000000000212ee        0x2 00
 .rodata        0x00000000000212f0       0x24 obj_cooja/mtype892.a(vib-sensor.o)
                0x00000000000212f0                vib_interface
                0x0000000000021304                vib_sensor
 .rodata        0x0000000000021314        0x8 obj_cooja/mtype892.a(clock.o)
                0x0000000000021314                clock_interface
 .rodata        0x000000000002131c        0x8 obj_cooja/mtype892.a(log.o)
                0x000000000002131c                simlog_interface
 .rodata        0x0000000000021324       0x2f obj_cooja/mtype892.a(cfs-cooja.o)
                0x0000000000021324                cfs_interface
 *fill*         0x0000000000021353        0xd 00
 .rodata        0x0000000000021360       0x48 obj_cooja/mtype892.a(cooja-radio.o)
                0x0000000000021360                radio_interface
                0x0000000000021380                cooja_radio_driver
 .rodata        0x00000000000213a8        0x8 obj_cooja/mtype892.a(sensors.o)
 .rodata        0x00000000000213b0        0x4 obj_cooja/mtype892.a(rpl-dag.o)

.rodata1
 *(.rodata1)

.eh_frame_hdr   0x00000000000213b4     0x112c
 *(.eh_frame_hdr)
 .eh_frame_hdr  0x00000000000213b4     0x112c /usr/lib/gcc/i686-linux-gnu/4.6/../../../i386-linux-gnu/crti.o

.eh_frame       0x00000000000224e0     0x465c
 *(.eh_frame)
 .eh_frame      0x00000000000224e0       0x3c /usr/lib/gcc/i686-linux-gnu/4.6/../../../i386-linux-gnu/crti.o
                                         0x40 (size before relaxing)
 .eh_frame      0x000000000002251c       0x68 desk-controller.co
                                         0x80 (size before relaxing)
 .eh_frame      0x0000000000022584      0x148 obj_cooja/mtype892.o
                                        0x160 (size before relaxing)
 .eh_frame      0x00000000000226cc       0x60 obj_cooja/mtype892.a(rimeaddr.o)
                                         0x78 (size before relaxing)
 .eh_frame      0x000000000002272c      0x194 obj_cooja/mtype892.a(nullrdc.o)
                                        0x1ac (size before relaxing)
 .eh_frame      0x00000000000228c0       0x20 obj_cooja/mtype892.a(mac.o)
                                         0x38 (size before relaxing)
 .eh_frame      0x00000000000228e0       0xec obj_cooja/mtype892.a(framer-802154.o)
                                        0x104 (size before relaxing)
 .eh_frame      0x00000000000229cc      0x1c8 obj_cooja/mtype892.a(csma.o)
                                        0x1e0 (size before relaxing)
 .eh_frame      0x0000000000022b94      0x1c8 obj_cooja/mtype892.a(process.o)
                                        0x1e0 (size before relaxing)
 .eh_frame      0x0000000000022d5c       0x40 obj_cooja/mtype892.a(autostart.o)
                                         0x58 (size before relaxing)
 .eh_frame      0x0000000000022d9c       0x60 obj_cooja/mtype892.a(serial-line.o)
                                         0x78 (size before relaxing)
 .eh_frame      0x0000000000022dfc       0x80 obj_cooja/mtype892.a(memb.o)
                                         0x98 (size before relaxing)
 .eh_frame      0x0000000000022e7c      0x180 obj_cooja/mtype892.a(list.o)
                                        0x198 (size before relaxing)
 .eh_frame      0x0000000000022ffc      0x1c0 obj_cooja/mtype892.a(etimer.o)
                                        0x1d8 (size before relaxing)
 .eh_frame      0x00000000000231bc       0xe0 obj_cooja/mtype892.a(ctimer.o)
                                         0xf8 (size before relaxing)
 .eh_frame      0x000000000002329c       0x80 obj_cooja/mtype892.a(energest.o)
                                         0x98 (size before relaxing)
 .eh_frame      0x000000000002331c       0x40 obj_cooja/mtype892.a(random.o)
                                         0x58 (size before relaxing)
 .eh_frame      0x000000000002335c       0xa0 obj_cooja/mtype892.a(ringbuf.o)
                                         0xb8 (size before relaxing)
 .eh_frame      0x00000000000233fc       0x20 obj_cooja/mtype892.a(netstack.o)
                                         0x38 (size before relaxing)
 .eh_frame      0x000000000002341c      0x2b4 obj_cooja/mtype892.a(packetbuf.o)
                                        0x2cc (size before relaxing)
 .eh_frame      0x00000000000236d0      0x168 obj_cooja/mtype892.a(queuebuf.o)
                                        0x180 (size before relaxing)
 .eh_frame      0x0000000000023838      0x27c obj_cooja/mtype892.a(sicslowpan.o)
                                        0x294 (size before relaxing)
 .eh_frame      0x0000000000023ab4       0xd0 obj_cooja/mtype892.a(simple-udp.o)
                                         0xe8 (size before relaxing)
 .eh_frame      0x0000000000023b84      0x274 obj_cooja/mtype892.a(tcpip.o)
                                        0x28c (size before relaxing)
 .eh_frame      0x0000000000023df8       0x40 obj_cooja/mtype892.a(uip-debug.o)
                                         0x58 (size before relaxing)
 .eh_frame      0x0000000000023e38      0x280 obj_cooja/mtype892.a(uip-ds6-route.o)
                                        0x298 (size before relaxing)
 .eh_frame      0x00000000000240b8      0x1c0 obj_cooja/mtype892.a(uip-ds6-nbr.o)
                                        0x1d8 (size before relaxing)
 .eh_frame      0x0000000000024278      0x2d4 obj_cooja/mtype892.a(uip-ds6.o)
                                        0x2ec (size before relaxing)
 .eh_frame      0x000000000002454c       0x98 obj_cooja/mtype892.a(uip-nd6.o)
                                         0xb0 (size before relaxing)
 .eh_frame      0x00000000000245e4       0xe0 obj_cooja/mtype892.a(uip-packetqueue)
                                         0xf8 (size before relaxing)
 .eh_frame      0x00000000000246c4       0x40 obj_cooja/mtype892.a(uip-udp-packet.)
                                         0x58 (size before relaxing)
 .eh_frame      0x0000000000024704      0x280 obj_cooja/mtype892.a(uip6.o)
                                        0x298 (size before relaxing)
 .eh_frame      0x0000000000024984      0x170 obj_cooja/mtype892.a(servreg-hack.o)
                                        0x188 (size before relaxing)
 .eh_frame      0x0000000000024af4       0x40 obj_cooja/mtype892.a(simEnvChange.o)
                                         0x58 (size before relaxing)
 .eh_frame      0x0000000000024b34       0xc0 obj_cooja/mtype892.a(cooja_mt.o)
                                         0xd8 (size before relaxing)
 .eh_frame      0x0000000000024bf4      0x128 obj_cooja/mtype892.a(cooja_mtarch.o)
                                        0x140 (size before relaxing)
 .eh_frame      0x0000000000024d1c       0xc0 obj_cooja/mtype892.a(rtimer-arch.o)
                                         0xd8 (size before relaxing)
 .eh_frame      0x0000000000024ddc       0xa0 obj_cooja/mtype892.a(watchdog.o)
                                         0xb8 (size before relaxing)
 .eh_frame      0x0000000000024e7c      0x160 obj_cooja/mtype892.a(beep.o)
                                        0x178 (size before relaxing)
 .eh_frame      0x0000000000024fdc       0xa0 obj_cooja/mtype892.a(button-sensor.o)
                                         0xb8 (size before relaxing)
 .eh_frame      0x000000000002507c       0xa0 obj_cooja/mtype892.a(leds-arch.o)
                                         0xb8 (size before relaxing)
 .eh_frame      0x000000000002511c       0x40 obj_cooja/mtype892.a(moteid.o)
                                         0x58 (size before relaxing)
 .eh_frame      0x000000000002515c       0xa0 obj_cooja/mtype892.a(pir-sensor.o)
                                         0xb8 (size before relaxing)
 .eh_frame      0x00000000000251fc      0x100 obj_cooja/mtype892.a(rs232.o)
                                        0x118 (size before relaxing)
 .eh_frame      0x00000000000252fc       0xa0 obj_cooja/mtype892.a(vib-sensor.o)
                                         0xb8 (size before relaxing)
 .eh_frame      0x000000000002539c       0xc0 obj_cooja/mtype892.a(clock.o)
                                         0xd8 (size before relaxing)
 .eh_frame      0x000000000002545c      0x128 obj_cooja/mtype892.a(log.o)
                                        0x140 (size before relaxing)
 .eh_frame      0x0000000000025584      0x168 obj_cooja/mtype892.a(cfs-cooja.o)
                                        0x180 (size before relaxing)
 .eh_frame      0x00000000000256ec      0x220 obj_cooja/mtype892.a(cooja-radio.o)
                                        0x238 (size before relaxing)
 .eh_frame      0x000000000002590c       0xc4 obj_cooja/mtype892.a(sensors.o)
                                         0xdc (size before relaxing)
 .eh_frame      0x00000000000259d0      0x100 obj_cooja/mtype892.a(leds.o)
                                        0x118 (size before relaxing)
 .eh_frame      0x0000000000025ad0       0xa0 obj_cooja/mtype892.a(frame802154.o)
                                         0xb8 (size before relaxing)
 .eh_frame      0x0000000000025b70       0xe0 obj_cooja/mtype892.a(rpl.o)
                                         0xf8 (size before relaxing)
 .eh_frame      0x0000000000025c50      0x554 obj_cooja/mtype892.a(rpl-dag.o)
                                        0x56c (size before relaxing)
 .eh_frame      0x00000000000261a4      0x224 obj_cooja/mtype892.a(rpl-icmp6.o)
                                        0x23c (size before relaxing)
 .eh_frame      0x00000000000263c8       0xe8 obj_cooja/mtype892.a(rpl-timers.o)
                                        0x100 (size before relaxing)
 .eh_frame      0x00000000000264b0       0xe4 obj_cooja/mtype892.a(rpl-mrhof.o)
                                         0xfc (size before relaxing)
 .eh_frame      0x0000000000026594       0xec obj_cooja/mtype892.a(rpl-ext-header.)
                                        0x104 (size before relaxing)
 .eh_frame      0x0000000000026680       0xa4 obj_cooja/mtype892.a(timer.o)
                                         0xbc (size before relaxing)
 .eh_frame      0x0000000000026724       0x60 obj_cooja/mtype892.a(rtimer.o)
                                         0x78 (size before relaxing)
 .eh_frame      0x0000000000026784       0xc4 obj_cooja/mtype892.a(stimer.o)
                                         0xdc (size before relaxing)
 .eh_frame      0x0000000000026848      0x270 obj_cooja/mtype892.a(nbr-table.o)
                                        0x288 (size before relaxing)
 .eh_frame      0x0000000000026ab8       0x80 obj_cooja/mtype892.a(uip-icmp6.o)
                                         0x98 (size before relaxing)
 .eh_frame      0x0000000000026b38        0x4 /usr/lib/gcc/i686-linux-gnu/4.6/crtendS.o

.gcc_except_table
 *(.gcc_except_table .gcc_except_table.*)

.exception_ranges
 *(.exception_ranges .exception_ranges*)
                0x0000000000026b3c                . = (ALIGN (0x1000) - ((0x1000 - .) & 0xfff))
                0x0000000000027f0c                . = DATA_SEGMENT_ALIGN (0x1000, 0x1000)

.eh_frame
 *(.eh_frame)

.gcc_except_table
 *(.gcc_except_table .gcc_except_table.*)

.exception_ranges
 *(.exception_ranges .exception_ranges*)

.tdata
 *(.tdata .tdata.* .gnu.linkonce.td.*)

.tbss
 *(.tbss .tbss.* .gnu.linkonce.tb.*)
 *(.tcommon)

.preinit_array
 *(.preinit_array)

.init_array
 *(SORT(.init_array.*) SORT(.ctors.*))
 *(.init_array)
 *(EXCLUDE_FILE(*crtend?.o *crtend.o *crtbegin?.o *crtbegin.o) .ctors)

.fini_array
 *(SORT(.fini_array.*) SORT(.dtors.*))
 *(.fini_array)
 *(EXCLUDE_FILE(*crtend?.o *crtend.o *crtbegin?.o *crtbegin.o) .dtors)

.ctors          0x0000000000027f0c        0x8
 *crtbegin.o(.ctors)
 *crtbegin?.o(.ctors)
 .ctors         0x0000000000027f0c        0x4 /usr/lib/gcc/i686-linux-gnu/4.6/crtbeginS.o
 *(EXCLUDE_FILE(*crtend?.o *crtend.o) .ctors)
 *(SORT(.ctors.*))
 *(.ctors)
 .ctors         0x0000000000027f10        0x4 /usr/lib/gcc/i686-linux-gnu/4.6/crtendS.o

.dtors          0x0000000000027f14        0x8
 *crtbegin.o(.dtors)
 *crtbegin?.o(.dtors)
 .dtors         0x0000000000027f14        0x4 /usr/lib/gcc/i686-linux-gnu/4.6/crtbeginS.o
 *(EXCLUDE_FILE(*crtend?.o *crtend.o) .dtors)
 *(SORT(.dtors.*))
 *(.dtors)
 .dtors         0x0000000000027f18        0x4 /usr/lib/gcc/i686-linux-gnu/4.6/crtendS.o
                0x0000000000027f18                __DTOR_END__

.jcr            0x0000000000027f1c        0x4
 *(.jcr)
 .jcr           0x0000000000027f1c        0x0 /usr/lib/gcc/i686-linux-gnu/4.6/crtbeginS.o
 .jcr           0x0000000000027f1c        0x4 /usr/lib/gcc/i686-linux-gnu/4.6/crtendS.o

.data.rel.ro
 *(.data.rel.ro.local* .gnu.linkonce.d.rel.ro.local.*)
 *(.data.rel.ro* .gnu.linkonce.d.rel.ro.*)

.dynamic        0x0000000000027f20       0xc8
 *(.dynamic)
 .dynamic       0x0000000000027f20       0xc8 /usr/lib/gcc/i686-linux-gnu/4.6/../../../i386-linux-gnu/crti.o
                0x0000000000027f20                _DYNAMIC

.got            0x0000000000027fe8        0xc
 *(.got)
 .got           0x0000000000027fe8        0xc /usr/lib/gcc/i686-linux-gnu/4.6/../../../i386-linux-gnu/crti.o
 *(.igot)
                0x0000000000027ff4                . = DATA_SEGMENT_RELRO_END (., 0xc)

.got.plt        0x0000000000027ff4       0x14
 *(.got.plt)
 .got.plt       0x0000000000027ff4       0x14 /usr/lib/gcc/i686-linux-gnu/4.6/../../../i386-linux-gnu/crti.o
                0x0000000000027ff4                _GLOBAL_OFFSET_TABLE_
 *(.igot.plt)

.data           0x0000000000028020      0x1f4
 *(.data .data.* .gnu.linkonce.d.*)
 .data          0x0000000000028020        0x0 /usr/lib/gcc/i686-linux-gnu/4.6/../../../i386-linux-gnu/crti.o
 .data          0x0000000000028020        0x0 /usr/lib/gcc/i686-linux-gnu/4.6/crtbeginS.o
 .data.rel      0x0000000000028020        0x4 /usr/lib/gcc/i686-linux-gnu/4.6/crtbeginS.o
                0x0000000000028020                __dso_handle
 .data          0x0000000000028024       0x10 desk-controller.co
                0x0000000000028024                unicast_sender_process
 *fill*         0x0000000000028034        0xc 00
 .data          0x0000000000028040       0x40 obj_cooja/mtype892.o
                0x0000000000028040                simInterfaces
                0x0000000000028070                sensors
 .data          0x0000000000028080        0x0 obj_cooja/mtype892.a(rimeaddr.o)
 .data          0x0000000000028080        0x0 obj_cooja/mtype892.a(nullrdc.o)
 .data          0x0000000000028080        0x0 obj_cooja/mtype892.a(mac.o)
 .data          0x0000000000028080        0x0 obj_cooja/mtype892.a(framer-802154.o)
 .data          0x0000000000028080       0x28 obj_cooja/mtype892.a(csma.o)
 .data          0x00000000000280a8        0x0 obj_cooja/mtype892.a(process.o)
 .data          0x00000000000280a8        0x0 obj_cooja/mtype892.a(autostart.o)
 .data          0x00000000000280a8       0x10 obj_cooja/mtype892.a(serial-line.o)
                0x00000000000280a8                serial_line_process
 .data          0x00000000000280b8        0x0 obj_cooja/mtype892.a(memb.o)
 .data          0x00000000000280b8        0x0 obj_cooja/mtype892.a(list.o)
 .data          0x00000000000280b8       0x10 obj_cooja/mtype892.a(etimer.o)
                0x00000000000280b8                etimer_process
 .data          0x00000000000280c8       0x14 obj_cooja/mtype892.a(ctimer.o)
                0x00000000000280cc                ctimer_process
 .data          0x00000000000280dc        0x0 obj_cooja/mtype892.a(energest.o)
 .data          0x00000000000280dc        0x0 obj_cooja/mtype892.a(random.o)
 .data          0x00000000000280dc        0x0 obj_cooja/mtype892.a(ringbuf.o)
 .data          0x00000000000280dc        0x0 obj_cooja/mtype892.a(netstack.o)
 .data          0x00000000000280dc        0x4 obj_cooja/mtype892.a(packetbuf.o)
 .data          0x00000000000280e0       0x24 obj_cooja/mtype892.a(queuebuf.o)
 .data          0x0000000000028104        0x0 obj_cooja/mtype892.a(sicslowpan.o)
 .data          0x0000000000028104       0x10 obj_cooja/mtype892.a(simple-udp.o)
                0x0000000000028104                simple_udp_process
 .data          0x0000000000028114       0x10 obj_cooja/mtype892.a(tcpip.o)
                0x0000000000028114                tcpip_process
 .data          0x0000000000028124        0x0 obj_cooja/mtype892.a(uip-debug.o)
 .data          0x0000000000028124       0x34 obj_cooja/mtype892.a(uip-ds6-route.o)
 .data          0x0000000000028158       0x14 obj_cooja/mtype892.a(uip-ds6-nbr.o)
                0x0000000000028168                ds6_neighbors
 .data          0x000000000002816c        0x0 obj_cooja/mtype892.a(uip-ds6.o)
 .data          0x000000000002816c        0x0 obj_cooja/mtype892.a(uip-nd6.o)
 .data          0x000000000002816c        0xc obj_cooja/mtype892.a(uip-packetqueue)
 .data          0x0000000000028178        0x0 obj_cooja/mtype892.a(uip-udp-packet.)
 .data          0x0000000000028178        0x0 obj_cooja/mtype892.a(uip6.o)
 .data          0x0000000000028178       0x24 obj_cooja/mtype892.a(servreg-hack.o)
                0x000000000002818c                servreg_hack_process
 .data          0x000000000002819c        0x0 obj_cooja/mtype892.a(simEnvChange.o)
 .data          0x000000000002819c        0x0 obj_cooja/mtype892.a(cooja_mt.o)
 .data          0x000000000002819c        0x0 obj_cooja/mtype892.a(cooja_mtarch.o)
 .data          0x000000000002819c        0x0 obj_cooja/mtype892.a(rtimer-arch.o)
 .data          0x000000000002819c        0x0 obj_cooja/mtype892.a(watchdog.o)
 .data          0x000000000002819c        0x0 obj_cooja/mtype892.a(beep.o)
 .data          0x000000000002819c        0x0 obj_cooja/mtype892.a(button-sensor.o)
 .data          0x000000000002819c        0x0 obj_cooja/mtype892.a(leds-arch.o)
 .data          0x000000000002819c        0x0 obj_cooja/mtype892.a(moteid.o)
 .data          0x000000000002819c        0x0 obj_cooja/mtype892.a(pir-sensor.o)
 .data          0x000000000002819c        0x0 obj_cooja/mtype892.a(rs232.o)
 .data          0x000000000002819c        0x0 obj_cooja/mtype892.a(vib-sensor.o)
 .data          0x000000000002819c        0x0 obj_cooja/mtype892.a(clock.o)
 .data          0x000000000002819c        0x0 obj_cooja/mtype892.a(log.o)
 .data          0x000000000002819c        0x0 obj_cooja/mtype892.a(cfs-cooja.o)
 .data          0x000000000002819c       0x24 obj_cooja/mtype892.a(cooja-radio.o)
                0x000000000002819c                simRadioHWOn
                0x00000000000281a0                simSignalStrength
                0x00000000000281a4                simLastSignalStrength
                0x00000000000281a8                simPower
                0x00000000000281ac                simRadioChannel
                0x00000000000281b0                cooja_radio_process
 .data          0x00000000000281c0       0x10 obj_cooja/mtype892.a(sensors.o)
                0x00000000000281c0                sensors_process
 .data          0x00000000000281d0        0x0 obj_cooja/mtype892.a(leds.o)
 .data          0x00000000000281d0        0x0 obj_cooja/mtype892.a(rimestats.o)
 .data          0x00000000000281d0        0x0 obj_cooja/mtype892.a(frame802154.o)
 .data          0x00000000000281d0        0x0 obj_cooja/mtype892.a(rpl.o)
 .data          0x00000000000281d0       0x14 obj_cooja/mtype892.a(rpl-dag.o)
 .data          0x00000000000281e4        0x1 obj_cooja/mtype892.a(rpl-icmp6.o)
 *fill*         0x00000000000281e5        0x3 00
 .data          0x00000000000281e8        0x0 obj_cooja/mtype892.a(rpl-timers.o)
 .data          0x00000000000281e8       0x1c obj_cooja/mtype892.a(rpl-mrhof.o)
                0x00000000000281e8                rpl_mrhof
 .data          0x0000000000028204        0x0 obj_cooja/mtype892.a(rpl-ext-header.)
 .data          0x0000000000028204        0x0 obj_cooja/mtype892.a(timer.o)
 .data          0x0000000000028204        0x0 obj_cooja/mtype892.a(rtimer.o)
 .data          0x0000000000028204        0x0 obj_cooja/mtype892.a(stimer.o)
 .data          0x0000000000028204       0x10 obj_cooja/mtype892.a(nbr-table.o)
 .data          0x0000000000028214        0x0 obj_cooja/mtype892.a(uip-icmp6.o)
 .data          0x0000000000028214        0x0 /usr/lib/gcc/i686-linux-gnu/4.6/crtendS.o
 .data          0x0000000000028214        0x0 /usr/lib/gcc/i686-linux-gnu/4.6/../../../i386-linux-gnu/crtn.o

.data1
 *(.data1)
                0x0000000000028214                _edata = .
                0x0000000000028214                PROVIDE (edata, .)
                0x0000000000028214                __bss_start = .

.bss            0x0000000000028220     0xf114
 *(.dynbss)
 .dynbss        0x0000000000000000        0x0 /usr/lib/gcc/i686-linux-gnu/4.6/../../../i386-linux-gnu/crti.o
 *(.bss .bss.* .gnu.linkonce.b.*)
 .bss           0x0000000000028220        0x0 /usr/lib/gcc/i686-linux-gnu/4.6/../../../i386-linux-gnu/crti.o
 .bss           0x0000000000028220        0x8 /usr/lib/gcc/i686-linux-gnu/4.6/crtbeginS.o
 *fill*         0x0000000000028228       0x18 00
 .bss           0x0000000000028240       0x4c desk-controller.co
 *fill*         0x000000000002828c       0x14 00
 .bss           0x00000000000282a0     0x2030 obj_cooja/mtype892.o
 .bss           0x000000000002a2d0        0x0 obj_cooja/mtype892.a(rimeaddr.o)
 *fill*         0x000000000002a2d0       0x10 00
 .bss           0x000000000002a2e0       0x48 obj_cooja/mtype892.a(nullrdc.o)
 .bss           0x000000000002a328        0x0 obj_cooja/mtype892.a(mac.o)
 .bss           0x000000000002a328        0x2 obj_cooja/mtype892.a(framer-802154.o)
 *fill*         0x000000000002a32a       0x16 00
 .bss           0x000000000002a340      0x246 obj_cooja/mtype892.a(csma.o)
 *fill*         0x000000000002a586       0x1a 00
 .bss           0x000000000002a5a0      0x1b0 obj_cooja/mtype892.a(process.o)
                0x000000000002a5a0                process_list
                0x000000000002a5a4                process_current
 .bss           0x000000000002a750        0x0 obj_cooja/mtype892.a(autostart.o)
 *fill*         0x000000000002a750       0x10 00
 .bss           0x000000000002a760      0x141 obj_cooja/mtype892.a(serial-line.o)
 *fill*         0x000000000002a8a1        0x3 00
 .bss           0x000000000002a8a4        0x0 obj_cooja/mtype892.a(memb.o)
 .bss           0x000000000002a8a4        0x0 obj_cooja/mtype892.a(list.o)
 .bss           0x000000000002a8a4        0x8 obj_cooja/mtype892.a(etimer.o)
 .bss           0x000000000002a8ac        0x5 obj_cooja/mtype892.a(ctimer.o)
 *fill*         0x000000000002a8b1        0x3 00
 .bss           0x000000000002a8b4        0x0 obj_cooja/mtype892.a(energest.o)
 .bss           0x000000000002a8b4        0x0 obj_cooja/mtype892.a(random.o)
 .bss           0x000000000002a8b4        0x0 obj_cooja/mtype892.a(ringbuf.o)
 .bss           0x000000000002a8b4        0x0 obj_cooja/mtype892.a(netstack.o)
 *fill*         0x000000000002a8b4        0xc 00
 .bss           0x000000000002a8c0       0xd8 obj_cooja/mtype892.a(packetbuf.o)
 *fill*         0x000000000002a998        0x8 00
 .bss           0x000000000002a9a0      0xe40 obj_cooja/mtype892.a(queuebuf.o)
 .bss           0x000000000002b7e0      0x140 obj_cooja/mtype892.a(sicslowpan.o)
 .bss           0x000000000002b920      0x110 obj_cooja/mtype892.a(simple-udp.o)
 *fill*         0x000000000002ba30       0x10 00
 .bss           0x000000000002ba40       0x6f obj_cooja/mtype892.a(tcpip.o)
 *fill*         0x000000000002baaf        0x1 00
 .bss           0x000000000002bab0        0x0 obj_cooja/mtype892.a(uip-debug.o)
 *fill*         0x000000000002bab0       0x10 00
 .bss           0x000000000002bac0     0x39e8 obj_cooja/mtype892.a(uip-ds6-route.o)
 *fill*         0x000000000002f4a8       0x18 00
 .bss           0x000000000002f4c0     0x2ee0 obj_cooja/mtype892.a(uip-ds6-nbr.o)
 .bss           0x00000000000323a0       0x20 obj_cooja/mtype892.a(uip-ds6.o)
 .bss           0x00000000000323c0       0x14 obj_cooja/mtype892.a(uip-nd6.o)
 *fill*         0x00000000000323d4        0xc 00
 .bss           0x00000000000323e0      0x258 obj_cooja/mtype892.a(uip-packetqueue)
 .bss           0x0000000000032638        0x0 obj_cooja/mtype892.a(uip-udp-packet.)
 .bss           0x0000000000032638        0xe obj_cooja/mtype892.a(uip6.o)
                0x0000000000032638                uip_ext_bitmap
                0x0000000000032639                uip_ext_len
                0x000000000003263a                uip_ext_opt_offset
 *fill*         0x0000000000032646       0x1a 00
 .bss           0x0000000000032660      0x24c obj_cooja/mtype892.a(servreg-hack.o)
 .bss           0x00000000000328ac        0x1 obj_cooja/mtype892.a(simEnvChange.o)
                0x00000000000328ac                simDontFallAsleep
 *fill*         0x00000000000328ad        0x3 00
 .bss           0x00000000000328b0        0x4 obj_cooja/mtype892.a(cooja_mt.o)
 .bss           0x00000000000328b4        0x4 obj_cooja/mtype892.a(cooja_mtarch.o)
 .bss           0x00000000000328b8        0xc obj_cooja/mtype892.a(rtimer-arch.o)
 .bss           0x00000000000328c4        0x0 obj_cooja/mtype892.a(watchdog.o)
 .bss           0x00000000000328c4        0x0 obj_cooja/mtype892.a(beep.o)
 .bss           0x00000000000328c4        0x8 obj_cooja/mtype892.a(button-sensor.o)
 .bss           0x00000000000328cc        0x0 obj_cooja/mtype892.a(leds-arch.o)
 .bss           0x00000000000328cc        0x0 obj_cooja/mtype892.a(moteid.o)
 .bss           0x00000000000328cc        0x1 obj_cooja/mtype892.a(pir-sensor.o)
                0x00000000000328cc                simPirValue
 *fill*         0x00000000000328cd        0x3 00
 .bss           0x00000000000328d0        0x4 obj_cooja/mtype892.a(rs232.o)
 .bss           0x00000000000328d4        0x1 obj_cooja/mtype892.a(vib-sensor.o)
                0x00000000000328d4                simVibValue
 *fill*         0x00000000000328d5        0x3 00
 .bss           0x00000000000328d8        0x0 obj_cooja/mtype892.a(clock.o)
 *fill*         0x00000000000328d8        0x8 00
 .bss           0x00000000000328e0      0x421 obj_cooja/mtype892.a(log.o)
 *fill*         0x0000000000032d01       0x1f 00
 .bss           0x0000000000032d20      0xfbc obj_cooja/mtype892.a(cfs-cooja.o)
                0x0000000000032d20                simCFSData
                0x0000000000033cc0                simCFSChanged
                0x0000000000033cc4                simCFSRead
                0x0000000000033cc8                simCFSWritten
 .bss           0x0000000000033cdc       0x10 obj_cooja/mtype892.a(cooja-radio.o)
                0x0000000000033cdc                simReceiving
                0x0000000000033ce0                simInSize
                0x0000000000033ce4                simOutSize
 .bss           0x0000000000033cec        0xc obj_cooja/mtype892.a(sensors.o)
 .bss           0x0000000000033cf8        0x2 obj_cooja/mtype892.a(leds.o)
 *fill*         0x0000000000033cfa        0x2 00
 .bss           0x0000000000033cfc        0x0 obj_cooja/mtype892.a(rimestats.o)
 .bss           0x0000000000033cfc        0x0 obj_cooja/mtype892.a(frame802154.o)
 .bss           0x0000000000033cfc        0x0 obj_cooja/mtype892.a(rpl.o)
 *fill*         0x0000000000033cfc        0x4 00
 .bss           0x0000000000033d00     0x12c0 obj_cooja/mtype892.a(rpl-dag.o)
 .bss           0x0000000000034fc0        0x0 obj_cooja/mtype892.a(rpl-icmp6.o)
 .bss           0x0000000000034fc0       0x23 obj_cooja/mtype892.a(rpl-timers.o)
 *fill*         0x0000000000034fe3        0x1 00
 .bss           0x0000000000034fe4        0x0 obj_cooja/mtype892.a(rpl-mrhof.o)
 .bss           0x0000000000034fe4        0x0 obj_cooja/mtype892.a(rpl-ext-header.)
 .bss           0x0000000000034fe4        0x0 obj_cooja/mtype892.a(timer.o)
 .bss           0x0000000000034fe4        0x4 obj_cooja/mtype892.a(rtimer.o)
 .bss           0x0000000000034fe8        0x0 obj_cooja/mtype892.a(stimer.o)
 *fill*         0x0000000000034fe8       0x18 00
 .bss           0x0000000000035000     0x1214 obj_cooja/mtype892.a(nbr-table.o)
 .bss           0x0000000000036214       0x10 obj_cooja/mtype892.a(uip-icmp6.o)
 .bss           0x0000000000036224        0x0 /usr/lib/gcc/i686-linux-gnu/4.6/crtendS.o
 .bss           0x0000000000036224        0x0 /usr/lib/gcc/i686-linux-gnu/4.6/../../../i386-linux-gnu/crtn.o
 *(COMMON)
 COMMON         0x0000000000036224        0x8 obj_cooja/mtype892.o
                0x0000000000036224                referenceVar
                0x0000000000036228                sensors_flags
 COMMON         0x000000000003622c        0x8 obj_cooja/mtype892.a(rimeaddr.o)
                0x000000000003622c                rimeaddr_node_addr
 COMMON         0x0000000000036234        0x1 obj_cooja/mtype892.a(serial-line.o)
                0x0000000000036234                serial_line_event_message
 *fill*         0x0000000000036235        0xb 00
 COMMON         0x0000000000036240       0x60 obj_cooja/mtype892.a(packetbuf.o)
                0x0000000000036240                packetbuf_attrs
                0x0000000000036280                packetbuf_addrs
 COMMON         0x00000000000362a0        0x8 obj_cooja/mtype892.a(sicslowpan.o)
                0x00000000000362a0                frag_sender
 COMMON         0x00000000000362a8        0x1 obj_cooja/mtype892.a(tcpip.o)
                0x00000000000362a8                tcpip_event
 *fill*         0x00000000000362a9       0x17 00
 COMMON         0x00000000000362c0      0x181 obj_cooja/mtype892.a(uip-ds6.o)
                0x00000000000362c0                uip_ds6_prefix_list
                0x0000000000036320                uip_ds6_timer_periodic
                0x0000000000036330                uip_ds6_netif_addr_list_offset
                0x0000000000036340                uip_ds6_if
                0x0000000000036438                uip_ds6_timer_ra
                0x0000000000036440                uip_ds6_addr_size
 *fill*         0x0000000000036441       0x1f 00
 COMMON         0x0000000000036460      0x3ac obj_cooja/mtype892.a(uip6.o)
                0x0000000000036460                uip_slen
                0x0000000000036462                uip_acc32
                0x0000000000036480                uip_conns
                0x0000000000036540                uip_lladdr
                0x0000000000036548                uip_appdata
                0x000000000003654c                uip_flags
                0x0000000000036560                uip_aligned_buf
                0x0000000000036650                uip_listenports
                0x0000000000036660                uip_len
                0x0000000000036664                uip_sappdata
                0x0000000000036680                uip_udp_conns
                0x0000000000036800                uip_udp_conn
                0x0000000000036804                uip_next_hdr
                0x0000000000036808                uip_conn
 COMMON         0x000000000003680c        0xc obj_cooja/mtype892.a(simEnvChange.o)
                0x000000000003680c                simEtimerPending
                0x0000000000036810                simProcessRunValue
                0x0000000000036814                simNextExpirationTime
 COMMON         0x0000000000036818        0x1 obj_cooja/mtype892.a(beep.o)
                0x0000000000036818                simBeeped
 COMMON         0x0000000000036819        0x3 obj_cooja/mtype892.a(button-sensor.o)
                0x0000000000036819                simButtonIsActive
                0x000000000003681a                simButtonIsDown
                0x000000000003681b                simButtonChanged
 COMMON         0x000000000003681c        0x1 obj_cooja/mtype892.a(leds-arch.o)
                0x000000000003681c                simLedsValue
 *fill*         0x000000000003681d        0x3 00
 COMMON         0x0000000000036820        0xc obj_cooja/mtype892.a(moteid.o)
                0x0000000000036820                simRandomSeed
                0x0000000000036824                simMoteIDChanged
                0x0000000000036828                simMoteID
 COMMON         0x000000000003682c        0x2 obj_cooja/mtype892.a(pir-sensor.o)
                0x000000000003682c                simPirIsActive
                0x000000000003682d                simPirChanged
 *fill*         0x000000000003682e       0x12 00
 COMMON         0x0000000000036840      0x420 obj_cooja/mtype892.a(rs232.o)
                0x0000000000036840                simSerialReceivingFlag
                0x0000000000036844                simSerialReceivingLength
                0x0000000000036860                simSerialReceivingData
 COMMON         0x0000000000036c60        0x2 obj_cooja/mtype892.a(vib-sensor.o)
                0x0000000000036c60                simVibChanged
                0x0000000000036c61                simVibIsActive
 *fill*         0x0000000000036c62        0x2 00
 COMMON         0x0000000000036c64        0x4 obj_cooja/mtype892.a(clock.o)
                0x0000000000036c64                simCurrentTime
 *fill*         0x0000000000036c68       0x18 00
 COMMON         0x0000000000036c80      0x420 obj_cooja/mtype892.a(log.o)
                0x0000000000036c80                simLoggedLength
                0x0000000000036c84                simLoggedFlag
                0x0000000000036ca0                simLoggedData
 COMMON         0x00000000000370a0      0x100 obj_cooja/mtype892.a(cooja-radio.o)
                0x00000000000370a0                simOutDataBuffer
                0x0000000000037120                simInDataBuffer
 COMMON         0x00000000000371a0        0x1 obj_cooja/mtype892.a(sensors.o)
                0x00000000000371a0                sensors_event
 *fill*         0x00000000000371a1       0x1f 00
 COMMON         0x00000000000371c0       0x48 obj_cooja/mtype892.a(rimestats.o)
                0x00000000000371c0                rimestats
 *fill*         0x0000000000037208       0x18 00
 COMMON         0x0000000000037220      0x114 obj_cooja/mtype892.a(rpl-dag.o)
                0x0000000000037220                default_instance
                0x0000000000037240                instance_table
                0x0000000000037334                . = ALIGN ((. != 0x0)?0x4:0x1)
                0x0000000000037334                . = ALIGN (0x4)
                0x0000000000037334                . = ALIGN (0x4)
                0x0000000000037334                _end = .
                0x0000000000037334                PROVIDE (end, .)
                0x0000000000037334                . = DATA_SEGMENT_END (.)

.stab
 *(.stab)

.stabstr
 *(.stabstr)

.stab.excl
 *(.stab.excl)

.stab.exclstr
 *(.stab.exclstr)

.stab.index
 *(.stab.index)

.stab.indexstr
 *(.stab.indexstr)

.comment        0x0000000000000000       0x2a
 *(.comment)
 .comment       0x0000000000000000       0x2a /usr/lib/gcc/i686-linux-gnu/4.6/crtbeginS.o
                                         0x2b (size before relaxing)
 .comment       0x0000000000000000       0x2b desk-controller.co
 .comment       0x0000000000000000       0x2b obj_cooja/mtype892.o
 .comment       0x0000000000000000       0x2b obj_cooja/mtype892.a(rimeaddr.o)
 .comment       0x0000000000000000       0x2b obj_cooja/mtype892.a(nullrdc.o)
 .comment       0x0000000000000000       0x2b obj_cooja/mtype892.a(mac.o)
 .comment       0x0000000000000000       0x2b obj_cooja/mtype892.a(framer-802154.o)
 .comment       0x0000000000000000       0x2b obj_cooja/mtype892.a(csma.o)
 .comment       0x0000000000000000       0x2b obj_cooja/mtype892.a(process.o)
 .comment       0x0000000000000000       0x2b obj_cooja/mtype892.a(autostart.o)
 .comment       0x0000000000000000       0x2b obj_cooja/mtype892.a(serial-line.o)
 .comment       0x0000000000000000       0x2b obj_cooja/mtype892.a(memb.o)
 .comment       0x0000000000000000       0x2b obj_cooja/mtype892.a(list.o)
 .comment       0x0000000000000000       0x2b obj_cooja/mtype892.a(etimer.o)
 .comment       0x0000000000000000       0x2b obj_cooja/mtype892.a(ctimer.o)
 .comment       0x0000000000000000       0x2b obj_cooja/mtype892.a(energest.o)
 .comment       0x0000000000000000       0x2b obj_cooja/mtype892.a(random.o)
 .comment       0x0000000000000000       0x2b obj_cooja/mtype892.a(ringbuf.o)
 .comment       0x0000000000000000       0x2b obj_cooja/mtype892.a(netstack.o)
 .comment       0x0000000000000000       0x2b obj_cooja/mtype892.a(packetbuf.o)
 .comment       0x0000000000000000       0x2b obj_cooja/mtype892.a(queuebuf.o)
 .comment       0x0000000000000000       0x2b obj_cooja/mtype892.a(sicslowpan.o)
 .comment       0x0000000000000000       0x2b obj_cooja/mtype892.a(simple-udp.o)
 .comment       0x0000000000000000       0x2b obj_cooja/mtype892.a(tcpip.o)
 .comment       0x0000000000000000       0x2b obj_cooja/mtype892.a(uip-debug.o)
 .comment       0x0000000000000000       0x2b obj_cooja/mtype892.a(uip-ds6-route.o)
 .comment       0x0000000000000000       0x2b obj_cooja/mtype892.a(uip-ds6-nbr.o)
 .comment       0x0000000000000000       0x2b obj_cooja/mtype892.a(uip-ds6.o)
 .comment       0x0000000000000000       0x2b obj_cooja/mtype892.a(uip-nd6.o)
 .comment       0x0000000000000000       0x2b obj_cooja/mtype892.a(uip-packetqueue)
 .comment       0x0000000000000000       0x2b obj_cooja/mtype892.a(uip-udp-packet.)
 .comment       0x0000000000000000       0x2b obj_cooja/mtype892.a(uip6.o)
 .comment       0x0000000000000000       0x2b obj_cooja/mtype892.a(servreg-hack.o)
 .comment       0x0000000000000000       0x2b obj_cooja/mtype892.a(simEnvChange.o)
 .comment       0x0000000000000000       0x2b obj_cooja/mtype892.a(cooja_mt.o)
 .comment       0x0000000000000000       0x2b obj_cooja/mtype892.a(cooja_mtarch.o)
 .comment       0x0000000000000000       0x2b obj_cooja/mtype892.a(rtimer-arch.o)
 .comment       0x0000000000000000       0x2b obj_cooja/mtype892.a(watchdog.o)
 .comment       0x0000000000000000       0x2b obj_cooja/mtype892.a(beep.o)
 .comment       0x0000000000000000       0x2b obj_cooja/mtype892.a(button-sensor.o)
 .comment       0x0000000000000000       0x2b obj_cooja/mtype892.a(leds-arch.o)
 .comment       0x0000000000000000       0x2b obj_cooja/mtype892.a(moteid.o)
 .comment       0x0000000000000000       0x2b obj_cooja/mtype892.a(pir-sensor.o)
 .comment       0x0000000000000000       0x2b obj_cooja/mtype892.a(rs232.o)
 .comment       0x0000000000000000       0x2b obj_cooja/mtype892.a(vib-sensor.o)
 .comment       0x0000000000000000       0x2b obj_cooja/mtype892.a(clock.o)
 .comment       0x0000000000000000       0x2b obj_cooja/mtype892.a(log.o)
 .comment       0x0000000000000000       0x2b obj_cooja/mtype892.a(cfs-cooja.o)
 .comment       0x0000000000000000       0x2b obj_cooja/mtype892.a(cooja-radio.o)
 .comment       0x0000000000000000       0x2b obj_cooja/mtype892.a(sensors.o)
 .comment       0x0000000000000000       0x2b obj_cooja/mtype892.a(leds.o)
 .comment       0x0000000000000000       0x2b obj_cooja/mtype892.a(rimestats.o)
 .comment       0x0000000000000000       0x2b obj_cooja/mtype892.a(frame802154.o)
 .comment       0x0000000000000000       0x2b obj_cooja/mtype892.a(rpl.o)
 .comment       0x0000000000000000       0x2b obj_cooja/mtype892.a(rpl-dag.o)
 .comment       0x0000000000000000       0x2b obj_cooja/mtype892.a(rpl-icmp6.o)
 .comment       0x0000000000000000       0x2b obj_cooja/mtype892.a(rpl-timers.o)
 .comment       0x0000000000000000       0x2b obj_cooja/mtype892.a(rpl-mrhof.o)
 .comment       0x0000000000000000       0x2b obj_cooja/mtype892.a(rpl-ext-header.)
 .comment       0x0000000000000000       0x2b obj_cooja/mtype892.a(timer.o)
 .comment       0x0000000000000000       0x2b obj_cooja/mtype892.a(rtimer.o)
 .comment       0x0000000000000000       0x2b obj_cooja/mtype892.a(stimer.o)
 .comment       0x0000000000000000       0x2b obj_cooja/mtype892.a(nbr-table.o)
 .comment       0x0000000000000000       0x2b obj_cooja/mtype892.a(uip-icmp6.o)
 .comment       0x0000000000000000       0x2b /usr/lib/gcc/i686-linux-gnu/4.6/crtendS.o

.debug
 *(.debug)

.line
 *(.line)

.debug_srcinfo
 *(.debug_srcinfo)

.debug_sfnames
 *(.debug_sfnames)

.debug_aranges  0x0000000000000000     0x16e8
 *(.debug_aranges)
 .debug_aranges
                0x0000000000000000       0x30 desk-controller.co
 .debug_aranges
                0x0000000000000030       0x68 obj_cooja/mtype892.o
 .debug_aranges
                0x0000000000000098       0x30 obj_cooja/mtype892.a(rimeaddr.o)
 .debug_aranges
                0x00000000000000c8       0x78 obj_cooja/mtype892.a(nullrdc.o)
 .debug_aranges
                0x0000000000000140       0x20 obj_cooja/mtype892.a(mac.o)
 .debug_aranges
                0x0000000000000160       0x50 obj_cooja/mtype892.a(framer-802154.o)
 .debug_aranges
                0x00000000000001b0       0x88 obj_cooja/mtype892.a(csma.o)
 .debug_aranges
                0x0000000000000238       0x88 obj_cooja/mtype892.a(process.o)
 .debug_aranges
                0x00000000000002c0       0x28 obj_cooja/mtype892.a(autostart.o)
 .debug_aranges
                0x00000000000002e8       0x30 obj_cooja/mtype892.a(serial-line.o)
 .debug_aranges
                0x0000000000000318       0x38 obj_cooja/mtype892.a(memb.o)
 .debug_aranges
                0x0000000000000350       0x78 obj_cooja/mtype892.a(list.o)
 .debug_aranges
                0x00000000000003c8       0x88 obj_cooja/mtype892.a(etimer.o)
 .debug_aranges
                0x0000000000000450       0x50 obj_cooja/mtype892.a(ctimer.o)
 .debug_aranges
                0x00000000000004a0       0x38 obj_cooja/mtype892.a(energest.o)
 .debug_aranges
                0x00000000000004d8       0x28 obj_cooja/mtype892.a(random.o)
 .debug_aranges
                0x0000000000000500       0x40 obj_cooja/mtype892.a(ringbuf.o)
 .debug_aranges
                0x0000000000000540       0x20 obj_cooja/mtype892.a(netstack.o)
 .debug_aranges
                0x0000000000000560       0xc0 obj_cooja/mtype892.a(packetbuf.o)
 .debug_aranges
                0x0000000000000620       0x70 obj_cooja/mtype892.a(queuebuf.o)
 .debug_aranges
                0x0000000000000690       0xa8 obj_cooja/mtype892.a(sicslowpan.o)
 .debug_aranges
                0x0000000000000738       0x48 obj_cooja/mtype892.a(simple-udp.o)
 .debug_aranges
                0x0000000000000780       0xb0 obj_cooja/mtype892.a(tcpip.o)
 .debug_aranges
                0x0000000000000830       0x28 obj_cooja/mtype892.a(uip-debug.o)
 .debug_aranges
                0x0000000000000858       0xb8 obj_cooja/mtype892.a(uip-ds6-route.o)
 .debug_aranges
                0x0000000000000910       0x88 obj_cooja/mtype892.a(uip-ds6-nbr.o)
 .debug_aranges
                0x0000000000000998       0xc8 obj_cooja/mtype892.a(uip-ds6.o)
 .debug_aranges
                0x0000000000000a60       0x38 obj_cooja/mtype892.a(uip-nd6.o)
 .debug_aranges
                0x0000000000000a98       0x50 obj_cooja/mtype892.a(uip-packetqueue)
 .debug_aranges
                0x0000000000000ae8       0x28 obj_cooja/mtype892.a(uip-udp-packet.)
 .debug_aranges
                0x0000000000000b10       0xb0 obj_cooja/mtype892.a(uip6.o)
 .debug_aranges
                0x0000000000000bc0       0x70 obj_cooja/mtype892.a(servreg-hack.o)
 .debug_aranges
                0x0000000000000c30       0x28 obj_cooja/mtype892.a(simEnvChange.o)
 .debug_aranges
                0x0000000000000c58       0x48 obj_cooja/mtype892.a(cooja_mt.o)
 .debug_aranges
                0x0000000000000ca0       0x60 obj_cooja/mtype892.a(cooja_mtarch.o)
 .debug_aranges
                0x0000000000000d00       0x48 obj_cooja/mtype892.a(rtimer-arch.o)
 .debug_aranges
                0x0000000000000d48       0x40 obj_cooja/mtype892.a(watchdog.o)
 .debug_aranges
                0x0000000000000d88       0x70 obj_cooja/mtype892.a(beep.o)
 .debug_aranges
                0x0000000000000df8       0x40 obj_cooja/mtype892.a(button-sensor.o)
 .debug_aranges
                0x0000000000000e38       0x40 obj_cooja/mtype892.a(leds-arch.o)
 .debug_aranges
                0x0000000000000e78       0x28 obj_cooja/mtype892.a(moteid.o)
 .debug_aranges
                0x0000000000000ea0       0x40 obj_cooja/mtype892.a(pir-sensor.o)
 .debug_aranges
                0x0000000000000ee0       0x58 obj_cooja/mtype892.a(rs232.o)
 .debug_aranges
                0x0000000000000f38       0x40 obj_cooja/mtype892.a(vib-sensor.o)
 .debug_aranges
                0x0000000000000f78       0x48 obj_cooja/mtype892.a(clock.o)
 .debug_aranges
                0x0000000000000fc0       0x60 obj_cooja/mtype892.a(log.o)
 .debug_aranges
                0x0000000000001020       0x70 obj_cooja/mtype892.a(cfs-cooja.o)
 .debug_aranges
                0x0000000000001090       0xa0 obj_cooja/mtype892.a(cooja-radio.o)
 .debug_aranges
                0x0000000000001130       0x48 obj_cooja/mtype892.a(sensors.o)
 .debug_aranges
                0x0000000000001178       0x58 obj_cooja/mtype892.a(leds.o)
 .debug_aranges
                0x00000000000011d0       0x40 obj_cooja/mtype892.a(frame802154.o)
 .debug_aranges
                0x0000000000001210       0x50 obj_cooja/mtype892.a(rpl.o)
 .debug_aranges
                0x0000000000001260      0x168 obj_cooja/mtype892.a(rpl-dag.o)
 .debug_aranges
                0x00000000000013c8       0x98 obj_cooja/mtype892.a(rpl-icmp6.o)
 .debug_aranges
                0x0000000000001460       0x50 obj_cooja/mtype892.a(rpl-timers.o)
 .debug_aranges
                0x00000000000014b0       0x50 obj_cooja/mtype892.a(rpl-mrhof.o)
 .debug_aranges
                0x0000000000001500       0x50 obj_cooja/mtype892.a(rpl-ext-header.)
 .debug_aranges
                0x0000000000001550       0x40 obj_cooja/mtype892.a(timer.o)
 .debug_aranges
                0x0000000000001590       0x30 obj_cooja/mtype892.a(rtimer.o)
 .debug_aranges
                0x00000000000015c0       0x48 obj_cooja/mtype892.a(stimer.o)
 .debug_aranges
                0x0000000000001608       0xb0 obj_cooja/mtype892.a(nbr-table.o)
 .debug_aranges
                0x00000000000016b8       0x30 obj_cooja/mtype892.a(uip-icmp6.o)

.debug_pubnames
 *(.debug_pubnames)

.debug_info     0x0000000000000000    0x1ab99
 *(.debug_info .gnu.linkonce.wi.*)
 .debug_info    0x0000000000000000      0x88e desk-controller.co
 .debug_info    0x000000000000088e     0x3acc obj_cooja/mtype892.o
 .debug_info    0x000000000000435a      0x169 obj_cooja/mtype892.a(rimeaddr.o)
 .debug_info    0x00000000000044c3      0xc1d obj_cooja/mtype892.a(nullrdc.o)
 .debug_info    0x00000000000050e0      0x114 obj_cooja/mtype892.a(mac.o)
 .debug_info    0x00000000000051f4      0x5f3 obj_cooja/mtype892.a(framer-802154.o)
 .debug_info    0x00000000000057e7      0xb66 obj_cooja/mtype892.a(csma.o)
 .debug_info    0x000000000000634d      0x502 obj_cooja/mtype892.a(process.o)
 .debug_info    0x000000000000684f      0x1b9 obj_cooja/mtype892.a(autostart.o)
 .debug_info    0x0000000000006a08      0x2f6 obj_cooja/mtype892.a(serial-line.o)
 .debug_info    0x0000000000006cfe      0x1a5 obj_cooja/mtype892.a(memb.o)
 .debug_info    0x0000000000006ea3      0x323 obj_cooja/mtype892.a(list.o)
 .debug_info    0x00000000000071c6      0x4b5 obj_cooja/mtype892.a(etimer.o)
 .debug_info    0x000000000000767b      0x457 obj_cooja/mtype892.a(ctimer.o)
 .debug_info    0x0000000000007ad2       0xf5 obj_cooja/mtype892.a(energest.o)
 .debug_info    0x0000000000007bc7       0xb8 obj_cooja/mtype892.a(random.o)
 .debug_info    0x0000000000007c7f      0x1c3 obj_cooja/mtype892.a(ringbuf.o)
 .debug_info    0x0000000000007e42      0x3ba obj_cooja/mtype892.a(netstack.o)
 .debug_info    0x00000000000081fc      0x5ba obj_cooja/mtype892.a(packetbuf.o)
 .debug_info    0x00000000000087b6      0x69e obj_cooja/mtype892.a(queuebuf.o)
 .debug_info    0x0000000000008e54      0xe63 obj_cooja/mtype892.a(sicslowpan.o)
 .debug_info    0x0000000000009cb7      0x77e obj_cooja/mtype892.a(simple-udp.o)
 .debug_info    0x000000000000a435     0x1745 obj_cooja/mtype892.a(tcpip.o)
 .debug_info    0x000000000000bb7a      0x1bc obj_cooja/mtype892.a(uip-debug.o)
 .debug_info    0x000000000000bd36      0xcb3 obj_cooja/mtype892.a(uip-ds6-route.o)
 .debug_info    0x000000000000c9e9      0xb92 obj_cooja/mtype892.a(uip-ds6-nbr.o)
 .debug_info    0x000000000000d57b      0xafa obj_cooja/mtype892.a(uip-ds6.o)
 .debug_info    0x000000000000e075      0x9e2 obj_cooja/mtype892.a(uip-nd6.o)
 .debug_info    0x000000000000ea57      0x4c0 obj_cooja/mtype892.a(uip-packetqueue)
 .debug_info    0x000000000000ef17      0x398 obj_cooja/mtype892.a(uip-udp-packet.)
 .debug_info    0x000000000000f2af      0xf2a obj_cooja/mtype892.a(uip6.o)
 .debug_info    0x00000000000101d9      0x874 obj_cooja/mtype892.a(servreg-hack.o)
 .debug_info    0x0000000000010a4d      0x168 obj_cooja/mtype892.a(simEnvChange.o)
 .debug_info    0x0000000000010bb5      0x1fd obj_cooja/mtype892.a(cooja_mt.o)
 .debug_info    0x0000000000010db2      0x32b obj_cooja/mtype892.a(cooja_mtarch.o)
 .debug_info    0x00000000000110dd      0x186 obj_cooja/mtype892.a(rtimer-arch.o)
 .debug_info    0x0000000000011263       0x93 obj_cooja/mtype892.a(watchdog.o)
 .debug_info    0x00000000000112f6      0x221 obj_cooja/mtype892.a(beep.o)
 .debug_info    0x0000000000011517      0x27b obj_cooja/mtype892.a(button-sensor.o)
 .debug_info    0x0000000000011792      0x148 obj_cooja/mtype892.a(leds-arch.o)
 .debug_info    0x00000000000118da      0x116 obj_cooja/mtype892.a(moteid.o)
 .debug_info    0x00000000000119f0      0x236 obj_cooja/mtype892.a(pir-sensor.o)
 .debug_info    0x0000000000011c26      0x252 obj_cooja/mtype892.a(rs232.o)
 .debug_info    0x0000000000011e78      0x236 obj_cooja/mtype892.a(vib-sensor.o)
 .debug_info    0x00000000000120ae      0x16c obj_cooja/mtype892.a(clock.o)
 .debug_info    0x000000000001221a      0x2e3 obj_cooja/mtype892.a(log.o)
 .debug_info    0x00000000000124fd      0x416 obj_cooja/mtype892.a(cfs-cooja.o)
 .debug_info    0x0000000000012913      0x983 obj_cooja/mtype892.a(cooja-radio.o)
 .debug_info    0x0000000000013296      0x398 obj_cooja/mtype892.a(sensors.o)
 .debug_info    0x000000000001362e      0x1c4 obj_cooja/mtype892.a(leds.o)
 .debug_info    0x00000000000137f2      0x146 obj_cooja/mtype892.a(rimestats.o)
 .debug_info    0x0000000000013938      0x46f obj_cooja/mtype892.a(frame802154.o)
 .debug_info    0x0000000000013da7      0xce9 obj_cooja/mtype892.a(rpl.o)
 .debug_info    0x0000000000014a90     0x1860 obj_cooja/mtype892.a(rpl-dag.o)
 .debug_info    0x00000000000162f0     0x1595 obj_cooja/mtype892.a(rpl-icmp6.o)
 .debug_info    0x0000000000017885      0x9a9 obj_cooja/mtype892.a(rpl-timers.o)
 .debug_info    0x000000000001822e      0xa54 obj_cooja/mtype892.a(rpl-mrhof.o)
 .debug_info    0x0000000000018c82      0xce4 obj_cooja/mtype892.a(rpl-ext-header.)
 .debug_info    0x0000000000019966      0x181 obj_cooja/mtype892.a(timer.o)
 .debug_info    0x0000000000019ae7      0x1bb obj_cooja/mtype892.a(rtimer.o)
 .debug_info    0x0000000000019ca2      0x192 obj_cooja/mtype892.a(stimer.o)
 .debug_info    0x0000000000019e34      0x847 obj_cooja/mtype892.a(nbr-table.o)
 .debug_info    0x000000000001a67b      0x51e obj_cooja/mtype892.a(uip-icmp6.o)

.debug_abbrev   0x0000000000000000     0x5a91
 *(.debug_abbrev)
 .debug_abbrev  0x0000000000000000      0x1be desk-controller.co
 .debug_abbrev  0x00000000000001be      0x28d obj_cooja/mtype892.o
 .debug_abbrev  0x000000000000044b       0xd4 obj_cooja/mtype892.a(rimeaddr.o)
 .debug_abbrev  0x000000000000051f      0x2c4 obj_cooja/mtype892.a(nullrdc.o)
 .debug_abbrev  0x00000000000007e3       0xa2 obj_cooja/mtype892.a(mac.o)
 .debug_abbrev  0x0000000000000885      0x1b9 obj_cooja/mtype892.a(framer-802154.o)
 .debug_abbrev  0x0000000000000a3e      0x2b5 obj_cooja/mtype892.a(csma.o)
 .debug_abbrev  0x0000000000000cf3      0x1fd obj_cooja/mtype892.a(process.o)
 .debug_abbrev  0x0000000000000ef0       0xf7 obj_cooja/mtype892.a(autostart.o)
 .debug_abbrev  0x0000000000000fe7      0x190 obj_cooja/mtype892.a(serial-line.o)
 .debug_abbrev  0x0000000000001177       0xdd obj_cooja/mtype892.a(memb.o)
 .debug_abbrev  0x0000000000001254      0x11e obj_cooja/mtype892.a(list.o)
 .debug_abbrev  0x0000000000001372      0x1ce obj_cooja/mtype892.a(etimer.o)
 .debug_abbrev  0x0000000000001540      0x197 obj_cooja/mtype892.a(ctimer.o)
 .debug_abbrev  0x00000000000016d7       0x8f obj_cooja/mtype892.a(energest.o)
 .debug_abbrev  0x0000000000001766       0x69 obj_cooja/mtype892.a(random.o)
 .debug_abbrev  0x00000000000017cf       0xd4 obj_cooja/mtype892.a(ringbuf.o)
 .debug_abbrev  0x00000000000018a3       0xdc obj_cooja/mtype892.a(netstack.o)
 .debug_abbrev  0x000000000000197f      0x1c0 obj_cooja/mtype892.a(packetbuf.o)
 .debug_abbrev  0x0000000000001b3f      0x1b8 obj_cooja/mtype892.a(queuebuf.o)
 .debug_abbrev  0x0000000000001cf7      0x27e obj_cooja/mtype892.a(sicslowpan.o)
 .debug_abbrev  0x0000000000001f75      0x1ea obj_cooja/mtype892.a(simple-udp.o)
 .debug_abbrev  0x000000000000215f      0x2e9 obj_cooja/mtype892.a(tcpip.o)
 .debug_abbrev  0x0000000000002448       0xca obj_cooja/mtype892.a(uip-debug.o)
 .debug_abbrev  0x0000000000002512      0x289 obj_cooja/mtype892.a(uip-ds6-route.o)
 .debug_abbrev  0x000000000000279b      0x27d obj_cooja/mtype892.a(uip-ds6-nbr.o)
 .debug_abbrev  0x0000000000002a18      0x1ea obj_cooja/mtype892.a(uip-ds6.o)
 .debug_abbrev  0x0000000000002c02      0x214 obj_cooja/mtype892.a(uip-nd6.o)
 .debug_abbrev  0x0000000000002e16      0x17f obj_cooja/mtype892.a(uip-packetqueue)
 .debug_abbrev  0x0000000000002f95      0x18b obj_cooja/mtype892.a(uip-udp-packet.)
 .debug_abbrev  0x0000000000003120      0x25b obj_cooja/mtype892.a(uip6.o)
 .debug_abbrev  0x000000000000337b      0x263 obj_cooja/mtype892.a(servreg-hack.o)
 .debug_abbrev  0x00000000000035de       0xc2 obj_cooja/mtype892.a(simEnvChange.o)
 .debug_abbrev  0x00000000000036a0       0xe2 obj_cooja/mtype892.a(cooja_mt.o)
 .debug_abbrev  0x0000000000003782      0x128 obj_cooja/mtype892.a(cooja_mtarch.o)
 .debug_abbrev  0x00000000000038aa       0xab obj_cooja/mtype892.a(rtimer-arch.o)
 .debug_abbrev  0x0000000000003955       0x2b obj_cooja/mtype892.a(watchdog.o)
 .debug_abbrev  0x0000000000003980       0xdc obj_cooja/mtype892.a(beep.o)
 .debug_abbrev  0x0000000000003a5c       0xe8 obj_cooja/mtype892.a(button-sensor.o)
 .debug_abbrev  0x0000000000003b44       0xd7 obj_cooja/mtype892.a(leds-arch.o)
 .debug_abbrev  0x0000000000003c1b       0x85 obj_cooja/mtype892.a(moteid.o)
 .debug_abbrev  0x0000000000003ca0       0xcc obj_cooja/mtype892.a(pir-sensor.o)
 .debug_abbrev  0x0000000000003d6c      0x13c obj_cooja/mtype892.a(rs232.o)
 .debug_abbrev  0x0000000000003ea8       0xcc obj_cooja/mtype892.a(vib-sensor.o)
 .debug_abbrev  0x0000000000003f74       0xe4 obj_cooja/mtype892.a(clock.o)
 .debug_abbrev  0x0000000000004058      0x120 obj_cooja/mtype892.a(log.o)
 .debug_abbrev  0x0000000000004178      0x135 obj_cooja/mtype892.a(cfs-cooja.o)
 .debug_abbrev  0x00000000000042ad      0x251 obj_cooja/mtype892.a(cooja-radio.o)
 .debug_abbrev  0x00000000000044fe      0x19e obj_cooja/mtype892.a(sensors.o)
 .debug_abbrev  0x000000000000469c       0xb1 obj_cooja/mtype892.a(leds.o)
 .debug_abbrev  0x000000000000474d       0x5d obj_cooja/mtype892.a(rimestats.o)
 .debug_abbrev  0x00000000000047aa      0x141 obj_cooja/mtype892.a(frame802154.o)
 .debug_abbrev  0x00000000000048eb      0x1b6 obj_cooja/mtype892.a(rpl.o)
 .debug_abbrev  0x0000000000004aa1      0x2a9 obj_cooja/mtype892.a(rpl-dag.o)
 .debug_abbrev  0x0000000000004d4a      0x2af obj_cooja/mtype892.a(rpl-icmp6.o)
 .debug_abbrev  0x0000000000004ff9      0x17d obj_cooja/mtype892.a(rpl-timers.o)
 .debug_abbrev  0x0000000000005176      0x19e obj_cooja/mtype892.a(rpl-mrhof.o)
 .debug_abbrev  0x0000000000005314      0x1f2 obj_cooja/mtype892.a(rpl-ext-header.)
 .debug_abbrev  0x0000000000005506       0xd4 obj_cooja/mtype892.a(timer.o)
 .debug_abbrev  0x00000000000055da      0x11d obj_cooja/mtype892.a(rtimer.o)
 .debug_abbrev  0x00000000000056f7       0xb8 obj_cooja/mtype892.a(stimer.o)
 .debug_abbrev  0x00000000000057af      0x1a9 obj_cooja/mtype892.a(nbr-table.o)
 .debug_abbrev  0x0000000000005958      0x139 obj_cooja/mtype892.a(uip-icmp6.o)

.debug_line     0x0000000000000000     0x93b8
 *(.debug_line)
 .debug_line    0x0000000000000000      0x276 desk-controller.co
 .debug_line    0x0000000000000276      0x558 obj_cooja/mtype892.o
 .debug_line    0x00000000000007ce       0xb9 obj_cooja/mtype892.a(rimeaddr.o)
 .debug_line    0x0000000000000887      0x390 obj_cooja/mtype892.a(nullrdc.o)
 .debug_line    0x0000000000000c17       0x90 obj_cooja/mtype892.a(mac.o)
 .debug_line    0x0000000000000ca7      0x20a obj_cooja/mtype892.a(framer-802154.o)
 .debug_line    0x0000000000000eb1      0x3ac obj_cooja/mtype892.a(csma.o)
 .debug_line    0x000000000000125d      0x254 obj_cooja/mtype892.a(process.o)
 .debug_line    0x00000000000014b1       0xd4 obj_cooja/mtype892.a(autostart.o)
 .debug_line    0x0000000000001585      0x15e obj_cooja/mtype892.a(serial-line.o)
 .debug_line    0x00000000000016e3       0xf8 obj_cooja/mtype892.a(memb.o)
 .debug_line    0x00000000000017db      0x1b4 obj_cooja/mtype892.a(list.o)
 .debug_line    0x000000000000198f      0x276 obj_cooja/mtype892.a(etimer.o)
 .debug_line    0x0000000000001c05      0x204 obj_cooja/mtype892.a(ctimer.o)
 .debug_line    0x0000000000001e09       0x8d obj_cooja/mtype892.a(energest.o)
 .debug_line    0x0000000000001e96       0x69 obj_cooja/mtype892.a(random.o)
 .debug_line    0x0000000000001eff       0xff obj_cooja/mtype892.a(ringbuf.o)
 .debug_line    0x0000000000001ffe       0xec obj_cooja/mtype892.a(netstack.o)
 .debug_line    0x00000000000020ea      0x2be obj_cooja/mtype892.a(packetbuf.o)
 .debug_line    0x00000000000023a8      0x1f6 obj_cooja/mtype892.a(queuebuf.o)
 .debug_line    0x000000000000259e      0x7b2 obj_cooja/mtype892.a(sicslowpan.o)
 .debug_line    0x0000000000002d50      0x1ef obj_cooja/mtype892.a(simple-udp.o)
 .debug_line    0x0000000000002f3f      0x52d obj_cooja/mtype892.a(tcpip.o)
 .debug_line    0x000000000000346c       0xe6 obj_cooja/mtype892.a(uip-debug.o)
 .debug_line    0x0000000000003552      0x454 obj_cooja/mtype892.a(uip-ds6-route.o)
 .debug_line    0x00000000000039a6      0x3b6 obj_cooja/mtype892.a(uip-ds6-nbr.o)
 .debug_line    0x0000000000003d5c      0x46d obj_cooja/mtype892.a(uip-ds6.o)
 .debug_line    0x00000000000041c9      0x3d1 obj_cooja/mtype892.a(uip-nd6.o)
 .debug_line    0x000000000000459a      0x212 obj_cooja/mtype892.a(uip-packetqueue)
 .debug_line    0x00000000000047ac      0x118 obj_cooja/mtype892.a(uip-udp-packet.)
 .debug_line    0x00000000000048c4      0x95f obj_cooja/mtype892.a(uip6.o)
 .debug_line    0x0000000000005223      0x3a3 obj_cooja/mtype892.a(servreg-hack.o)
 .debug_line    0x00000000000055c6      0x10f obj_cooja/mtype892.a(simEnvChange.o)
 .debug_line    0x00000000000056d5      0x13c obj_cooja/mtype892.a(cooja_mt.o)
 .debug_line    0x0000000000005811      0x19e obj_cooja/mtype892.a(cooja_mtarch.o)
 .debug_line    0x00000000000059af      0x119 obj_cooja/mtype892.a(rtimer-arch.o)
 .debug_line    0x0000000000005ac8       0xa3 obj_cooja/mtype892.a(watchdog.o)
 .debug_line    0x0000000000005b6b      0x183 obj_cooja/mtype892.a(beep.o)
 .debug_line    0x0000000000005cee      0x1b0 obj_cooja/mtype892.a(button-sensor.o)
 .debug_line    0x0000000000005e9e       0xe4 obj_cooja/mtype892.a(leds-arch.o)
 .debug_line    0x0000000000005f82       0xb0 obj_cooja/mtype892.a(moteid.o)
 .debug_line    0x0000000000006032      0x127 obj_cooja/mtype892.a(pir-sensor.o)
 .debug_line    0x0000000000006159      0x14a obj_cooja/mtype892.a(rs232.o)
 .debug_line    0x00000000000062a3      0x127 obj_cooja/mtype892.a(vib-sensor.o)
 .debug_line    0x00000000000063ca      0x129 obj_cooja/mtype892.a(clock.o)
 .debug_line    0x00000000000064f3      0x1a9 obj_cooja/mtype892.a(log.o)
 .debug_line    0x000000000000669c      0x1be obj_cooja/mtype892.a(cfs-cooja.o)
 .debug_line    0x000000000000685a      0x368 obj_cooja/mtype892.a(cooja-radio.o)
 .debug_line    0x0000000000006bc2      0x197 obj_cooja/mtype892.a(sensors.o)
 .debug_line    0x0000000000006d59       0xe5 obj_cooja/mtype892.a(leds.o)
 .debug_line    0x0000000000006e3e       0x83 obj_cooja/mtype892.a(rimestats.o)
 .debug_line    0x0000000000006ec1      0x20f obj_cooja/mtype892.a(frame802154.o)
 .debug_line    0x00000000000070d0      0x30d obj_cooja/mtype892.a(rpl.o)
 .debug_line    0x00000000000073dd      0x94f obj_cooja/mtype892.a(rpl-dag.o)
 .debug_line    0x0000000000007d2c      0x604 obj_cooja/mtype892.a(rpl-icmp6.o)
 .debug_line    0x0000000000008330      0x27d obj_cooja/mtype892.a(rpl-timers.o)
 .debug_line    0x00000000000085ad      0x2c9 obj_cooja/mtype892.a(rpl-mrhof.o)
 .debug_line    0x0000000000008876      0x31e obj_cooja/mtype892.a(rpl-ext-header.)
 .debug_line    0x0000000000008b94      0x108 obj_cooja/mtype892.a(timer.o)
 .debug_line    0x0000000000008c9c       0xf4 obj_cooja/mtype892.a(rtimer.o)
 .debug_line    0x0000000000008d90       0xe3 obj_cooja/mtype892.a(stimer.o)
 .debug_line    0x0000000000008e73      0x37c obj_cooja/mtype892.a(nbr-table.o)
 .debug_line    0x00000000000091ef      0x1c9 obj_cooja/mtype892.a(uip-icmp6.o)

.debug_frame
 *(.debug_frame)

.debug_str      0x0000000000000000     0x64f7
 *(.debug_str)
 .debug_str     0x0000000000000000      0x50d desk-controller.co
                                        0x601 (size before relaxing)
 .debug_str     0x000000000000050d     0x17ec obj_cooja/mtype892.o
                                       0x1aad (size before relaxing)
 .debug_str     0x0000000000001cf9       0x74 obj_cooja/mtype892.a(rimeaddr.o)
                                        0x147 (size before relaxing)
 .debug_str     0x0000000000001d6d      0x666 obj_cooja/mtype892.a(nullrdc.o)
                                        0x8cf (size before relaxing)
 .debug_str     0x00000000000023d3       0x46 obj_cooja/mtype892.a(mac.o)
                                        0x15f (size before relaxing)
 .debug_str     0x0000000000002419       0x7d obj_cooja/mtype892.a(framer-802154.o)
                                        0x624 (size before relaxing)
 .debug_str     0x0000000000002496      0x21b obj_cooja/mtype892.a(csma.o)
                                        0x7f3 (size before relaxing)
 .debug_str     0x00000000000026b1      0x16c obj_cooja/mtype892.a(process.o)
                                        0x289 (size before relaxing)
 .debug_str     0x000000000000281d       0x49 obj_cooja/mtype892.a(autostart.o)
                                        0x14a (size before relaxing)
 .debug_str     0x0000000000002866       0xc8 obj_cooja/mtype892.a(serial-line.o)
                                        0x209 (size before relaxing)
 .debug_str     0x000000000000292e       0x55 obj_cooja/mtype892.a(memb.o)
                                        0x10f (size before relaxing)
 .debug_str     0x0000000000002983       0xad obj_cooja/mtype892.a(list.o)
                                         0xfc (size before relaxing)
 .debug_str     0x0000000000002a30      0x142 obj_cooja/mtype892.a(etimer.o)
                                        0x29f (size before relaxing)
 .debug_str     0x0000000000002b72       0xbc obj_cooja/mtype892.a(ctimer.o)
                                        0x233 (size before relaxing)
 .debug_str     0x0000000000002c2e       0x6b obj_cooja/mtype892.a(energest.o)
                                        0x115 (size before relaxing)
 .debug_str     0x0000000000002c99       0x44 obj_cooja/mtype892.a(random.o)
                                         0xf7 (size before relaxing)
 .debug_str     0x0000000000002cdd       0x6b obj_cooja/mtype892.a(ringbuf.o)
                                        0x147 (size before relaxing)
 .debug_str     0x0000000000002d48       0x37 obj_cooja/mtype892.a(netstack.o)
                                        0x1f7 (size before relaxing)
 .debug_str     0x0000000000002d7f      0x1e7 obj_cooja/mtype892.a(packetbuf.o)
                                        0x610 (size before relaxing)
 .debug_str     0x0000000000002f66      0x199 obj_cooja/mtype892.a(queuebuf.o)
                                        0x5de (size before relaxing)
 .debug_str     0x00000000000030ff      0x3ca obj_cooja/mtype892.a(sicslowpan.o)
                                        0xa04 (size before relaxing)
 .debug_str     0x00000000000034c9       0xed obj_cooja/mtype892.a(simple-udp.o)
                                        0x3f8 (size before relaxing)
 .debug_str     0x00000000000035b6      0x598 obj_cooja/mtype892.a(tcpip.o)
                                        0xafc (size before relaxing)
 .debug_str     0x0000000000003b4e       0x58 obj_cooja/mtype892.a(uip-debug.o)
                                        0x15d (size before relaxing)
 .debug_str     0x0000000000003ba6      0x364 obj_cooja/mtype892.a(uip-ds6-route.o)
                                        0x6fa (size before relaxing)
 .debug_str     0x0000000000003f0a      0x1b7 obj_cooja/mtype892.a(uip-ds6-nbr.o)
                                        0x8ee (size before relaxing)
 .debug_str     0x00000000000040c1      0x2fc obj_cooja/mtype892.a(uip-ds6.o)
                                        0x603 (size before relaxing)
 .debug_str     0x00000000000043bd      0x103 obj_cooja/mtype892.a(uip-nd6.o)
                                        0x542 (size before relaxing)
 .debug_str     0x00000000000044c0      0x100 obj_cooja/mtype892.a(uip-packetqueue)
                                        0x2ce (size before relaxing)
 .debug_str     0x00000000000045c0       0x80 obj_cooja/mtype892.a(uip-udp-packet.)
                                        0x217 (size before relaxing)
 .debug_str     0x0000000000004640      0x2e9 obj_cooja/mtype892.a(uip6.o)
                                        0x789 (size before relaxing)
 .debug_str     0x0000000000004929      0x205 obj_cooja/mtype892.a(servreg-hack.o)
                                        0x4c7 (size before relaxing)
 .debug_str     0x0000000000004b2e       0x37 obj_cooja/mtype892.a(simEnvChange.o)
                                        0x185 (size before relaxing)
 .debug_str     0x0000000000004b65       0x85 obj_cooja/mtype892.a(cooja_mt.o)
                                        0x1af (size before relaxing)
 .debug_str     0x0000000000004bea      0x104 obj_cooja/mtype892.a(cooja_mtarch.o)
                                        0x235 (size before relaxing)
 .debug_str     0x0000000000004cee       0xcc obj_cooja/mtype892.a(rtimer-arch.o)
                                        0x1d3 (size before relaxing)
 .debug_str     0x0000000000004dba       0x80 obj_cooja/mtype892.a(watchdog.o)
                                         0xaa (size before relaxing)
 .debug_str     0x0000000000004e3a       0xcd obj_cooja/mtype892.a(beep.o)
                                        0x1cc (size before relaxing)
 .debug_str     0x0000000000004f07       0x79 obj_cooja/mtype892.a(button-sensor.o)
                                        0x1fc (size before relaxing)
 .debug_str     0x0000000000004f80       0x6c obj_cooja/mtype892.a(leds-arch.o)
                                        0x197 (size before relaxing)
 .debug_str     0x0000000000004fec       0x50 obj_cooja/mtype892.a(moteid.o)
                                        0x182 (size before relaxing)
 .debug_str     0x000000000000503c       0x5e obj_cooja/mtype892.a(pir-sensor.o)
                                        0x1b9 (size before relaxing)
 .debug_str     0x000000000000509a       0xe4 obj_cooja/mtype892.a(rs232.o)
                                        0x222 (size before relaxing)
 .debug_str     0x000000000000517e       0x5e obj_cooja/mtype892.a(vib-sensor.o)
                                        0x1b9 (size before relaxing)
 .debug_str     0x00000000000051dc       0x6b obj_cooja/mtype892.a(clock.o)
                                        0x1ae (size before relaxing)
 .debug_str     0x0000000000005247       0xce obj_cooja/mtype892.a(log.o)
                                        0x23c (size before relaxing)
 .debug_str     0x0000000000005315      0x116 obj_cooja/mtype892.a(cfs-cooja.o)
                                        0x25a (size before relaxing)
 .debug_str     0x000000000000542b      0x1a6 obj_cooja/mtype892.a(cooja-radio.o)
                                        0x59d (size before relaxing)
 .debug_str     0x00000000000055d1       0x9c obj_cooja/mtype892.a(sensors.o)
                                        0x21e (size before relaxing)
 .debug_str     0x000000000000566d       0x7b obj_cooja/mtype892.a(leds.o)
                                        0x134 (size before relaxing)
 .debug_str     0x00000000000056e8       0x2f obj_cooja/mtype892.a(rimestats.o)
                                         0xfe (size before relaxing)
 .debug_str     0x0000000000005717       0xd1 obj_cooja/mtype892.a(frame802154.o)
                                        0x30d (size before relaxing)
 .debug_str     0x00000000000057e8       0xe1 obj_cooja/mtype892.a(rpl.o)
                                        0x717 (size before relaxing)
 .debug_str     0x00000000000058c9      0x43b obj_cooja/mtype892.a(rpl-dag.o)
                                        0xa77 (size before relaxing)
 .debug_str     0x0000000000005d04      0x123 obj_cooja/mtype892.a(rpl-icmp6.o)
                                        0xc73 (size before relaxing)
 .debug_str     0x0000000000005e27       0xd1 obj_cooja/mtype892.a(rpl-timers.o)
                                        0x573 (size before relaxing)
 .debug_str     0x0000000000005ef8       0xb4 obj_cooja/mtype892.a(rpl-mrhof.o)
                                        0x59d (size before relaxing)
 .debug_str     0x0000000000005fac      0x10b obj_cooja/mtype892.a(rpl-ext-header.)
                                        0x6ee (size before relaxing)
 .debug_str     0x00000000000060b7       0x26 obj_cooja/mtype892.a(timer.o)
                                        0x134 (size before relaxing)
 .debug_str     0x00000000000060dd       0xa7 obj_cooja/mtype892.a(rtimer.o)
                                        0x18c (size before relaxing)
 .debug_str     0x0000000000006184       0x7d obj_cooja/mtype892.a(stimer.o)
                                        0x138 (size before relaxing)
 .debug_str     0x0000000000006201      0x25b obj_cooja/mtype892.a(nbr-table.o)
                                        0x3c9 (size before relaxing)
 .debug_str     0x000000000000645c       0x9b obj_cooja/mtype892.a(uip-icmp6.o)
                                        0x355 (size before relaxing)

.debug_loc      0x0000000000000000     0x7790
 *(.debug_loc)
 .debug_loc     0x0000000000000000       0xa8 desk-controller.co
 .debug_loc     0x00000000000000a8      0x218 obj_cooja/mtype892.o
 .debug_loc     0x00000000000002c0       0xa8 obj_cooja/mtype892.a(rimeaddr.o)
 .debug_loc     0x0000000000000368      0x2a0 obj_cooja/mtype892.a(nullrdc.o)
 .debug_loc     0x0000000000000608       0x38 obj_cooja/mtype892.a(mac.o)
 .debug_loc     0x0000000000000640      0x188 obj_cooja/mtype892.a(framer-802154.o)
 .debug_loc     0x00000000000007c8      0x310 obj_cooja/mtype892.a(csma.o)
 .debug_loc     0x0000000000000ad8      0x310 obj_cooja/mtype892.a(process.o)
 .debug_loc     0x0000000000000de8       0x70 obj_cooja/mtype892.a(autostart.o)
 .debug_loc     0x0000000000000e58       0xa8 obj_cooja/mtype892.a(serial-line.o)
 .debug_loc     0x0000000000000f00       0xe0 obj_cooja/mtype892.a(memb.o)
 .debug_loc     0x0000000000000fe0      0x2a0 obj_cooja/mtype892.a(list.o)
 .debug_loc     0x0000000000001280      0x310 obj_cooja/mtype892.a(etimer.o)
 .debug_loc     0x0000000000001590      0x188 obj_cooja/mtype892.a(ctimer.o)
 .debug_loc     0x0000000000001718       0xe0 obj_cooja/mtype892.a(energest.o)
 .debug_loc     0x00000000000017f8       0x70 obj_cooja/mtype892.a(random.o)
 .debug_loc     0x0000000000001868      0x118 obj_cooja/mtype892.a(ringbuf.o)
 .debug_loc     0x0000000000001980       0x38 obj_cooja/mtype892.a(netstack.o)
 .debug_loc     0x00000000000019b8      0x498 obj_cooja/mtype892.a(packetbuf.o)
 .debug_loc     0x0000000000001e50      0x268 obj_cooja/mtype892.a(queuebuf.o)
 .debug_loc     0x00000000000020b8      0x3f0 obj_cooja/mtype892.a(sicslowpan.o)
 .debug_loc     0x00000000000024a8      0x150 obj_cooja/mtype892.a(simple-udp.o)
 .debug_loc     0x00000000000025f8      0x428 obj_cooja/mtype892.a(tcpip.o)
 .debug_loc     0x0000000000002a20       0x70 obj_cooja/mtype892.a(uip-debug.o)
 .debug_loc     0x0000000000002a90      0x460 obj_cooja/mtype892.a(uip-ds6-route.o)
 .debug_loc     0x0000000000002ef0      0x310 obj_cooja/mtype892.a(uip-ds6-nbr.o)
 .debug_loc     0x0000000000003200      0x4d0 obj_cooja/mtype892.a(uip-ds6.o)
 .debug_loc     0x00000000000036d0       0xe0 obj_cooja/mtype892.a(uip-nd6.o)
 .debug_loc     0x00000000000037b0      0x188 obj_cooja/mtype892.a(uip-packetqueue)
 .debug_loc     0x0000000000003938       0x70 obj_cooja/mtype892.a(uip-udp-packet.)
 .debug_loc     0x00000000000039a8      0x428 obj_cooja/mtype892.a(uip6.o)
 .debug_loc     0x0000000000003dd0      0x268 obj_cooja/mtype892.a(servreg-hack.o)
 .debug_loc     0x0000000000004038       0x70 obj_cooja/mtype892.a(simEnvChange.o)
 .debug_loc     0x00000000000040a8      0x150 obj_cooja/mtype892.a(cooja_mt.o)
 .debug_loc     0x00000000000041f8      0x1f8 obj_cooja/mtype892.a(cooja_mtarch.o)
 .debug_loc     0x00000000000043f0      0x150 obj_cooja/mtype892.a(rtimer-arch.o)
 .debug_loc     0x0000000000004540      0x118 obj_cooja/mtype892.a(watchdog.o)
 .debug_loc     0x0000000000004658      0x268 obj_cooja/mtype892.a(beep.o)
 .debug_loc     0x00000000000048c0      0x118 obj_cooja/mtype892.a(button-sensor.o)
 .debug_loc     0x00000000000049d8      0x118 obj_cooja/mtype892.a(leds-arch.o)
 .debug_loc     0x0000000000004af0       0x70 obj_cooja/mtype892.a(moteid.o)
 .debug_loc     0x0000000000004b60      0x118 obj_cooja/mtype892.a(pir-sensor.o)
 .debug_loc     0x0000000000004c78      0x1c0 obj_cooja/mtype892.a(rs232.o)
 .debug_loc     0x0000000000004e38      0x118 obj_cooja/mtype892.a(vib-sensor.o)
 .debug_loc     0x0000000000004f50      0x150 obj_cooja/mtype892.a(clock.o)
 .debug_loc     0x00000000000050a0      0x1f8 obj_cooja/mtype892.a(log.o)
 .debug_loc     0x0000000000005298      0x268 obj_cooja/mtype892.a(cfs-cooja.o)
 .debug_loc     0x0000000000005500      0x3b8 obj_cooja/mtype892.a(cooja-radio.o)
 .debug_loc     0x00000000000058b8      0x150 obj_cooja/mtype892.a(sensors.o)
 .debug_loc     0x0000000000005a08      0x1c0 obj_cooja/mtype892.a(leds.o)
 .debug_loc     0x0000000000005bc8      0x118 obj_cooja/mtype892.a(frame802154.o)
 .debug_loc     0x0000000000005ce0      0x188 obj_cooja/mtype892.a(rpl.o)
 .debug_loc     0x0000000000005e68      0x930 obj_cooja/mtype892.a(rpl-dag.o)
 .debug_loc     0x0000000000006798      0x380 obj_cooja/mtype892.a(rpl-icmp6.o)
 .debug_loc     0x0000000000006b18      0x188 obj_cooja/mtype892.a(rpl-timers.o)
 .debug_loc     0x0000000000006ca0      0x188 obj_cooja/mtype892.a(rpl-mrhof.o)
 .debug_loc     0x0000000000006e28      0x188 obj_cooja/mtype892.a(rpl-ext-header.)
 .debug_loc     0x0000000000006fb0      0x118 obj_cooja/mtype892.a(timer.o)
 .debug_loc     0x00000000000070c8       0xa8 obj_cooja/mtype892.a(rtimer.o)
 .debug_loc     0x0000000000007170      0x150 obj_cooja/mtype892.a(stimer.o)
 .debug_loc     0x00000000000072c0      0x428 obj_cooja/mtype892.a(nbr-table.o)
 .debug_loc     0x00000000000076e8       0xa8 obj_cooja/mtype892.a(uip-icmp6.o)

.debug_macinfo
 *(.debug_macinfo)

.debug_weaknames
 *(.debug_weaknames)

.debug_funcnames
 *(.debug_funcnames)

.debug_typenames
 *(.debug_typenames)

.debug_varnames
 *(.debug_varnames)

.debug_pubtypes
 *(.debug_pubtypes)

.debug_ranges   0x0000000000000000     0x1440
 *(.debug_ranges)
 .debug_ranges  0x0000000000000000       0x20 desk-controller.co
 .debug_ranges  0x0000000000000020       0x58 obj_cooja/mtype892.o
 .debug_ranges  0x0000000000000078       0x20 obj_cooja/mtype892.a(rimeaddr.o)
 .debug_ranges  0x0000000000000098       0xb0 obj_cooja/mtype892.a(nullrdc.o)
 .debug_ranges  0x0000000000000148       0x10 obj_cooja/mtype892.a(mac.o)
 .debug_ranges  0x0000000000000158       0x40 obj_cooja/mtype892.a(framer-802154.o)
 .debug_ranges  0x0000000000000198       0x90 obj_cooja/mtype892.a(csma.o)
 .debug_ranges  0x0000000000000228       0x78 obj_cooja/mtype892.a(process.o)
 .debug_ranges  0x00000000000002a0       0x18 obj_cooja/mtype892.a(autostart.o)
 .debug_ranges  0x00000000000002b8       0x38 obj_cooja/mtype892.a(serial-line.o)
 .debug_ranges  0x00000000000002f0       0x28 obj_cooja/mtype892.a(memb.o)
 .debug_ranges  0x0000000000000318       0x68 obj_cooja/mtype892.a(list.o)
 .debug_ranges  0x0000000000000380       0x90 obj_cooja/mtype892.a(etimer.o)
 .debug_ranges  0x0000000000000410       0x40 obj_cooja/mtype892.a(ctimer.o)
 .debug_ranges  0x0000000000000450       0x28 obj_cooja/mtype892.a(energest.o)
 .debug_ranges  0x0000000000000478       0x18 obj_cooja/mtype892.a(random.o)
 .debug_ranges  0x0000000000000490       0x30 obj_cooja/mtype892.a(ringbuf.o)
 .debug_ranges  0x00000000000004c0       0x10 obj_cooja/mtype892.a(netstack.o)
 .debug_ranges  0x00000000000004d0       0xb0 obj_cooja/mtype892.a(packetbuf.o)
 .debug_ranges  0x0000000000000580       0x60 obj_cooja/mtype892.a(queuebuf.o)
 .debug_ranges  0x00000000000005e0       0xe0 obj_cooja/mtype892.a(sicslowpan.o)
 .debug_ranges  0x00000000000006c0       0x38 obj_cooja/mtype892.a(simple-udp.o)
 .debug_ranges  0x00000000000006f8       0xa0 obj_cooja/mtype892.a(tcpip.o)
 .debug_ranges  0x0000000000000798       0x18 obj_cooja/mtype892.a(uip-debug.o)
 .debug_ranges  0x00000000000007b0       0xa8 obj_cooja/mtype892.a(uip-ds6-route.o)
 .debug_ranges  0x0000000000000858       0x78 obj_cooja/mtype892.a(uip-ds6-nbr.o)
 .debug_ranges  0x00000000000008d0       0xb8 obj_cooja/mtype892.a(uip-ds6.o)
 .debug_ranges  0x0000000000000988       0x58 obj_cooja/mtype892.a(uip-nd6.o)
 .debug_ranges  0x00000000000009e0       0x40 obj_cooja/mtype892.a(uip-packetqueue)
 .debug_ranges  0x0000000000000a20       0x18 obj_cooja/mtype892.a(uip-udp-packet.)
 .debug_ranges  0x0000000000000a38       0xa0 obj_cooja/mtype892.a(uip6.o)
 .debug_ranges  0x0000000000000ad8       0x60 obj_cooja/mtype892.a(servreg-hack.o)
 .debug_ranges  0x0000000000000b38       0x18 obj_cooja/mtype892.a(simEnvChange.o)
 .debug_ranges  0x0000000000000b50       0x38 obj_cooja/mtype892.a(cooja_mt.o)
 .debug_ranges  0x0000000000000b88       0x50 obj_cooja/mtype892.a(cooja_mtarch.o)
 .debug_ranges  0x0000000000000bd8       0x38 obj_cooja/mtype892.a(rtimer-arch.o)
 .debug_ranges  0x0000000000000c10       0x30 obj_cooja/mtype892.a(watchdog.o)
 .debug_ranges  0x0000000000000c40       0x60 obj_cooja/mtype892.a(beep.o)
 .debug_ranges  0x0000000000000ca0       0x30 obj_cooja/mtype892.a(button-sensor.o)
 .debug_ranges  0x0000000000000cd0       0x30 obj_cooja/mtype892.a(leds-arch.o)
 .debug_ranges  0x0000000000000d00       0x18 obj_cooja/mtype892.a(moteid.o)
 .debug_ranges  0x0000000000000d18       0x30 obj_cooja/mtype892.a(pir-sensor.o)
 .debug_ranges  0x0000000000000d48       0x48 obj_cooja/mtype892.a(rs232.o)
 .debug_ranges  0x0000000000000d90       0x30 obj_cooja/mtype892.a(vib-sensor.o)
 .debug_ranges  0x0000000000000dc0       0x38 obj_cooja/mtype892.a(clock.o)
 .debug_ranges  0x0000000000000df8       0x50 obj_cooja/mtype892.a(log.o)
 .debug_ranges  0x0000000000000e48       0x60 obj_cooja/mtype892.a(cfs-cooja.o)
 .debug_ranges  0x0000000000000ea8       0x90 obj_cooja/mtype892.a(cooja-radio.o)
 .debug_ranges  0x0000000000000f38       0x38 obj_cooja/mtype892.a(sensors.o)
 .debug_ranges  0x0000000000000f70       0x48 obj_cooja/mtype892.a(leds.o)
 .debug_ranges  0x0000000000000fb8       0x30 obj_cooja/mtype892.a(frame802154.o)
 .debug_ranges  0x0000000000000fe8       0x40 obj_cooja/mtype892.a(rpl.o)
 .debug_ranges  0x0000000000001028      0x158 obj_cooja/mtype892.a(rpl-dag.o)
 .debug_ranges  0x0000000000001180       0x88 obj_cooja/mtype892.a(rpl-icmp6.o)
 .debug_ranges  0x0000000000001208       0x40 obj_cooja/mtype892.a(rpl-timers.o)
 .debug_ranges  0x0000000000001248       0x40 obj_cooja/mtype892.a(rpl-mrhof.o)
 .debug_ranges  0x0000000000001288       0x40 obj_cooja/mtype892.a(rpl-ext-header.)
 .debug_ranges  0x00000000000012c8       0x30 obj_cooja/mtype892.a(timer.o)
 .debug_ranges  0x00000000000012f8       0x20 obj_cooja/mtype892.a(rtimer.o)
 .debug_ranges  0x0000000000001318       0x38 obj_cooja/mtype892.a(stimer.o)
 .debug_ranges  0x0000000000001350       0xd0 obj_cooja/mtype892.a(nbr-table.o)
 .debug_ranges  0x0000000000001420       0x20 obj_cooja/mtype892.a(uip-icmp6.o)

.gnu.attributes
 *(.gnu.attributes)

/DISCARD/
 *(.note.GNU-stack)
 *(.gnu_debuglink)
 *(.gnu.lto_*)
OUTPUT(obj_cooja/mtype892.cooja elf32-i386)
