Archive member included because of file (symbol)

obj_cooja/mtype891.a(rimeaddr.o)
                              obj_cooja/mtype891.o (rimeaddr_node_addr)
obj_cooja/mtype891.a(nullrdc.o)
                              obj_cooja/mtype891.o (nullrdc_driver)
obj_cooja/mtype891.a(mac.o)   obj_cooja/mtype891.a(nullrdc.o) (mac_call_sent_callback)
obj_cooja/mtype891.a(framer-802154.o)
                              obj_cooja/mtype891.a(nullrdc.o) (framer_802154)
obj_cooja/mtype891.a(csma.o)  obj_cooja/mtype891.o (csma_driver)
obj_cooja/mtype891.a(rpl-dag.o)
                              server.co (rpl_set_root)
obj_cooja/mtype891.a(rpl-icmp6.o)
                              obj_cooja/mtype891.a(rpl-dag.o) (dao_output)
obj_cooja/mtype891.a(rpl-timers.o)
                              obj_cooja/mtype891.a(rpl-dag.o) (rpl_reset_dio_timer)
obj_cooja/mtype891.a(rpl-mrhof.o)
                              obj_cooja/mtype891.a(rpl-dag.o) (rpl_mrhof)
obj_cooja/mtype891.a(process.o)
                              obj_cooja/mtype891.o (process_start)
obj_cooja/mtype891.a(autostart.o)
                              obj_cooja/mtype891.o (autostart_start)
obj_cooja/mtype891.a(serial-line.o)
                              obj_cooja/mtype891.o (serial_line_init)
obj_cooja/mtype891.a(memb.o)  obj_cooja/mtype891.a(csma.o) (memb_init)
obj_cooja/mtype891.a(list.o)  obj_cooja/mtype891.a(csma.o) (list_init)
obj_cooja/mtype891.a(etimer.o)
                              obj_cooja/mtype891.o (etimer_process)
obj_cooja/mtype891.a(ctimer.o)
                              obj_cooja/mtype891.o (ctimer_init)
obj_cooja/mtype891.a(stimer.o)
                              obj_cooja/mtype891.a(rpl-icmp6.o) (stimer_set)
obj_cooja/mtype891.a(random.o)
                              obj_cooja/mtype891.a(framer-802154.o) (random_rand)
obj_cooja/mtype891.a(ringbuf.o)
                              obj_cooja/mtype891.a(serial-line.o) (ringbuf_init)
obj_cooja/mtype891.a(nbr-table.o)
                              obj_cooja/mtype891.a(rpl-dag.o) (nbr_table_register)
obj_cooja/mtype891.a(netstack.o)
                              obj_cooja/mtype891.o (netstack_init)
obj_cooja/mtype891.a(packetbuf.o)
                              obj_cooja/mtype891.a(nullrdc.o) (packetbuf_attrs)
obj_cooja/mtype891.a(queuebuf.o)
                              obj_cooja/mtype891.o (queuebuf_init)
obj_cooja/mtype891.a(sicslowpan.o)
                              obj_cooja/mtype891.o (sicslowpan_driver)
obj_cooja/mtype891.a(simple-udp.o)
                              server.co (simple_udp_sendto)
obj_cooja/mtype891.a(tcpip.o)
                              obj_cooja/mtype891.a(simple-udp.o) (tcpip_event)
obj_cooja/mtype891.a(uip-debug.o)
                              server.co (uip_debug_ipaddr_print)
obj_cooja/mtype891.a(uip-ds6-route.o)
                              obj_cooja/mtype891.a(rpl-icmp6.o) (uip_ds6_route_nexthop)
obj_cooja/mtype891.a(uip-ds6-nbr.o)
                              obj_cooja/mtype891.a(rpl-icmp6.o) (uip_ds6_nbr_add)
obj_cooja/mtype891.a(uip-ds6.o)
                              obj_cooja/mtype891.a(tcpip.o) (uip_ds6_timer_periodic)
obj_cooja/mtype891.a(uip-icmp6.o)
                              obj_cooja/mtype891.a(rpl-icmp6.o) (uip_icmp6_send)
obj_cooja/mtype891.a(uip-nd6.o)
                              obj_cooja/mtype891.a(tcpip.o) (uip_nd6_ns_output)
obj_cooja/mtype891.a(uip-packetqueue)
                              obj_cooja/mtype891.a(uip-ds6-nbr.o) (uip_packetqueue_new)
obj_cooja/mtype891.a(uip-udp-packet.)
                              obj_cooja/mtype891.a(simple-udp.o) (uip_udp_packet_sendto)
obj_cooja/mtype891.a(uip6.o)  server.co (uip_lladdr)
obj_cooja/mtype891.a(servreg-hack.o)
                              server.co (servreg_hack_init)
obj_cooja/mtype891.a(simEnvChange.o)
                              obj_cooja/mtype891.o (simDontFallAsleep)
obj_cooja/mtype891.a(cooja_mt.o)
                              obj_cooja/mtype891.o (cooja_mt_start)
obj_cooja/mtype891.a(cooja_mtarch.o)
                              obj_cooja/mtype891.a(cooja_mt.o) (cooja_mtarch_init)
obj_cooja/mtype891.a(rtimer-arch.o)
                              obj_cooja/mtype891.o (rtimer_arch_next)
obj_cooja/mtype891.a(watchdog.o)
                              obj_cooja/mtype891.a(nullrdc.o) (watchdog_periodic)
obj_cooja/mtype891.a(beep.o)  obj_cooja/mtype891.o (beep_interface)
obj_cooja/mtype891.a(button-sensor.o)
                              obj_cooja/mtype891.o (button_interface)
obj_cooja/mtype891.a(leds-arch.o)
                              obj_cooja/mtype891.o (leds_interface)
obj_cooja/mtype891.a(moteid.o)
                              obj_cooja/mtype891.o (moteid_interface)
obj_cooja/mtype891.a(pir-sensor.o)
                              obj_cooja/mtype891.o (pir_interface)
obj_cooja/mtype891.a(rs232.o)
                              obj_cooja/mtype891.o (rs232_interface)
obj_cooja/mtype891.a(vib-sensor.o)
                              obj_cooja/mtype891.o (vib_interface)
obj_cooja/mtype891.a(clock.o)
                              obj_cooja/mtype891.o (clock_interface)
obj_cooja/mtype891.a(log.o)   obj_cooja/mtype891.o (simlog_interface)
obj_cooja/mtype891.a(cfs-cooja.o)
                              obj_cooja/mtype891.o (cfs_interface)
obj_cooja/mtype891.a(cooja-radio.o)
                              obj_cooja/mtype891.o (radio_interface)
obj_cooja/mtype891.a(sensors.o)
                              obj_cooja/mtype891.o (sensors_process)
obj_cooja/mtype891.a(rimestats.o)
                              obj_cooja/mtype891.a(nullrdc.o) (rimestats)
obj_cooja/mtype891.a(frame802154.o)
                              obj_cooja/mtype891.a(framer-802154.o) (frame802154_hdrlen)
obj_cooja/mtype891.a(rpl.o)   obj_cooja/mtype891.a(rpl-timers.o) (rpl_purge_routes)
obj_cooja/mtype891.a(rpl-ext-header.)
                              obj_cooja/mtype891.a(uip6.o) (rpl_verify_header)
obj_cooja/mtype891.a(timer.o)
                              obj_cooja/mtype891.a(etimer.o) (timer_set)
obj_cooja/mtype891.a(rtimer.o)
                              obj_cooja/mtype891.a(rtimer-arch.o) (rtimer_run_next)

Allocating common symbols
Common symbol       size              file

default_instance    0x4               obj_cooja/mtype891.a(rpl-dag.o)
simButtonIsActive   0x1               obj_cooja/mtype891.a(button-sensor.o)
simButtonIsDown     0x1               obj_cooja/mtype891.a(button-sensor.o)
simOutDataBuffer    0x80              obj_cooja/mtype891.a(cooja-radio.o)
uip_ds6_prefix_list
                    0x60              obj_cooja/mtype891.a(uip-ds6.o)
simSerialReceivingFlag
                    0x1               obj_cooja/mtype891.a(rs232.o)
simLoggedLength     0x4               obj_cooja/mtype891.a(log.o)
simSerialReceivingLength
                    0x4               obj_cooja/mtype891.a(rs232.o)
simEtimerPending    0x4               obj_cooja/mtype891.a(simEnvChange.o)
uip_slen            0x2               obj_cooja/mtype891.a(uip6.o)
uip_ds6_timer_periodic
                    0x10              obj_cooja/mtype891.a(uip-ds6.o)
uip_acc32           0x4               obj_cooja/mtype891.a(uip6.o)
uip_conns           0xc0              obj_cooja/mtype891.a(uip6.o)
simVibChanged       0x1               obj_cooja/mtype891.a(vib-sensor.o)
rimestats           0x48              obj_cooja/mtype891.a(rimestats.o)
uip_ds6_netif_addr_list_offset
                    0x1               obj_cooja/mtype891.a(uip-ds6.o)
uip_lladdr          0x8               obj_cooja/mtype891.a(uip6.o)
instance_table      0xf4              obj_cooja/mtype891.a(rpl-dag.o)
simProcessRunValue  0x4               obj_cooja/mtype891.a(simEnvChange.o)
serial_line_event_message
                    0x1               obj_cooja/mtype891.a(serial-line.o)
uip_appdata         0x4               obj_cooja/mtype891.a(uip6.o)
referenceVar        0x4               obj_cooja/mtype891.o
simCurrentTime      0x4               obj_cooja/mtype891.a(clock.o)
simVibIsActive      0x1               obj_cooja/mtype891.a(vib-sensor.o)
simNextExpirationTime
                    0x4               obj_cooja/mtype891.a(simEnvChange.o)
uip_ds6_if          0xf8              obj_cooja/mtype891.a(uip-ds6.o)
uip_flags           0x1               obj_cooja/mtype891.a(uip6.o)
uip_ds6_timer_ra    0x8               obj_cooja/mtype891.a(uip-ds6.o)
simSerialReceivingData
                    0x400             obj_cooja/mtype891.a(rs232.o)
simLoggedFlag       0x1               obj_cooja/mtype891.a(log.o)
packetbuf_attrs     0x30              obj_cooja/mtype891.a(packetbuf.o)
uip_ds6_addr_size   0x1               obj_cooja/mtype891.a(uip-ds6.o)
uip_aligned_buf     0xf0              obj_cooja/mtype891.a(uip6.o)
simRandomSeed       0x4               obj_cooja/mtype891.a(moteid.o)
simLoggedData       0x400             obj_cooja/mtype891.a(log.o)
simLedsValue        0x1               obj_cooja/mtype891.a(leds-arch.o)
uip_listenports     0x10              obj_cooja/mtype891.a(uip6.o)
uip_len             0x2               obj_cooja/mtype891.a(uip6.o)
simButtonChanged    0x1               obj_cooja/mtype891.a(button-sensor.o)
simPirIsActive      0x1               obj_cooja/mtype891.a(pir-sensor.o)
simInDataBuffer     0x80              obj_cooja/mtype891.a(cooja-radio.o)
simPirChanged       0x1               obj_cooja/mtype891.a(pir-sensor.o)
simBeeped           0x1               obj_cooja/mtype891.a(beep.o)
tcpip_event         0x1               obj_cooja/mtype891.a(tcpip.o)
uip_sappdata        0x4               obj_cooja/mtype891.a(uip6.o)
sensors_event       0x1               obj_cooja/mtype891.a(sensors.o)
uip_udp_conns       0x180             obj_cooja/mtype891.a(uip6.o)
rimeaddr_node_addr  0x8               obj_cooja/mtype891.a(rimeaddr.o)
frag_sender         0x8               obj_cooja/mtype891.a(sicslowpan.o)
packetbuf_addrs     0x20              obj_cooja/mtype891.a(packetbuf.o)
uip_udp_conn        0x4               obj_cooja/mtype891.a(uip6.o)
simMoteIDChanged    0x1               obj_cooja/mtype891.a(moteid.o)
sensors_flags       0x4               obj_cooja/mtype891.o
uip_next_hdr        0x4               obj_cooja/mtype891.a(uip6.o)
simMoteID           0x4               obj_cooja/mtype891.a(moteid.o)
uip_conn            0x4               obj_cooja/mtype891.a(uip6.o)

Discarded input sections

 .note.GNU-stack
                0x0000000000000000        0x0 /usr/lib/gcc/i686-linux-gnu/4.6/../../../i386-linux-gnu/crti.o
 .gnu_debuglink
                0x0000000000000000        0xc /usr/lib/gcc/i686-linux-gnu/4.6/../../../i386-linux-gnu/crti.o
 .group         0x0000000000000000        0x8 /usr/lib/gcc/i686-linux-gnu/4.6/crtbeginS.o
 .note.GNU-stack
                0x0000000000000000        0x0 /usr/lib/gcc/i686-linux-gnu/4.6/crtbeginS.o
 .note.GNU-stack
                0x0000000000000000        0x0 server.co
 .note.GNU-stack
                0x0000000000000000        0x0 obj_cooja/mtype891.o
 .note.GNU-stack
                0x0000000000000000        0x0 obj_cooja/mtype891.a(rimeaddr.o)
 .note.GNU-stack
                0x0000000000000000        0x0 obj_cooja/mtype891.a(nullrdc.o)
 .note.GNU-stack
                0x0000000000000000        0x0 obj_cooja/mtype891.a(mac.o)
 .note.GNU-stack
                0x0000000000000000        0x0 obj_cooja/mtype891.a(framer-802154.o)
 .note.GNU-stack
                0x0000000000000000        0x0 obj_cooja/mtype891.a(csma.o)
 .note.GNU-stack
                0x0000000000000000        0x0 obj_cooja/mtype891.a(rpl-dag.o)
 .note.GNU-stack
                0x0000000000000000        0x0 obj_cooja/mtype891.a(rpl-icmp6.o)
 .note.GNU-stack
                0x0000000000000000        0x0 obj_cooja/mtype891.a(rpl-timers.o)
 .note.GNU-stack
                0x0000000000000000        0x0 obj_cooja/mtype891.a(rpl-mrhof.o)
 .note.GNU-stack
                0x0000000000000000        0x0 obj_cooja/mtype891.a(process.o)
 .note.GNU-stack
                0x0000000000000000        0x0 obj_cooja/mtype891.a(autostart.o)
 .note.GNU-stack
                0x0000000000000000        0x0 obj_cooja/mtype891.a(serial-line.o)
 .note.GNU-stack
                0x0000000000000000        0x0 obj_cooja/mtype891.a(memb.o)
 .note.GNU-stack
                0x0000000000000000        0x0 obj_cooja/mtype891.a(list.o)
 .note.GNU-stack
                0x0000000000000000        0x0 obj_cooja/mtype891.a(etimer.o)
 .note.GNU-stack
                0x0000000000000000        0x0 obj_cooja/mtype891.a(ctimer.o)
 .note.GNU-stack
                0x0000000000000000        0x0 obj_cooja/mtype891.a(stimer.o)
 .note.GNU-stack
                0x0000000000000000        0x0 obj_cooja/mtype891.a(random.o)
 .note.GNU-stack
                0x0000000000000000        0x0 obj_cooja/mtype891.a(ringbuf.o)
 .note.GNU-stack
                0x0000000000000000        0x0 obj_cooja/mtype891.a(nbr-table.o)
 .note.GNU-stack
                0x0000000000000000        0x0 obj_cooja/mtype891.a(netstack.o)
 .note.GNU-stack
                0x0000000000000000        0x0 obj_cooja/mtype891.a(packetbuf.o)
 .note.GNU-stack
                0x0000000000000000        0x0 obj_cooja/mtype891.a(queuebuf.o)
 .note.GNU-stack
                0x0000000000000000        0x0 obj_cooja/mtype891.a(sicslowpan.o)
 .note.GNU-stack
                0x0000000000000000        0x0 obj_cooja/mtype891.a(simple-udp.o)
 .note.GNU-stack
                0x0000000000000000        0x0 obj_cooja/mtype891.a(tcpip.o)
 .note.GNU-stack
                0x0000000000000000        0x0 obj_cooja/mtype891.a(uip-debug.o)
 .note.GNU-stack
                0x0000000000000000        0x0 obj_cooja/mtype891.a(uip-ds6-route.o)
 .note.GNU-stack
                0x0000000000000000        0x0 obj_cooja/mtype891.a(uip-ds6-nbr.o)
 .note.GNU-stack
                0x0000000000000000        0x0 obj_cooja/mtype891.a(uip-ds6.o)
 .note.GNU-stack
                0x0000000000000000        0x0 obj_cooja/mtype891.a(uip-icmp6.o)
 .note.GNU-stack
                0x0000000000000000        0x0 obj_cooja/mtype891.a(uip-nd6.o)
 .note.GNU-stack
                0x0000000000000000        0x0 obj_cooja/mtype891.a(uip-packetqueue)
 .note.GNU-stack
                0x0000000000000000        0x0 obj_cooja/mtype891.a(uip-udp-packet.)
 .note.GNU-stack
                0x0000000000000000        0x0 obj_cooja/mtype891.a(uip6.o)
 .note.GNU-stack
                0x0000000000000000        0x0 obj_cooja/mtype891.a(servreg-hack.o)
 .note.GNU-stack
                0x0000000000000000        0x0 obj_cooja/mtype891.a(simEnvChange.o)
 .note.GNU-stack
                0x0000000000000000        0x0 obj_cooja/mtype891.a(cooja_mt.o)
 .note.GNU-stack
                0x0000000000000000        0x0 obj_cooja/mtype891.a(cooja_mtarch.o)
 .note.GNU-stack
                0x0000000000000000        0x0 obj_cooja/mtype891.a(rtimer-arch.o)
 .note.GNU-stack
                0x0000000000000000        0x0 obj_cooja/mtype891.a(watchdog.o)
 .note.GNU-stack
                0x0000000000000000        0x0 obj_cooja/mtype891.a(beep.o)
 .note.GNU-stack
                0x0000000000000000        0x0 obj_cooja/mtype891.a(button-sensor.o)
 .note.GNU-stack
                0x0000000000000000        0x0 obj_cooja/mtype891.a(leds-arch.o)
 .note.GNU-stack
                0x0000000000000000        0x0 obj_cooja/mtype891.a(moteid.o)
 .note.GNU-stack
                0x0000000000000000        0x0 obj_cooja/mtype891.a(pir-sensor.o)
 .note.GNU-stack
                0x0000000000000000        0x0 obj_cooja/mtype891.a(rs232.o)
 .note.GNU-stack
                0x0000000000000000        0x0 obj_cooja/mtype891.a(vib-sensor.o)
 .note.GNU-stack
                0x0000000000000000        0x0 obj_cooja/mtype891.a(clock.o)
 .note.GNU-stack
                0x0000000000000000        0x0 obj_cooja/mtype891.a(log.o)
 .note.GNU-stack
                0x0000000000000000        0x0 obj_cooja/mtype891.a(cfs-cooja.o)
 .note.GNU-stack
                0x0000000000000000        0x0 obj_cooja/mtype891.a(cooja-radio.o)
 .note.GNU-stack
                0x0000000000000000        0x0 obj_cooja/mtype891.a(sensors.o)
 .note.GNU-stack
                0x0000000000000000        0x0 obj_cooja/mtype891.a(rimestats.o)
 .note.GNU-stack
                0x0000000000000000        0x0 obj_cooja/mtype891.a(frame802154.o)
 .note.GNU-stack
                0x0000000000000000        0x0 obj_cooja/mtype891.a(rpl.o)
 .note.GNU-stack
                0x0000000000000000        0x0 obj_cooja/mtype891.a(rpl-ext-header.)
 .note.GNU-stack
                0x0000000000000000        0x0 obj_cooja/mtype891.a(timer.o)
 .note.GNU-stack
                0x0000000000000000        0x0 obj_cooja/mtype891.a(rtimer.o)
 .group         0x0000000000000000        0x8 /usr/lib/gcc/i686-linux-gnu/4.6/crtendS.o
 .text.__i686.get_pc_thunk.bx
                0x0000000000000000        0x4 /usr/lib/gcc/i686-linux-gnu/4.6/crtendS.o
 .note.GNU-stack
                0x0000000000000000        0x0 /usr/lib/gcc/i686-linux-gnu/4.6/crtendS.o
 .note.GNU-stack
                0x0000000000000000        0x0 /usr/lib/gcc/i686-linux-gnu/4.6/../../../i386-linux-gnu/crtn.o
 .gnu_debuglink
                0x0000000000000000        0xc /usr/lib/gcc/i686-linux-gnu/4.6/../../../i386-linux-gnu/crtn.o

Memory Configuration

Name             Origin             Length             Attributes
*default*        0x0000000000000000 0xffffffffffffffff

Linker script and memory map

LOAD /usr/lib/gcc/i686-linux-gnu/4.6/../../../i386-linux-gnu/crti.o
LOAD /usr/lib/gcc/i686-linux-gnu/4.6/crtbeginS.o
LOAD server.co
LOAD obj_cooja/mtype891.o
LOAD obj_cooja/mtype891.a
LOAD /usr/lib/gcc/i686-linux-gnu/4.6/libgcc.a
LOAD /usr/lib/gcc/i686-linux-gnu/4.6/libgcc_s.so
LOAD /usr/lib/gcc/i686-linux-gnu/4.6/../../../i386-linux-gnu/libc.so
START GROUP
LOAD /lib/i386-linux-gnu/libc.so.6
LOAD /usr/lib/i386-linux-gnu/libc_nonshared.a
LOAD /lib/i386-linux-gnu/ld-linux.so.2
END GROUP
LOAD /usr/lib/gcc/i686-linux-gnu/4.6/libgcc.a
LOAD /usr/lib/gcc/i686-linux-gnu/4.6/libgcc_s.so
LOAD /usr/lib/gcc/i686-linux-gnu/4.6/crtendS.o
LOAD /usr/lib/gcc/i686-linux-gnu/4.6/../../../i386-linux-gnu/crtn.o
                0x0000000000000114                . = (0x0 + SIZEOF_HEADERS)

.note.gnu.build-id
                0x0000000000000114       0x24
 *(.note.gnu.build-id)
 .note.gnu.build-id
                0x0000000000000114       0x24 /usr/lib/gcc/i686-linux-gnu/4.6/../../../i386-linux-gnu/crti.o

.hash
 *(.hash)

.gnu.hash       0x0000000000000138      0xda0
 *(.gnu.hash)
 .gnu.hash      0x0000000000000138      0xda0 /usr/lib/gcc/i686-linux-gnu/4.6/../../../i386-linux-gnu/crti.o

.dynsym         0x0000000000000ed8     0x1ee0
 *(.dynsym)
 .dynsym        0x0000000000000ed8     0x1ee0 /usr/lib/gcc/i686-linux-gnu/4.6/../../../i386-linux-gnu/crti.o

.dynstr         0x0000000000002db8     0x1f21
 *(.dynstr)
 .dynstr        0x0000000000002db8     0x1f21 /usr/lib/gcc/i686-linux-gnu/4.6/../../../i386-linux-gnu/crti.o

.gnu.version    0x0000000000004cda      0x3dc
 *(.gnu.version)
 .gnu.version   0x0000000000004cda      0x3dc /usr/lib/gcc/i686-linux-gnu/4.6/../../../i386-linux-gnu/crti.o

.gnu.version_d  0x00000000000050b8        0x0
 *(.gnu.version_d)
 .gnu.version_d
                0x0000000000000000        0x0 /usr/lib/gcc/i686-linux-gnu/4.6/../../../i386-linux-gnu/crti.o

.gnu.version_r  0x00000000000050b8       0x40
 *(.gnu.version_r)
 .gnu.version_r
                0x00000000000050b8       0x40 /usr/lib/gcc/i686-linux-gnu/4.6/../../../i386-linux-gnu/crti.o

.rel.dyn        0x00000000000050f8     0x83d8
 *(.rel.init)
 *(.rel.text .rel.text.* .rel.gnu.linkonce.t.*)
 .rel.text      0x0000000000000000        0x0 /usr/lib/gcc/i686-linux-gnu/4.6/../../../i386-linux-gnu/crti.o
 .rel.text.receiver
                0x00000000000050f8      0x188 /usr/lib/gcc/i686-linux-gnu/4.6/../../../i386-linux-gnu/crti.o
 .rel.text.set_global_address
                0x0000000000005280       0xb0 /usr/lib/gcc/i686-linux-gnu/4.6/../../../i386-linux-gnu/crti.o
 .rel.text.create_rpl_dag
                0x0000000000005330       0x28 /usr/lib/gcc/i686-linux-gnu/4.6/../../../i386-linux-gnu/crti.o
 .rel.text.process_thread_server_process
                0x0000000000005358       0x28 /usr/lib/gcc/i686-linux-gnu/4.6/../../../i386-linux-gnu/crti.o
 .rel.text.process_thread_broadcast_process
                0x0000000000005380       0xd8 /usr/lib/gcc/i686-linux-gnu/4.6/../../../i386-linux-gnu/crti.o
 .rel.text.print_processes
                0x0000000000005458       0x28 /usr/lib/gcc/i686-linux-gnu/4.6/../../../i386-linux-gnu/crti.o
 .rel.text.rtimer_thread_loop
                0x0000000000005480       0x10 /usr/lib/gcc/i686-linux-gnu/4.6/../../../i386-linux-gnu/crti.o
 .rel.text.set_rime_addr
                0x0000000000005490       0x50 /usr/lib/gcc/i686-linux-gnu/4.6/../../../i386-linux-gnu/crti.o
 .rel.text.contiki_init
                0x00000000000054e0      0x1d0 /usr/lib/gcc/i686-linux-gnu/4.6/../../../i386-linux-gnu/crti.o
 .rel.text.process_run_thread_loop
                0x00000000000056b0       0x70 /usr/lib/gcc/i686-linux-gnu/4.6/../../../i386-linux-gnu/crti.o
 .rel.text.Java_se_sics_cooja_corecomm_Lib7_init
                0x0000000000005720       0x30 /usr/lib/gcc/i686-linux-gnu/4.6/../../../i386-linux-gnu/crti.o
 .rel.text.Java_se_sics_cooja_corecomm_Lib7_getMemory
                0x0000000000005750        0x8 /usr/lib/gcc/i686-linux-gnu/4.6/../../../i386-linux-gnu/crti.o
 .rel.text.Java_se_sics_cooja_corecomm_Lib7_setMemory
                0x0000000000005758       0x10 /usr/lib/gcc/i686-linux-gnu/4.6/../../../i386-linux-gnu/crti.o
 .rel.text.Java_se_sics_cooja_corecomm_Lib7_tick
                0x0000000000005768       0xc8 /usr/lib/gcc/i686-linux-gnu/4.6/../../../i386-linux-gnu/crti.o
 .rel.text.Java_se_sics_cooja_corecomm_Lib7_setReferenceAddress
                0x0000000000005830       0x10 /usr/lib/gcc/i686-linux-gnu/4.6/../../../i386-linux-gnu/crti.o
 .rel.text.rimeaddr_cmp
                0x0000000000005840        0x8 /usr/lib/gcc/i686-linux-gnu/4.6/../../../i386-linux-gnu/crti.o
 .rel.text.rimeaddr_set_node_addr
                0x0000000000005848       0x10 /usr/lib/gcc/i686-linux-gnu/4.6/../../../i386-linux-gnu/crti.o
 .rel.text.packetbuf_set_attr
                0x0000000000005858       0x20 /usr/lib/gcc/i686-linux-gnu/4.6/../../../i386-linux-gnu/crti.o
 .rel.text.packetbuf_attr
                0x0000000000005878       0x18 /usr/lib/gcc/i686-linux-gnu/4.6/../../../i386-linux-gnu/crti.o
 .rel.text.packetbuf_set_addr
                0x0000000000005890       0x30 /usr/lib/gcc/i686-linux-gnu/4.6/../../../i386-linux-gnu/crti.o
 .rel.text.packetbuf_addr
                0x00000000000058c0       0x30 /usr/lib/gcc/i686-linux-gnu/4.6/../../../i386-linux-gnu/crti.o
 .rel.text.send_one_packet
                0x00000000000058f0       0xd8 /usr/lib/gcc/i686-linux-gnu/4.6/../../../i386-linux-gnu/crti.o
 .rel.text.send_list
                0x00000000000059c8        0x8 /usr/lib/gcc/i686-linux-gnu/4.6/../../../i386-linux-gnu/crti.o
 .rel.text.packet_input
                0x00000000000059d0       0xd0 /usr/lib/gcc/i686-linux-gnu/4.6/../../../i386-linux-gnu/crti.o
 .rel.text.on   0x0000000000005aa0       0x10 /usr/lib/gcc/i686-linux-gnu/4.6/../../../i386-linux-gnu/crti.o
 .rel.text.off  0x0000000000005ab0       0x18 /usr/lib/gcc/i686-linux-gnu/4.6/../../../i386-linux-gnu/crti.o
 .rel.text.create
                0x0000000000005ac8       0xb0 /usr/lib/gcc/i686-linux-gnu/4.6/../../../i386-linux-gnu/crti.o
 .rel.text.parse
                0x0000000000005b78       0x30 /usr/lib/gcc/i686-linux-gnu/4.6/../../../i386-linux-gnu/crti.o
 .rel.text.neighbor_queue_from_addr
                0x0000000000005ba8       0x20 /usr/lib/gcc/i686-linux-gnu/4.6/../../../i386-linux-gnu/crti.o
 .rel.text.default_timebase
                0x0000000000005bc8        0x8 /usr/lib/gcc/i686-linux-gnu/4.6/../../../i386-linux-gnu/crti.o
 .rel.text.transmit_packet_list
                0x0000000000005bd0       0x18 /usr/lib/gcc/i686-linux-gnu/4.6/../../../i386-linux-gnu/crti.o
 .rel.text.free_packet
                0x0000000000005be8       0x70 /usr/lib/gcc/i686-linux-gnu/4.6/../../../i386-linux-gnu/crti.o
 .rel.text.packet_sent
                0x0000000000005c58       0x68 /usr/lib/gcc/i686-linux-gnu/4.6/../../../i386-linux-gnu/crti.o
 .rel.text.send_packet
                0x0000000000005cc0      0x110 /usr/lib/gcc/i686-linux-gnu/4.6/../../../i386-linux-gnu/crti.o
 .rel.text.input_packet
                0x0000000000005dd0        0x8 /usr/lib/gcc/i686-linux-gnu/4.6/../../../i386-linux-gnu/crti.o
 .rel.text.channel_check_interval
                0x0000000000005dd8       0x10 /usr/lib/gcc/i686-linux-gnu/4.6/../../../i386-linux-gnu/crti.o
 .rel.text.init
                0x0000000000005de8       0x40 /usr/lib/gcc/i686-linux-gnu/4.6/../../../i386-linux-gnu/crti.o
 .rel.text.rpl_dag_init
                0x0000000000005e28       0x18 /usr/lib/gcc/i686-linux-gnu/4.6/../../../i386-linux-gnu/crti.o
 .rel.text.rpl_get_parent_rank
                0x0000000000005e40       0x10 /usr/lib/gcc/i686-linux-gnu/4.6/../../../i386-linux-gnu/crti.o
 .rel.text.rpl_get_parent_link_metric
                0x0000000000005e50       0x10 /usr/lib/gcc/i686-linux-gnu/4.6/../../../i386-linux-gnu/crti.o
 .rel.text.rpl_get_parent_ipaddr
                0x0000000000005e60       0x18 /usr/lib/gcc/i686-linux-gnu/4.6/../../../i386-linux-gnu/crti.o
 .rel.text.rpl_set_preferred_parent
                0x0000000000005e78       0x20 /usr/lib/gcc/i686-linux-gnu/4.6/../../../i386-linux-gnu/crti.o
 .rel.text.remove_parents
                0x0000000000005e98       0x28 /usr/lib/gcc/i686-linux-gnu/4.6/../../../i386-linux-gnu/crti.o
 .rel.text.nullify_parents
                0x0000000000005ec0       0x28 /usr/lib/gcc/i686-linux-gnu/4.6/../../../i386-linux-gnu/crti.o
 .rel.text.get_dag
                0x0000000000005ee8       0x10 /usr/lib/gcc/i686-linux-gnu/4.6/../../../i386-linux-gnu/crti.o
 .rel.text.rpl_set_root
                0x0000000000005ef8       0x30 /usr/lib/gcc/i686-linux-gnu/4.6/../../../i386-linux-gnu/crti.o
 .rel.text.rpl_repair_root
                0x0000000000005f28       0x10 /usr/lib/gcc/i686-linux-gnu/4.6/../../../i386-linux-gnu/crti.o
 .rel.text.set_ip_from_prefix
                0x0000000000005f38       0x18 /usr/lib/gcc/i686-linux-gnu/4.6/../../../i386-linux-gnu/crti.o
 .rel.text.check_prefix
                0x0000000000005f50       0x30 /usr/lib/gcc/i686-linux-gnu/4.6/../../../i386-linux-gnu/crti.o
 .rel.text.rpl_set_prefix
                0x0000000000005f80       0x10 /usr/lib/gcc/i686-linux-gnu/4.6/../../../i386-linux-gnu/crti.o
 .rel.text.rpl_set_default_route
                0x0000000000005f90       0x18 /usr/lib/gcc/i686-linux-gnu/4.6/../../../i386-linux-gnu/crti.o
 .rel.text.rpl_alloc_instance
                0x0000000000005fa8        0x8 /usr/lib/gcc/i686-linux-gnu/4.6/../../../i386-linux-gnu/crti.o
 .rel.text.rpl_alloc_dag
                0x0000000000005fb0       0x18 /usr/lib/gcc/i686-linux-gnu/4.6/../../../i386-linux-gnu/crti.o
 .rel.text.rpl_set_default_instance
                0x0000000000005fc8        0x8 /usr/lib/gcc/i686-linux-gnu/4.6/../../../i386-linux-gnu/crti.o
 .rel.text.rpl_free_instance
                0x0000000000005fd0       0x30 /usr/lib/gcc/i686-linux-gnu/4.6/../../../i386-linux-gnu/crti.o
 .rel.text.rpl_free_dag
                0x0000000000006000        0x8 /usr/lib/gcc/i686-linux-gnu/4.6/../../../i386-linux-gnu/crti.o
 .rel.text.rpl_add_parent
                0x0000000000006008       0x18 /usr/lib/gcc/i686-linux-gnu/4.6/../../../i386-linux-gnu/crti.o
 .rel.text.find_parent_any_dag_any_instance
                0x0000000000006020       0x20 /usr/lib/gcc/i686-linux-gnu/4.6/../../../i386-linux-gnu/crti.o
 .rel.text.rpl_select_dag
                0x0000000000006040       0x40 /usr/lib/gcc/i686-linux-gnu/4.6/../../../i386-linux-gnu/crti.o
 .rel.text.rpl_select_parent
                0x0000000000006080       0x20 /usr/lib/gcc/i686-linux-gnu/4.6/../../../i386-linux-gnu/crti.o
 .rel.text.rpl_remove_parent
                0x00000000000060a0       0x18 /usr/lib/gcc/i686-linux-gnu/4.6/../../../i386-linux-gnu/crti.o
 .rel.text.rpl_nullify_parent
                0x00000000000060b8       0x10 /usr/lib/gcc/i686-linux-gnu/4.6/../../../i386-linux-gnu/crti.o
 .rel.text.rpl_move_parent
                0x00000000000060c8       0x28 /usr/lib/gcc/i686-linux-gnu/4.6/../../../i386-linux-gnu/crti.o
 .rel.text.rpl_get_any_dag
                0x00000000000060f0       0x18 /usr/lib/gcc/i686-linux-gnu/4.6/../../../i386-linux-gnu/crti.o
 .rel.text.rpl_get_instance
                0x0000000000006108       0x18 /usr/lib/gcc/i686-linux-gnu/4.6/../../../i386-linux-gnu/crti.o
 .rel.text.rpl_find_of
                0x0000000000006120       0x10 /usr/lib/gcc/i686-linux-gnu/4.6/../../../i386-linux-gnu/crti.o
 .rel.text.rpl_join_instance
                0x0000000000006130       0x48 /usr/lib/gcc/i686-linux-gnu/4.6/../../../i386-linux-gnu/crti.o
 .rel.text.rpl_add_dag
                0x0000000000006178       0x38 /usr/lib/gcc/i686-linux-gnu/4.6/../../../i386-linux-gnu/crti.o
 .rel.text.global_repair
                0x00000000000061b0       0x10 /usr/lib/gcc/i686-linux-gnu/4.6/../../../i386-linux-gnu/crti.o
 .rel.text.rpl_local_repair
                0x00000000000061c0        0x8 /usr/lib/gcc/i686-linux-gnu/4.6/../../../i386-linux-gnu/crti.o
 .rel.text.rpl_recalculate_ranks
                0x00000000000061c8       0x28 /usr/lib/gcc/i686-linux-gnu/4.6/../../../i386-linux-gnu/crti.o
 .rel.text.rpl_process_parent_event
                0x00000000000061f0       0x18 /usr/lib/gcc/i686-linux-gnu/4.6/../../../i386-linux-gnu/crti.o
 .rel.text.rpl_process_dio
                0x0000000000006208       0x78 /usr/lib/gcc/i686-linux-gnu/4.6/../../../i386-linux-gnu/crti.o
 .rel.text.get_global_addr
                0x0000000000006280       0x28 /usr/lib/gcc/i686-linux-gnu/4.6/../../../i386-linux-gnu/crti.o
 .rel.text.dis_input
                0x00000000000062a8       0x28 /usr/lib/gcc/i686-linux-gnu/4.6/../../../i386-linux-gnu/crti.o
 .rel.text.dis_output
                0x00000000000062d0       0x20 /usr/lib/gcc/i686-linux-gnu/4.6/../../../i386-linux-gnu/crti.o
 .rel.text.dio_input
                0x00000000000062f0       0x60 /usr/lib/gcc/i686-linux-gnu/4.6/../../../i386-linux-gnu/crti.o
 .rel.text.dio_output
                0x0000000000006350       0x28 /usr/lib/gcc/i686-linux-gnu/4.6/../../../i386-linux-gnu/crti.o
 .rel.text.dao_input
                0x0000000000006378       0x98 /usr/lib/gcc/i686-linux-gnu/4.6/../../../i386-linux-gnu/crti.o
 .rel.text.dao_output
                0x0000000000006410       0x10 /usr/lib/gcc/i686-linux-gnu/4.6/../../../i386-linux-gnu/crti.o
 .rel.text.dao_output_target
                0x0000000000006420       0x60 /usr/lib/gcc/i686-linux-gnu/4.6/../../../i386-linux-gnu/crti.o
 .rel.text.dao_ack_output
                0x0000000000006480       0x18 /usr/lib/gcc/i686-linux-gnu/4.6/../../../i386-linux-gnu/crti.o
 .rel.text.uip_rpl_input
                0x0000000000006498       0x18 /usr/lib/gcc/i686-linux-gnu/4.6/../../../i386-linux-gnu/crti.o
 .rel.text.handle_periodic_timer
                0x00000000000064b0       0x50 /usr/lib/gcc/i686-linux-gnu/4.6/../../../i386-linux-gnu/crti.o
 .rel.text.new_dio_interval
                0x0000000000006500       0x18 /usr/lib/gcc/i686-linux-gnu/4.6/../../../i386-linux-gnu/crti.o
 .rel.text.handle_dio_timer
                0x0000000000006518       0x40 /usr/lib/gcc/i686-linux-gnu/4.6/../../../i386-linux-gnu/crti.o
 .rel.text.rpl_reset_periodic_timer
                0x0000000000006558       0x28 /usr/lib/gcc/i686-linux-gnu/4.6/../../../i386-linux-gnu/crti.o
 .rel.text.handle_dao_timer
                0x0000000000006580       0x30 /usr/lib/gcc/i686-linux-gnu/4.6/../../../i386-linux-gnu/crti.o
 .rel.text.rpl_schedule_dao
                0x00000000000065b0       0x28 /usr/lib/gcc/i686-linux-gnu/4.6/../../../i386-linux-gnu/crti.o
 .rel.text.process_alloc_event
                0x00000000000065d8       0x10 /usr/lib/gcc/i686-linux-gnu/4.6/../../../i386-linux-gnu/crti.o
 .rel.text.process_start
                0x00000000000065e8       0x20 /usr/lib/gcc/i686-linux-gnu/4.6/../../../i386-linux-gnu/crti.o
 .rel.text.exit_process
                0x0000000000006608       0x50 /usr/lib/gcc/i686-linux-gnu/4.6/../../../i386-linux-gnu/crti.o
 .rel.text.call_process
                0x0000000000006658        0x8 /usr/lib/gcc/i686-linux-gnu/4.6/../../../i386-linux-gnu/crti.o
 .rel.text.process_exit
                0x0000000000006660        0x8 /usr/lib/gcc/i686-linux-gnu/4.6/../../../i386-linux-gnu/crti.o
 .rel.text.process_init
                0x0000000000006668       0x38 /usr/lib/gcc/i686-linux-gnu/4.6/../../../i386-linux-gnu/crti.o
 .rel.text.do_poll
                0x00000000000066a0       0x10 /usr/lib/gcc/i686-linux-gnu/4.6/../../../i386-linux-gnu/crti.o
 .rel.text.do_event
                0x00000000000066b0       0xe8 /usr/lib/gcc/i686-linux-gnu/4.6/../../../i386-linux-gnu/crti.o
 .rel.text.process_run
                0x0000000000006798       0x18 /usr/lib/gcc/i686-linux-gnu/4.6/../../../i386-linux-gnu/crti.o
 .rel.text.process_nevents
                0x00000000000067b0       0x10 /usr/lib/gcc/i686-linux-gnu/4.6/../../../i386-linux-gnu/crti.o
 .rel.text.process_post
                0x00000000000067c0       0x60 /usr/lib/gcc/i686-linux-gnu/4.6/../../../i386-linux-gnu/crti.o
 .rel.text.process_post_synch
                0x0000000000006820       0x10 /usr/lib/gcc/i686-linux-gnu/4.6/../../../i386-linux-gnu/crti.o
 .rel.text.process_poll
                0x0000000000006830        0x8 /usr/lib/gcc/i686-linux-gnu/4.6/../../../i386-linux-gnu/crti.o
 .rel.text.autostart_start
                0x0000000000006838        0x8 /usr/lib/gcc/i686-linux-gnu/4.6/../../../i386-linux-gnu/crti.o
 .rel.text.autostart_exit
                0x0000000000006840        0x8 /usr/lib/gcc/i686-linux-gnu/4.6/../../../i386-linux-gnu/crti.o
 .rel.text.serial_line_input_byte
                0x0000000000006848       0x48 /usr/lib/gcc/i686-linux-gnu/4.6/../../../i386-linux-gnu/crti.o
 .rel.text.process_thread_serial_line_process
                0x0000000000006890       0x90 /usr/lib/gcc/i686-linux-gnu/4.6/../../../i386-linux-gnu/crti.o
 .rel.text.serial_line_init
                0x0000000000006920       0x28 /usr/lib/gcc/i686-linux-gnu/4.6/../../../i386-linux-gnu/crti.o
 .rel.text.memb_init
                0x0000000000006948       0x10 /usr/lib/gcc/i686-linux-gnu/4.6/../../../i386-linux-gnu/crti.o
 .rel.text.list_add
                0x0000000000006958       0x10 /usr/lib/gcc/i686-linux-gnu/4.6/../../../i386-linux-gnu/crti.o
 .rel.text.list_push
                0x0000000000006968        0x8 /usr/lib/gcc/i686-linux-gnu/4.6/../../../i386-linux-gnu/crti.o
 .rel.text.list_insert
                0x0000000000006970        0x8 /usr/lib/gcc/i686-linux-gnu/4.6/../../../i386-linux-gnu/crti.o
 .rel.text.update_time
                0x0000000000006978       0x28 /usr/lib/gcc/i686-linux-gnu/4.6/../../../i386-linux-gnu/crti.o
 .rel.text.process_thread_etimer_process
                0x00000000000069a0       0x60 /usr/lib/gcc/i686-linux-gnu/4.6/../../../i386-linux-gnu/crti.o
 .rel.text.etimer_request_poll
                0x0000000000006a00       0x10 /usr/lib/gcc/i686-linux-gnu/4.6/../../../i386-linux-gnu/crti.o
 .rel.text.add_timer
                0x0000000000006a10       0x30 /usr/lib/gcc/i686-linux-gnu/4.6/../../../i386-linux-gnu/crti.o
 .rel.text.etimer_set
                0x0000000000006a40        0x8 /usr/lib/gcc/i686-linux-gnu/4.6/../../../i386-linux-gnu/crti.o
 .rel.text.etimer_reset
                0x0000000000006a48        0x8 /usr/lib/gcc/i686-linux-gnu/4.6/../../../i386-linux-gnu/crti.o
 .rel.text.etimer_restart
                0x0000000000006a50        0x8 /usr/lib/gcc/i686-linux-gnu/4.6/../../../i386-linux-gnu/crti.o
 .rel.text.etimer_pending
                0x0000000000006a58        0x8 /usr/lib/gcc/i686-linux-gnu/4.6/../../../i386-linux-gnu/crti.o
 .rel.text.etimer_next_expiration_time
                0x0000000000006a60       0x10 /usr/lib/gcc/i686-linux-gnu/4.6/../../../i386-linux-gnu/crti.o
 .rel.text.etimer_stop
                0x0000000000006a70       0x20 /usr/lib/gcc/i686-linux-gnu/4.6/../../../i386-linux-gnu/crti.o
 .rel.text.process_thread_ctimer_process
                0x0000000000006a90       0x58 /usr/lib/gcc/i686-linux-gnu/4.6/../../../i386-linux-gnu/crti.o
 .rel.text.ctimer_init
                0x0000000000006ae8       0x28 /usr/lib/gcc/i686-linux-gnu/4.6/../../../i386-linux-gnu/crti.o
 .rel.text.ctimer_set
                0x0000000000006b10       0x58 /usr/lib/gcc/i686-linux-gnu/4.6/../../../i386-linux-gnu/crti.o
 .rel.text.ctimer_reset
                0x0000000000006b68       0x50 /usr/lib/gcc/i686-linux-gnu/4.6/../../../i386-linux-gnu/crti.o
 .rel.text.ctimer_restart
                0x0000000000006bb8       0x50 /usr/lib/gcc/i686-linux-gnu/4.6/../../../i386-linux-gnu/crti.o
 .rel.text.ctimer_stop
                0x0000000000006c08       0x20 /usr/lib/gcc/i686-linux-gnu/4.6/../../../i386-linux-gnu/crti.o
 .rel.text.ctimer_expired
                0x0000000000006c28       0x20 /usr/lib/gcc/i686-linux-gnu/4.6/../../../i386-linux-gnu/crti.o
 .rel.text.stimer_set
                0x0000000000006c48        0x8 /usr/lib/gcc/i686-linux-gnu/4.6/../../../i386-linux-gnu/crti.o
 .rel.text.stimer_restart
                0x0000000000006c50        0x8 /usr/lib/gcc/i686-linux-gnu/4.6/../../../i386-linux-gnu/crti.o
 .rel.text.stimer_expired
                0x0000000000006c58        0x8 /usr/lib/gcc/i686-linux-gnu/4.6/../../../i386-linux-gnu/crti.o
 .rel.text.stimer_remaining
                0x0000000000006c60        0x8 /usr/lib/gcc/i686-linux-gnu/4.6/../../../i386-linux-gnu/crti.o
 .rel.text.stimer_elapsed
                0x0000000000006c68        0x8 /usr/lib/gcc/i686-linux-gnu/4.6/../../../i386-linux-gnu/crti.o
 .rel.text.random_init
                0x0000000000006c70        0x8 /usr/lib/gcc/i686-linux-gnu/4.6/../../../i386-linux-gnu/crti.o
 .rel.text.random_rand
                0x0000000000006c78        0x8 /usr/lib/gcc/i686-linux-gnu/4.6/../../../i386-linux-gnu/crti.o
 .rel.text.key_from_index
                0x0000000000006c80        0x8 /usr/lib/gcc/i686-linux-gnu/4.6/../../../i386-linux-gnu/crti.o
 .rel.text.index_from_key
                0x0000000000006c88        0x8 /usr/lib/gcc/i686-linux-gnu/4.6/../../../i386-linux-gnu/crti.o
 .rel.text.index_from_lladdr
                0x0000000000006c90       0x28 /usr/lib/gcc/i686-linux-gnu/4.6/../../../i386-linux-gnu/crti.o
 .rel.text.nbr_table_allocate
                0x0000000000006cb8       0x80 /usr/lib/gcc/i686-linux-gnu/4.6/../../../i386-linux-gnu/crti.o
 .rel.text.nbr_table_register
                0x0000000000006d38       0x20 /usr/lib/gcc/i686-linux-gnu/4.6/../../../i386-linux-gnu/crti.o
 .rel.text.nbr_table_head
                0x0000000000006d58       0x20 /usr/lib/gcc/i686-linux-gnu/4.6/../../../i386-linux-gnu/crti.o
 .rel.text.nbr_table_next
                0x0000000000006d78       0x10 /usr/lib/gcc/i686-linux-gnu/4.6/../../../i386-linux-gnu/crti.o
 .rel.text.nbr_table_add_lladdr
                0x0000000000006d88       0x30 /usr/lib/gcc/i686-linux-gnu/4.6/../../../i386-linux-gnu/crti.o
 .rel.text.nbr_table_get_from_lladdr
                0x0000000000006db8        0x8 /usr/lib/gcc/i686-linux-gnu/4.6/../../../i386-linux-gnu/crti.o
 .rel.text.nbr_table_remove
                0x0000000000006dc0       0x10 /usr/lib/gcc/i686-linux-gnu/4.6/../../../i386-linux-gnu/crti.o
 .rel.text.nbr_table_lock
                0x0000000000006dd0        0x8 /usr/lib/gcc/i686-linux-gnu/4.6/../../../i386-linux-gnu/crti.o
 .rel.text.nbr_table_unlock
                0x0000000000006dd8        0x8 /usr/lib/gcc/i686-linux-gnu/4.6/../../../i386-linux-gnu/crti.o
 .rel.text.netstack_init
                0x0000000000006de0       0x20 /usr/lib/gcc/i686-linux-gnu/4.6/../../../i386-linux-gnu/crti.o
 .rel.text.packetbuf_clear
                0x0000000000006e00       0x38 /usr/lib/gcc/i686-linux-gnu/4.6/../../../i386-linux-gnu/crti.o
 .rel.text.packetbuf_clear_hdr
                0x0000000000006e38        0x8 /usr/lib/gcc/i686-linux-gnu/4.6/../../../i386-linux-gnu/crti.o
 .rel.text.packetbuf_copyfrom
                0x0000000000006e40       0x20 /usr/lib/gcc/i686-linux-gnu/4.6/../../../i386-linux-gnu/crti.o
 .rel.text.packetbuf_compact
                0x0000000000006e60       0x58 /usr/lib/gcc/i686-linux-gnu/4.6/../../../i386-linux-gnu/crti.o
 .rel.text.packetbuf_copyto_hdr
                0x0000000000006eb8       0x28 /usr/lib/gcc/i686-linux-gnu/4.6/../../../i386-linux-gnu/crti.o
 .rel.text.packetbuf_copyto
                0x0000000000006ee0       0x68 /usr/lib/gcc/i686-linux-gnu/4.6/../../../i386-linux-gnu/crti.o
 .rel.text.packetbuf_hdralloc
                0x0000000000006f48       0x20 /usr/lib/gcc/i686-linux-gnu/4.6/../../../i386-linux-gnu/crti.o
 .rel.text.packetbuf_hdr_remove
                0x0000000000006f68       0x10 /usr/lib/gcc/i686-linux-gnu/4.6/../../../i386-linux-gnu/crti.o
 .rel.text.packetbuf_hdrreduce
                0x0000000000006f78       0x28 /usr/lib/gcc/i686-linux-gnu/4.6/../../../i386-linux-gnu/crti.o
 .rel.text.packetbuf_set_datalen
                0x0000000000006fa0        0x8 /usr/lib/gcc/i686-linux-gnu/4.6/../../../i386-linux-gnu/crti.o
 .rel.text.packetbuf_dataptr
                0x0000000000006fa8       0x10 /usr/lib/gcc/i686-linux-gnu/4.6/../../../i386-linux-gnu/crti.o
 .rel.text.packetbuf_hdrptr
                0x0000000000006fb8       0x10 /usr/lib/gcc/i686-linux-gnu/4.6/../../../i386-linux-gnu/crti.o
 .rel.text.packetbuf_reference
                0x0000000000006fc8       0x18 /usr/lib/gcc/i686-linux-gnu/4.6/../../../i386-linux-gnu/crti.o
 .rel.text.packetbuf_is_reference
                0x0000000000006fe0       0x10 /usr/lib/gcc/i686-linux-gnu/4.6/../../../i386-linux-gnu/crti.o
 .rel.text.packetbuf_reference_ptr
                0x0000000000006ff0        0x8 /usr/lib/gcc/i686-linux-gnu/4.6/../../../i386-linux-gnu/crti.o
 .rel.text.packetbuf_datalen
                0x0000000000006ff8        0x8 /usr/lib/gcc/i686-linux-gnu/4.6/../../../i386-linux-gnu/crti.o
 .rel.text.packetbuf_hdrlen
                0x0000000000007000        0x8 /usr/lib/gcc/i686-linux-gnu/4.6/../../../i386-linux-gnu/crti.o
 .rel.text.packetbuf_totlen
                0x0000000000007008       0x10 /usr/lib/gcc/i686-linux-gnu/4.6/../../../i386-linux-gnu/crti.o
 .rel.text.packetbuf_attr_clear
                0x0000000000007018       0x20 /usr/lib/gcc/i686-linux-gnu/4.6/../../../i386-linux-gnu/crti.o
 .rel.text.packetbuf_attr_copyto
                0x0000000000007038       0x48 /usr/lib/gcc/i686-linux-gnu/4.6/../../../i386-linux-gnu/crti.o
 .rel.text.packetbuf_attr_copyfrom
                0x0000000000007080       0x48 /usr/lib/gcc/i686-linux-gnu/4.6/../../../i386-linux-gnu/crti.o
 .rel.text.queuebuf_init
                0x00000000000070c8       0x30 /usr/lib/gcc/i686-linux-gnu/4.6/../../../i386-linux-gnu/crti.o
 .rel.text.queuebuf_new_from_packetbuf
                0x00000000000070f8       0x60 /usr/lib/gcc/i686-linux-gnu/4.6/../../../i386-linux-gnu/crti.o
 .rel.text.queuebuf_update_attr_from_packetbuf
                0x0000000000007158        0x8 /usr/lib/gcc/i686-linux-gnu/4.6/../../../i386-linux-gnu/crti.o
 .rel.text.queuebuf_free
                0x0000000000007160       0x50 /usr/lib/gcc/i686-linux-gnu/4.6/../../../i386-linux-gnu/crti.o
 .rel.text.queuebuf_to_packetbuf
                0x00000000000071b0       0x58 /usr/lib/gcc/i686-linux-gnu/4.6/../../../i386-linux-gnu/crti.o
 .rel.text.queuebuf_dataptr
                0x0000000000007208       0x20 /usr/lib/gcc/i686-linux-gnu/4.6/../../../i386-linux-gnu/crti.o
 .rel.text.rime_sniffer_add
                0x0000000000007228        0x8 /usr/lib/gcc/i686-linux-gnu/4.6/../../../i386-linux-gnu/crti.o
 .rel.text.rime_sniffer_remove
                0x0000000000007230        0x8 /usr/lib/gcc/i686-linux-gnu/4.6/../../../i386-linux-gnu/crti.o
 .rel.text.set_packet_attrs
                0x0000000000007238       0x60 /usr/lib/gcc/i686-linux-gnu/4.6/../../../i386-linux-gnu/crti.o
 .rel.text.addr_context_lookup_by_prefix
                0x0000000000007298       0x20 /usr/lib/gcc/i686-linux-gnu/4.6/../../../i386-linux-gnu/crti.o
 .rel.text.addr_context_lookup_by_number
                0x00000000000072b8       0x18 /usr/lib/gcc/i686-linux-gnu/4.6/../../../i386-linux-gnu/crti.o
 .rel.text.compress_addr_64
                0x00000000000072d0       0x30 /usr/lib/gcc/i686-linux-gnu/4.6/../../../i386-linux-gnu/crti.o
 .rel.text.uncompress_addr
                0x0000000000007300       0x38 /usr/lib/gcc/i686-linux-gnu/4.6/../../../i386-linux-gnu/crti.o
 .rel.text.compress_hdr_hc06
                0x0000000000007338      0x5a0 /usr/lib/gcc/i686-linux-gnu/4.6/../../../i386-linux-gnu/crti.o
 .rel.text.uncompress_hdr_hc06
                0x00000000000078d8      0x3e0 /usr/lib/gcc/i686-linux-gnu/4.6/../../../i386-linux-gnu/crti.o
 .rel.text.compress_hdr_ipv6
                0x0000000000007cb8       0x50 /usr/lib/gcc/i686-linux-gnu/4.6/../../../i386-linux-gnu/crti.o
 .rel.text.output
                0x0000000000007d08      0x2f8 /usr/lib/gcc/i686-linux-gnu/4.6/../../../i386-linux-gnu/crti.o
 .rel.text.input
                0x0000000000008000      0x2e8 /usr/lib/gcc/i686-linux-gnu/4.6/../../../i386-linux-gnu/crti.o
 .rel.text.sicslowpan_init
                0x00000000000082e8       0x38 /usr/lib/gcc/i686-linux-gnu/4.6/../../../i386-linux-gnu/crti.o
 .rel.text.init_simple_udp
                0x0000000000008320       0x20 /usr/lib/gcc/i686-linux-gnu/4.6/../../../i386-linux-gnu/crti.o
 .rel.text.simple_udp_send
                0x0000000000008340        0x8 /usr/lib/gcc/i686-linux-gnu/4.6/../../../i386-linux-gnu/crti.o
 .rel.text.simple_udp_sendto
                0x0000000000008348        0x8 /usr/lib/gcc/i686-linux-gnu/4.6/../../../i386-linux-gnu/crti.o
 .rel.text.simple_udp_sendto_port
                0x0000000000008350        0x8 /usr/lib/gcc/i686-linux-gnu/4.6/../../../i386-linux-gnu/crti.o
 .rel.text.simple_udp_register
                0x0000000000008358       0x28 /usr/lib/gcc/i686-linux-gnu/4.6/../../../i386-linux-gnu/crti.o
 .rel.text.process_thread_simple_udp_process
                0x0000000000008380       0x88 /usr/lib/gcc/i686-linux-gnu/4.6/../../../i386-linux-gnu/crti.o
 .rel.text.tcpip_output
                0x0000000000008408       0x10 /usr/lib/gcc/i686-linux-gnu/4.6/../../../i386-linux-gnu/crti.o
 .rel.text.tcpip_set_outputfunc
                0x0000000000008418        0x8 /usr/lib/gcc/i686-linux-gnu/4.6/../../../i386-linux-gnu/crti.o
 .rel.text.start_periodic_tcp_timer
                0x0000000000008420       0x20 /usr/lib/gcc/i686-linux-gnu/4.6/../../../i386-linux-gnu/crti.o
 .rel.text.check_for_tcp_syn
                0x0000000000008440       0x10 /usr/lib/gcc/i686-linux-gnu/4.6/../../../i386-linux-gnu/crti.o
 .rel.text.tcp_connect
                0x0000000000008450       0x18 /usr/lib/gcc/i686-linux-gnu/4.6/../../../i386-linux-gnu/crti.o
 .rel.text.tcp_unlisten
                0x0000000000008468       0x38 /usr/lib/gcc/i686-linux-gnu/4.6/../../../i386-linux-gnu/crti.o
 .rel.text.tcp_listen
                0x00000000000084a0       0x38 /usr/lib/gcc/i686-linux-gnu/4.6/../../../i386-linux-gnu/crti.o
 .rel.text.tcp_attach
                0x00000000000084d8        0x8 /usr/lib/gcc/i686-linux-gnu/4.6/../../../i386-linux-gnu/crti.o
 .rel.text.udp_attach
                0x00000000000084e0        0x8 /usr/lib/gcc/i686-linux-gnu/4.6/../../../i386-linux-gnu/crti.o
 .rel.text.udp_new
                0x00000000000084e8       0x10 /usr/lib/gcc/i686-linux-gnu/4.6/../../../i386-linux-gnu/crti.o
 .rel.text.udp_broadcast_new
                0x00000000000084f8       0x10 /usr/lib/gcc/i686-linux-gnu/4.6/../../../i386-linux-gnu/crti.o
 .rel.text.eventhandler
                0x0000000000008508      0x128 /usr/lib/gcc/i686-linux-gnu/4.6/../../../i386-linux-gnu/crti.o
 .rel.text.tcpip_input
                0x0000000000008630       0x20 /usr/lib/gcc/i686-linux-gnu/4.6/../../../i386-linux-gnu/crti.o
 .rel.text.tcpip_ipv6_output
                0x0000000000008650      0x258 /usr/lib/gcc/i686-linux-gnu/4.6/../../../i386-linux-gnu/crti.o
 .rel.text.tcpip_poll_udp
                0x00000000000088a8       0x10 /usr/lib/gcc/i686-linux-gnu/4.6/../../../i386-linux-gnu/crti.o
 .rel.text.tcpip_poll_tcp
                0x00000000000088b8       0x10 /usr/lib/gcc/i686-linux-gnu/4.6/../../../i386-linux-gnu/crti.o
 .rel.text.tcpip_uipcall
                0x00000000000088c8       0x60 /usr/lib/gcc/i686-linux-gnu/4.6/../../../i386-linux-gnu/crti.o
 .rel.text.process_thread_tcpip_process
                0x0000000000008928       0x70 /usr/lib/gcc/i686-linux-gnu/4.6/../../../i386-linux-gnu/crti.o
 .rel.text.uip_debug_ipaddr_print
                0x0000000000008998       0x40 /usr/lib/gcc/i686-linux-gnu/4.6/../../../i386-linux-gnu/crti.o
 .rel.text.uip_debug_lladdr_print
                0x00000000000089d8       0x20 /usr/lib/gcc/i686-linux-gnu/4.6/../../../i386-linux-gnu/crti.o
 .rel.text.call_route_callback
                0x00000000000089f8       0x30 /usr/lib/gcc/i686-linux-gnu/4.6/../../../i386-linux-gnu/crti.o
 .rel.text.uip_ds6_notification_add
                0x0000000000008a28       0x10 /usr/lib/gcc/i686-linux-gnu/4.6/../../../i386-linux-gnu/crti.o
 .rel.text.uip_ds6_notification_rm
                0x0000000000008a38       0x10 /usr/lib/gcc/i686-linux-gnu/4.6/../../../i386-linux-gnu/crti.o
 .rel.text.uip_ds6_route_init
                0x0000000000008a48       0x58 /usr/lib/gcc/i686-linux-gnu/4.6/../../../i386-linux-gnu/crti.o
 .rel.text.uip_ds6_route_nexthop_lladdr
                0x0000000000008aa0       0x10 /usr/lib/gcc/i686-linux-gnu/4.6/../../../i386-linux-gnu/crti.o
 .rel.text.uip_ds6_route_nexthop
                0x0000000000008ab0        0x8 /usr/lib/gcc/i686-linux-gnu/4.6/../../../i386-linux-gnu/crti.o
 .rel.text.uip_ds6_route_head
                0x0000000000008ab8       0x20 /usr/lib/gcc/i686-linux-gnu/4.6/../../../i386-linux-gnu/crti.o
 .rel.text.uip_ds6_route_next
                0x0000000000008ad8       0x20 /usr/lib/gcc/i686-linux-gnu/4.6/../../../i386-linux-gnu/crti.o
 .rel.text.uip_ds6_route_num_routes
                0x0000000000008af8        0x8 /usr/lib/gcc/i686-linux-gnu/4.6/../../../i386-linux-gnu/crti.o
 .rel.text.uip_ds6_route_lookup
                0x0000000000008b00       0x18 /usr/lib/gcc/i686-linux-gnu/4.6/../../../i386-linux-gnu/crti.o
 .rel.text.uip_ds6_route_add
                0x0000000000008b18       0x60 /usr/lib/gcc/i686-linux-gnu/4.6/../../../i386-linux-gnu/crti.o
 .rel.text.uip_ds6_route_rm
                0x0000000000008b78       0x48 /usr/lib/gcc/i686-linux-gnu/4.6/../../../i386-linux-gnu/crti.o
 .rel.text.rm_routelist
                0x0000000000008bc0       0x28 /usr/lib/gcc/i686-linux-gnu/4.6/../../../i386-linux-gnu/crti.o
 .rel.text.uip_ds6_route_rm_by_nexthop
                0x0000000000008be8       0x18 /usr/lib/gcc/i686-linux-gnu/4.6/../../../i386-linux-gnu/crti.o
 .rel.text.uip_ds6_defrt_add
                0x0000000000008c00       0x30 /usr/lib/gcc/i686-linux-gnu/4.6/../../../i386-linux-gnu/crti.o
 .rel.text.uip_ds6_defrt_rm
                0x0000000000008c30       0x38 /usr/lib/gcc/i686-linux-gnu/4.6/../../../i386-linux-gnu/crti.o
 .rel.text.uip_ds6_defrt_lookup
                0x0000000000008c68       0x20 /usr/lib/gcc/i686-linux-gnu/4.6/../../../i386-linux-gnu/crti.o
 .rel.text.uip_ds6_defrt_choose
                0x0000000000008c88       0x20 /usr/lib/gcc/i686-linux-gnu/4.6/../../../i386-linux-gnu/crti.o
 .rel.text.uip_ds6_defrt_periodic
                0x0000000000008ca8       0x38 /usr/lib/gcc/i686-linux-gnu/4.6/../../../i386-linux-gnu/crti.o
 .rel.text.uip_ds6_neighbors_init
                0x0000000000008ce0       0x18 /usr/lib/gcc/i686-linux-gnu/4.6/../../../i386-linux-gnu/crti.o
 .rel.text.uip_ds6_nbr_add
                0x0000000000008cf8       0x30 /usr/lib/gcc/i686-linux-gnu/4.6/../../../i386-linux-gnu/crti.o
 .rel.text.uip_ds6_nbr_rm
                0x0000000000008d28       0x20 /usr/lib/gcc/i686-linux-gnu/4.6/../../../i386-linux-gnu/crti.o
 .rel.text.uip_ds6_nbr_get_ll
                0x0000000000008d48       0x10 /usr/lib/gcc/i686-linux-gnu/4.6/../../../i386-linux-gnu/crti.o
 .rel.text.uip_ds6_nbr_num
                0x0000000000008d58       0x20 /usr/lib/gcc/i686-linux-gnu/4.6/../../../i386-linux-gnu/crti.o
 .rel.text.uip_ds6_nbr_lookup
                0x0000000000008d78       0x28 /usr/lib/gcc/i686-linux-gnu/4.6/../../../i386-linux-gnu/crti.o
 .rel.text.uip_ds6_nbr_ll_lookup
                0x0000000000008da0       0x10 /usr/lib/gcc/i686-linux-gnu/4.6/../../../i386-linux-gnu/crti.o
 .rel.text.uip_ds6_nbr_ipaddr_from_lladdr
                0x0000000000008db0        0x8 /usr/lib/gcc/i686-linux-gnu/4.6/../../../i386-linux-gnu/crti.o
 .rel.text.uip_ds6_nbr_lladdr_from_ipaddr
                0x0000000000008db8       0x10 /usr/lib/gcc/i686-linux-gnu/4.6/../../../i386-linux-gnu/crti.o
 .rel.text.uip_ds6_link_neighbor_callback
                0x0000000000008dc8       0x18 /usr/lib/gcc/i686-linux-gnu/4.6/../../../i386-linux-gnu/crti.o
 .rel.text.uip_ds6_neighbor_periodic
                0x0000000000008de0       0xa8 /usr/lib/gcc/i686-linux-gnu/4.6/../../../i386-linux-gnu/crti.o
 .rel.text.uip_ds6_get_least_lifetime_neighbor
                0x0000000000008e88       0x30 /usr/lib/gcc/i686-linux-gnu/4.6/../../../i386-linux-gnu/crti.o
 .rel.text.uip_ds6_init
                0x0000000000008eb8      0x170 /usr/lib/gcc/i686-linux-gnu/4.6/../../../i386-linux-gnu/crti.o
 .rel.text.uip_ds6_periodic
                0x0000000000009028       0x80 /usr/lib/gcc/i686-linux-gnu/4.6/../../../i386-linux-gnu/crti.o
 .rel.text.uip_ds6_list_loop
                0x00000000000090a8        0x8 /usr/lib/gcc/i686-linux-gnu/4.6/../../../i386-linux-gnu/crti.o
 .rel.text.uip_ds6_prefix_add
                0x00000000000090b0       0x58 /usr/lib/gcc/i686-linux-gnu/4.6/../../../i386-linux-gnu/crti.o
 .rel.text.uip_ds6_prefix_lookup
                0x0000000000009108       0x20 /usr/lib/gcc/i686-linux-gnu/4.6/../../../i386-linux-gnu/crti.o
 .rel.text.uip_ds6_is_addr_onlink
                0x0000000000009128       0x50 /usr/lib/gcc/i686-linux-gnu/4.6/../../../i386-linux-gnu/crti.o
 .rel.text.uip_ds6_addr_add
                0x0000000000009178       0xc8 /usr/lib/gcc/i686-linux-gnu/4.6/../../../i386-linux-gnu/crti.o
 .rel.text.uip_ds6_addr_rm
                0x0000000000009240       0x88 /usr/lib/gcc/i686-linux-gnu/4.6/../../../i386-linux-gnu/crti.o
 .rel.text.uip_ds6_addr_lookup
                0x00000000000092c8       0x20 /usr/lib/gcc/i686-linux-gnu/4.6/../../../i386-linux-gnu/crti.o
 .rel.text.uip_ds6_get_link_local
                0x00000000000092e8       0x58 /usr/lib/gcc/i686-linux-gnu/4.6/../../../i386-linux-gnu/crti.o
 .rel.text.uip_ds6_get_global
                0x0000000000009340       0x58 /usr/lib/gcc/i686-linux-gnu/4.6/../../../i386-linux-gnu/crti.o
 .rel.text.uip_ds6_maddr_add
                0x0000000000009398       0x30 /usr/lib/gcc/i686-linux-gnu/4.6/../../../i386-linux-gnu/crti.o
 .rel.text.uip_ds6_maddr_lookup
                0x00000000000093c8       0x20 /usr/lib/gcc/i686-linux-gnu/4.6/../../../i386-linux-gnu/crti.o
 .rel.text.uip_ds6_aaddr_add
                0x00000000000093e8       0x30 /usr/lib/gcc/i686-linux-gnu/4.6/../../../i386-linux-gnu/crti.o
 .rel.text.uip_ds6_aaddr_lookup
                0x0000000000009418       0x20 /usr/lib/gcc/i686-linux-gnu/4.6/../../../i386-linux-gnu/crti.o
 .rel.text.uip_ds6_select_src
                0x0000000000009438       0x70 /usr/lib/gcc/i686-linux-gnu/4.6/../../../i386-linux-gnu/crti.o
 .rel.text.uip_ds6_compute_reachable_time
                0x00000000000094a8       0x30 /usr/lib/gcc/i686-linux-gnu/4.6/../../../i386-linux-gnu/crti.o
 .rel.text.uip_icmp6_echo_request_input
                0x00000000000094d8      0x1f0 /usr/lib/gcc/i686-linux-gnu/4.6/../../../i386-linux-gnu/crti.o
 .rel.text.uip_icmp6_error_output
                0x00000000000096c8      0x238 /usr/lib/gcc/i686-linux-gnu/4.6/../../../i386-linux-gnu/crti.o
 .rel.text.uip_icmp6_send
                0x0000000000009900       0xb8 /usr/lib/gcc/i686-linux-gnu/4.6/../../../i386-linux-gnu/crti.o
 .rel.text.create_llao
                0x00000000000099b8       0x10 /usr/lib/gcc/i686-linux-gnu/4.6/../../../i386-linux-gnu/crti.o
 .rel.text.uip_nd6_ns_input
                0x00000000000099c8      0x378 /usr/lib/gcc/i686-linux-gnu/4.6/../../../i386-linux-gnu/crti.o
 .rel.text.uip_nd6_ns_output
                0x0000000000009d40      0x1e0 /usr/lib/gcc/i686-linux-gnu/4.6/../../../i386-linux-gnu/crti.o
 .rel.text.uip_nd6_na_input
                0x0000000000009f20      0x2d0 /usr/lib/gcc/i686-linux-gnu/4.6/../../../i386-linux-gnu/crti.o
 .rel.text.packet_timedout
                0x000000000000a1f0       0x10 /usr/lib/gcc/i686-linux-gnu/4.6/../../../i386-linux-gnu/crti.o
 .rel.text.uip_packetqueue_alloc
                0x000000000000a200       0x20 /usr/lib/gcc/i686-linux-gnu/4.6/../../../i386-linux-gnu/crti.o
 .rel.text.uip_packetqueue_free
                0x000000000000a220       0x18 /usr/lib/gcc/i686-linux-gnu/4.6/../../../i386-linux-gnu/crti.o
 .rel.text.uip_udp_packet_send
                0x000000000000a238       0x38 /usr/lib/gcc/i686-linux-gnu/4.6/../../../i386-linux-gnu/crti.o
 .rel.text.uip_udp_packet_sendto
                0x000000000000a270       0x10 /usr/lib/gcc/i686-linux-gnu/4.6/../../../i386-linux-gnu/crti.o
 .rel.text.uip_add32
                0x000000000000a280       0x98 /usr/lib/gcc/i686-linux-gnu/4.6/../../../i386-linux-gnu/crti.o
 .rel.text.uip_chksum
                0x000000000000a318        0x8 /usr/lib/gcc/i686-linux-gnu/4.6/../../../i386-linux-gnu/crti.o
 .rel.text.upper_layer_chksum
                0x000000000000a320       0x38 /usr/lib/gcc/i686-linux-gnu/4.6/../../../i386-linux-gnu/crti.o
 .rel.text.uip_init
                0x000000000000a358       0xa0 /usr/lib/gcc/i686-linux-gnu/4.6/../../../i386-linux-gnu/crti.o
 .rel.text.uip_connect
                0x000000000000a3f8       0xc0 /usr/lib/gcc/i686-linux-gnu/4.6/../../../i386-linux-gnu/crti.o
 .rel.text.remove_ext_hdr
                0x000000000000a4b8       0x98 /usr/lib/gcc/i686-linux-gnu/4.6/../../../i386-linux-gnu/crti.o
 .rel.text.uip_udp_new
                0x000000000000a550       0xb8 /usr/lib/gcc/i686-linux-gnu/4.6/../../../i386-linux-gnu/crti.o
 .rel.text.uip_unlisten
                0x000000000000a608       0x40 /usr/lib/gcc/i686-linux-gnu/4.6/../../../i386-linux-gnu/crti.o
 .rel.text.uip_listen
                0x000000000000a648       0x40 /usr/lib/gcc/i686-linux-gnu/4.6/../../../i386-linux-gnu/crti.o
 .rel.text.uip_add_rcv_nxt
                0x000000000000a688       0x50 /usr/lib/gcc/i686-linux-gnu/4.6/../../../i386-linux-gnu/crti.o
 .rel.text.ext_hdr_options_process
                0x000000000000a6d8      0x108 /usr/lib/gcc/i686-linux-gnu/4.6/../../../i386-linux-gnu/crti.o
 .rel.text.uip_process
                0x000000000000a7e0     0x1188 /usr/lib/gcc/i686-linux-gnu/4.6/../../../i386-linux-gnu/crti.o
 .rel.text.uip_send
                0x000000000000b968       0x38 /usr/lib/gcc/i686-linux-gnu/4.6/../../../i386-linux-gnu/crti.o
 .rel.text.purge_registrations
                0x000000000000b9a0       0x78 /usr/lib/gcc/i686-linux-gnu/4.6/../../../i386-linux-gnu/crti.o
 .rel.text.servreg_hack_init
                0x000000000000ba18       0x50 /usr/lib/gcc/i686-linux-gnu/4.6/../../../i386-linux-gnu/crti.o
 .rel.text.servreg_hack_register
                0x000000000000ba68       0x98 /usr/lib/gcc/i686-linux-gnu/4.6/../../../i386-linux-gnu/crti.o
 .rel.text.servreg_hack_list_head
                0x000000000000bb00       0x10 /usr/lib/gcc/i686-linux-gnu/4.6/../../../i386-linux-gnu/crti.o
 .rel.text.servreg_hack_lookup
                0x000000000000bb10       0x28 /usr/lib/gcc/i686-linux-gnu/4.6/../../../i386-linux-gnu/crti.o
 .rel.text.handle_incoming_reg
                0x000000000000bb38       0x78 /usr/lib/gcc/i686-linux-gnu/4.6/../../../i386-linux-gnu/crti.o
 .rel.text.send_udp_packet
                0x000000000000bbb0       0x58 /usr/lib/gcc/i686-linux-gnu/4.6/../../../i386-linux-gnu/crti.o
 .rel.text.process_thread_servreg_hack_process
                0x000000000000bc08       0xb0 /usr/lib/gcc/i686-linux-gnu/4.6/../../../i386-linux-gnu/crti.o
 .rel.text.doActionsBeforeTick
                0x000000000000bcb8       0x10 /usr/lib/gcc/i686-linux-gnu/4.6/../../../i386-linux-gnu/crti.o
 .rel.text.doActionsAfterTick
                0x000000000000bcc8       0x10 /usr/lib/gcc/i686-linux-gnu/4.6/../../../i386-linux-gnu/crti.o
 .rel.text.cooja_mt_init
                0x000000000000bcd8        0x8 /usr/lib/gcc/i686-linux-gnu/4.6/../../../i386-linux-gnu/crti.o
 .rel.text.cooja_mt_remove
                0x000000000000bce0        0x8 /usr/lib/gcc/i686-linux-gnu/4.6/../../../i386-linux-gnu/crti.o
 .rel.text.cooja_mt_start
                0x000000000000bce8        0x8 /usr/lib/gcc/i686-linux-gnu/4.6/../../../i386-linux-gnu/crti.o
 .rel.text.cooja_mt_exec
                0x000000000000bcf0       0x10 /usr/lib/gcc/i686-linux-gnu/4.6/../../../i386-linux-gnu/crti.o
 .rel.text.cooja_mt_exit
                0x000000000000bd00       0x18 /usr/lib/gcc/i686-linux-gnu/4.6/../../../i386-linux-gnu/crti.o
 .rel.text.cooja_mt_yield
                0x000000000000bd18       0x18 /usr/lib/gcc/i686-linux-gnu/4.6/../../../i386-linux-gnu/crti.o
 .rel.text.cooja_sw
                0x000000000000bd30        0x8 /usr/lib/gcc/i686-linux-gnu/4.6/../../../i386-linux-gnu/crti.o
 .rel.text.cooja_mtarch_exec
                0x000000000000bd38       0x18 /usr/lib/gcc/i686-linux-gnu/4.6/../../../i386-linux-gnu/crti.o
 .rel.text.cooja_mtarch_yield
                0x000000000000bd50        0x8 /usr/lib/gcc/i686-linux-gnu/4.6/../../../i386-linux-gnu/crti.o
 .rel.text.rtimer_arch_init
                0x000000000000bd58       0x18 /usr/lib/gcc/i686-linux-gnu/4.6/../../../i386-linux-gnu/crti.o
 .rel.text.rtimer_arch_schedule
                0x000000000000bd70       0x10 /usr/lib/gcc/i686-linux-gnu/4.6/../../../i386-linux-gnu/crti.o
 .rel.text.rtimer_arch_next
                0x000000000000bd80        0x8 /usr/lib/gcc/i686-linux-gnu/4.6/../../../i386-linux-gnu/crti.o
 .rel.text.rtimer_arch_pending
                0x000000000000bd88        0x8 /usr/lib/gcc/i686-linux-gnu/4.6/../../../i386-linux-gnu/crti.o
 .rel.text.rtimer_arch_check
                0x000000000000bd90       0x20 /usr/lib/gcc/i686-linux-gnu/4.6/../../../i386-linux-gnu/crti.o
 .rel.text.rtimer_arch_now
                0x000000000000bdb0       0x48 /usr/lib/gcc/i686-linux-gnu/4.6/../../../i386-linux-gnu/crti.o
 .rel.text.beep_alarm
                0x000000000000bdf8        0x8 /usr/lib/gcc/i686-linux-gnu/4.6/../../../i386-linux-gnu/crti.o
 .rel.text.beep_beep
                0x000000000000be00        0x8 /usr/lib/gcc/i686-linux-gnu/4.6/../../../i386-linux-gnu/crti.o
 .rel.text.beep
                0x000000000000be08        0x8 /usr/lib/gcc/i686-linux-gnu/4.6/../../../i386-linux-gnu/crti.o
 .rel.text.beep_down
                0x000000000000be10        0x8 /usr/lib/gcc/i686-linux-gnu/4.6/../../../i386-linux-gnu/crti.o
 .rel.text.beep_on
                0x000000000000be18        0x8 /usr/lib/gcc/i686-linux-gnu/4.6/../../../i386-linux-gnu/crti.o
 .rel.text.beep_off
                0x000000000000be20        0x8 /usr/lib/gcc/i686-linux-gnu/4.6/../../../i386-linux-gnu/crti.o
 .rel.text.beep_spinup
                0x000000000000be28        0x8 /usr/lib/gcc/i686-linux-gnu/4.6/../../../i386-linux-gnu/crti.o
 .rel.text.beep_quick
                0x000000000000be30        0x8 /usr/lib/gcc/i686-linux-gnu/4.6/../../../i386-linux-gnu/crti.o
 .rel.text.beep_long
                0x000000000000be38        0x8 /usr/lib/gcc/i686-linux-gnu/4.6/../../../i386-linux-gnu/crti.o
 .rel.text.value
                0x000000000000be40       0x28 /usr/lib/gcc/i686-linux-gnu/4.6/../../../i386-linux-gnu/crti.o
 .rel.text.configure
                0x000000000000be68       0x40 /usr/lib/gcc/i686-linux-gnu/4.6/../../../i386-linux-gnu/crti.o
 .rel.text.status
                0x000000000000bea8       0x18 /usr/lib/gcc/i686-linux-gnu/4.6/../../../i386-linux-gnu/crti.o
 .rel.text.doInterfaceActionsBeforeTick
                0x000000000000bec0      0x188 /usr/lib/gcc/i686-linux-gnu/4.6/../../../i386-linux-gnu/crti.o
 .rel.text.leds_arch_init
                0x000000000000c048        0x8 /usr/lib/gcc/i686-linux-gnu/4.6/../../../i386-linux-gnu/crti.o
 .rel.text.leds_arch_get
                0x000000000000c050        0x8 /usr/lib/gcc/i686-linux-gnu/4.6/../../../i386-linux-gnu/crti.o
 .rel.text.leds_arch_set
                0x000000000000c058       0x10 /usr/lib/gcc/i686-linux-gnu/4.6/../../../i386-linux-gnu/crti.o
 .rel.text.rs232_set_input
                0x000000000000c068        0x8 /usr/lib/gcc/i686-linux-gnu/4.6/../../../i386-linux-gnu/crti.o
 .rel.text.rs232_send
                0x000000000000c070       0x10 /usr/lib/gcc/i686-linux-gnu/4.6/../../../i386-linux-gnu/crti.o
 .rel.text.rs232_print
                0x000000000000c080       0x10 /usr/lib/gcc/i686-linux-gnu/4.6/../../../i386-linux-gnu/crti.o
 .rel.text.slip_arch_writeb
                0x000000000000c090        0x8 /usr/lib/gcc/i686-linux-gnu/4.6/../../../i386-linux-gnu/crti.o
 .rel.text.clock_time
                0x000000000000c098        0x8 /usr/lib/gcc/i686-linux-gnu/4.6/../../../i386-linux-gnu/crti.o
 .rel.text.clock_seconds
                0x000000000000c0a0        0x8 /usr/lib/gcc/i686-linux-gnu/4.6/../../../i386-linux-gnu/crti.o
 .rel.text.simlog_char
                0x000000000000c0a8       0x30 /usr/lib/gcc/i686-linux-gnu/4.6/../../../i386-linux-gnu/crti.o
 .rel.text.simlog
                0x000000000000c0d8       0x38 /usr/lib/gcc/i686-linux-gnu/4.6/../../../i386-linux-gnu/crti.o
 .rel.text.log_message
                0x000000000000c110       0x10 /usr/lib/gcc/i686-linux-gnu/4.6/../../../i386-linux-gnu/crti.o
 .rel.text.log_set_putchar_with_slip
                0x000000000000c120        0x8 /usr/lib/gcc/i686-linux-gnu/4.6/../../../i386-linux-gnu/crti.o
 .rel.text.putchar
                0x000000000000c128       0x50 /usr/lib/gcc/i686-linux-gnu/4.6/../../../i386-linux-gnu/crti.o
 .rel.text.puts
                0x000000000000c178       0x10 /usr/lib/gcc/i686-linux-gnu/4.6/../../../i386-linux-gnu/crti.o
 .rel.text.printf
                0x000000000000c188       0x20 /usr/lib/gcc/i686-linux-gnu/4.6/../../../i386-linux-gnu/crti.o
 .rel.text.cfs_open
                0x000000000000c1a8       0x30 /usr/lib/gcc/i686-linux-gnu/4.6/../../../i386-linux-gnu/crti.o
 .rel.text.cfs_close
                0x000000000000c1d8        0x8 /usr/lib/gcc/i686-linux-gnu/4.6/../../../i386-linux-gnu/crti.o
 .rel.text.cfs_read
                0x000000000000c1e0       0x70 /usr/lib/gcc/i686-linux-gnu/4.6/../../../i386-linux-gnu/crti.o
 .rel.text.cfs_write
                0x000000000000c250       0x90 /usr/lib/gcc/i686-linux-gnu/4.6/../../../i386-linux-gnu/crti.o
 .rel.text.cfs_seek
                0x000000000000c2e0       0x68 /usr/lib/gcc/i686-linux-gnu/4.6/../../../i386-linux-gnu/crti.o
 .rel.text.cfs_remove
                0x000000000000c348        0x8 /usr/lib/gcc/i686-linux-gnu/4.6/../../../i386-linux-gnu/crti.o
 .rel.text.radio_set_channel
                0x000000000000c350        0x8 /usr/lib/gcc/i686-linux-gnu/4.6/../../../i386-linux-gnu/crti.o
 .rel.text.radio_set_txpower
                0x000000000000c358        0x8 /usr/lib/gcc/i686-linux-gnu/4.6/../../../i386-linux-gnu/crti.o
 .rel.text.radio_signal_strength_last
                0x000000000000c360        0x8 /usr/lib/gcc/i686-linux-gnu/4.6/../../../i386-linux-gnu/crti.o
 .rel.text.radio_signal_strength_current
                0x000000000000c368        0x8 /usr/lib/gcc/i686-linux-gnu/4.6/../../../i386-linux-gnu/crti.o
 .rel.text.radio_on
                0x000000000000c370        0x8 /usr/lib/gcc/i686-linux-gnu/4.6/../../../i386-linux-gnu/crti.o
 .rel.text.radio_off
                0x000000000000c378        0x8 /usr/lib/gcc/i686-linux-gnu/4.6/../../../i386-linux-gnu/crti.o
 .rel.text.radio_read
                0x000000000000c380       0x50 /usr/lib/gcc/i686-linux-gnu/4.6/../../../i386-linux-gnu/crti.o
 .rel.text.channel_clear
                0x000000000000c3d0        0x8 /usr/lib/gcc/i686-linux-gnu/4.6/../../../i386-linux-gnu/crti.o
 .rel.text.radio_send
                0x000000000000c3d8       0x70 /usr/lib/gcc/i686-linux-gnu/4.6/../../../i386-linux-gnu/crti.o
 .rel.text.prepare_packet
                0x000000000000c448        0x8 /usr/lib/gcc/i686-linux-gnu/4.6/../../../i386-linux-gnu/crti.o
 .rel.text.transmit_packet
                0x000000000000c450       0x10 /usr/lib/gcc/i686-linux-gnu/4.6/../../../i386-linux-gnu/crti.o
 .rel.text.receiving_packet
                0x000000000000c460        0x8 /usr/lib/gcc/i686-linux-gnu/4.6/../../../i386-linux-gnu/crti.o
 .rel.text.pending_packet
                0x000000000000c468       0x10 /usr/lib/gcc/i686-linux-gnu/4.6/../../../i386-linux-gnu/crti.o
 .rel.text.process_thread_cooja_radio_process
                0x000000000000c478       0x20 /usr/lib/gcc/i686-linux-gnu/4.6/../../../i386-linux-gnu/crti.o
 .rel.text.get_sensor_index
                0x000000000000c498       0x10 /usr/lib/gcc/i686-linux-gnu/4.6/../../../i386-linux-gnu/crti.o
 .rel.text.sensors_first
                0x000000000000c4a8        0x8 /usr/lib/gcc/i686-linux-gnu/4.6/../../../i386-linux-gnu/crti.o
 .rel.text.sensors_next
                0x000000000000c4b0        0x8 /usr/lib/gcc/i686-linux-gnu/4.6/../../../i386-linux-gnu/crti.o
 .rel.text.sensors_changed
                0x000000000000c4b8       0x20 /usr/lib/gcc/i686-linux-gnu/4.6/../../../i386-linux-gnu/crti.o
 .rel.text.sensors_find
                0x000000000000c4d8       0x20 /usr/lib/gcc/i686-linux-gnu/4.6/../../../i386-linux-gnu/crti.o
 .rel.text.process_thread_sensors_process
                0x000000000000c4f8      0x108 /usr/lib/gcc/i686-linux-gnu/4.6/../../../i386-linux-gnu/crti.o
 .rel.text.frame802154_parse
                0x000000000000c600       0x40 /usr/lib/gcc/i686-linux-gnu/4.6/../../../i386-linux-gnu/crti.o
 .rel.text.rpl_purge_routes
                0x000000000000c640       0x50 /usr/lib/gcc/i686-linux-gnu/4.6/../../../i386-linux-gnu/crti.o
 .rel.text.rpl_remove_routes
                0x000000000000c690       0x20 /usr/lib/gcc/i686-linux-gnu/4.6/../../../i386-linux-gnu/crti.o
 .rel.text.rpl_remove_routes_by_nexthop
                0x000000000000c6b0       0x30 /usr/lib/gcc/i686-linux-gnu/4.6/../../../i386-linux-gnu/crti.o
 .rel.text.rpl_add_route
                0x000000000000c6e0        0x8 /usr/lib/gcc/i686-linux-gnu/4.6/../../../i386-linux-gnu/crti.o
 .rel.text.rpl_link_neighbor_callback
                0x000000000000c6e8       0x20 /usr/lib/gcc/i686-linux-gnu/4.6/../../../i386-linux-gnu/crti.o
 .rel.text.rpl_ipv6_neighbor_callback
                0x000000000000c708       0x10 /usr/lib/gcc/i686-linux-gnu/4.6/../../../i386-linux-gnu/crti.o
 .rel.text.rpl_init
                0x000000000000c718       0x28 /usr/lib/gcc/i686-linux-gnu/4.6/../../../i386-linux-gnu/crti.o
 .rel.text.rpl_verify_header
                0x000000000000c740       0xd0 /usr/lib/gcc/i686-linux-gnu/4.6/../../../i386-linux-gnu/crti.o
 .rel.text.set_rpl_opt
                0x000000000000c810      0x108 /usr/lib/gcc/i686-linux-gnu/4.6/../../../i386-linux-gnu/crti.o
 .rel.text.rpl_update_header_empty
                0x000000000000c918      0x120 /usr/lib/gcc/i686-linux-gnu/4.6/../../../i386-linux-gnu/crti.o
 .rel.text.rpl_update_header_final
                0x000000000000ca38       0xc0 /usr/lib/gcc/i686-linux-gnu/4.6/../../../i386-linux-gnu/crti.o
 .rel.text.rpl_remove_header
                0x000000000000caf8       0xb0 /usr/lib/gcc/i686-linux-gnu/4.6/../../../i386-linux-gnu/crti.o
 .rel.text.rpl_invert_header
                0x000000000000cba8       0xa8 /usr/lib/gcc/i686-linux-gnu/4.6/../../../i386-linux-gnu/crti.o
 .rel.text.rpl_insert_header
                0x000000000000cc50       0x20 /usr/lib/gcc/i686-linux-gnu/4.6/../../../i386-linux-gnu/crti.o
 .rel.text.timer_set
                0x000000000000cc70        0x8 /usr/lib/gcc/i686-linux-gnu/4.6/../../../i386-linux-gnu/crti.o
 .rel.text.timer_restart
                0x000000000000cc78        0x8 /usr/lib/gcc/i686-linux-gnu/4.6/../../../i386-linux-gnu/crti.o
 .rel.text.timer_expired
                0x000000000000cc80        0x8 /usr/lib/gcc/i686-linux-gnu/4.6/../../../i386-linux-gnu/crti.o
 .rel.text.timer_remaining
                0x000000000000cc88        0x8 /usr/lib/gcc/i686-linux-gnu/4.6/../../../i386-linux-gnu/crti.o
 .rel.text.rtimer_init
                0x000000000000cc90        0x8 /usr/lib/gcc/i686-linux-gnu/4.6/../../../i386-linux-gnu/crti.o
 .rel.text.rtimer_set
                0x000000000000cc98       0x18 /usr/lib/gcc/i686-linux-gnu/4.6/../../../i386-linux-gnu/crti.o
 .rel.text.rtimer_run_next
                0x000000000000ccb0       0x30 /usr/lib/gcc/i686-linux-gnu/4.6/../../../i386-linux-gnu/crti.o
 *(.rel.fini)
 *(.rel.rodata .rel.rodata.* .rel.gnu.linkonce.r.*)
 .rel.rodata    0x000000000000cce0      0x570 /usr/lib/gcc/i686-linux-gnu/4.6/../../../i386-linux-gnu/crti.o
 *(.rel.data.rel.ro* .rel.gnu.linkonce.d.rel.ro.*)
 *(.rel.data .rel.data.* .rel.gnu.linkonce.d.*)
 .rel.data.rel  0x000000000000d250        0x8 /usr/lib/gcc/i686-linux-gnu/4.6/../../../i386-linux-gnu/crti.o
 .rel.data      0x000000000000d258      0x260 /usr/lib/gcc/i686-linux-gnu/4.6/../../../i386-linux-gnu/crti.o
 *(.rel.tdata .rel.tdata.* .rel.gnu.linkonce.td.*)
 *(.rel.tbss .rel.tbss.* .rel.gnu.linkonce.tb.*)
 *(.rel.ctors)
 *(.rel.dtors)
 *(.rel.got)
 .rel.got       0x000000000000d4b8       0x18 /usr/lib/gcc/i686-linux-gnu/4.6/../../../i386-linux-gnu/crti.o
 *(.rel.bss .rel.bss.* .rel.gnu.linkonce.b.*)
 *(.rel.ifunc)
 .rel.ifunc     0x0000000000000000        0x0 /usr/lib/gcc/i686-linux-gnu/4.6/../../../i386-linux-gnu/crti.o

.rel.plt        0x000000000000d4d0       0x10
 *(.rel.plt)
 .rel.plt       0x000000000000d4d0       0x10 /usr/lib/gcc/i686-linux-gnu/4.6/../../../i386-linux-gnu/crti.o
 *(.rel.iplt)

.init           0x000000000000d4e0       0x2e
 *(.init)
 .init          0x000000000000d4e0       0x1f /usr/lib/gcc/i686-linux-gnu/4.6/../../../i386-linux-gnu/crti.o
                0x000000000000d4e0                _init
 .init          0x000000000000d4ff        0x5 /usr/lib/gcc/i686-linux-gnu/4.6/crtbeginS.o
 .init          0x000000000000d504        0x5 /usr/lib/gcc/i686-linux-gnu/4.6/crtendS.o
 .init          0x000000000000d509        0x5 /usr/lib/gcc/i686-linux-gnu/4.6/../../../i386-linux-gnu/crtn.o

.plt            0x000000000000d510       0x30
 *(.plt)
 .plt           0x000000000000d510       0x30 /usr/lib/gcc/i686-linux-gnu/4.6/../../../i386-linux-gnu/crti.o
 *(.iplt)

.text           0x000000000000d540    0x13c68
 *(.text.unlikely .text.*_unlikely)
 *(.text.exit .text.exit.*)
 *(.text.startup .text.startup.*)
 *(.text.hot .text.hot.*)
 *(.text .stub .text.* .gnu.linkonce.t.*)
 .text          0x000000000000d540        0x0 /usr/lib/gcc/i686-linux-gnu/4.6/../../../i386-linux-gnu/crti.o
 .text          0x000000000000d540       0xb7 /usr/lib/gcc/i686-linux-gnu/4.6/crtbeginS.o
 .text.__i686.get_pc_thunk.bx
                0x000000000000d5f7        0x4 /usr/lib/gcc/i686-linux-gnu/4.6/crtbeginS.o
                0x000000000000d5f7                __i686.get_pc_thunk.bx
 *fill*         0x000000000000d5fb        0x1 90909090
 .text          0x000000000000d5fc        0x0 server.co
 .text.receiver
                0x000000000000d5fc      0x4bb server.co
 .text.set_global_address
                0x000000000000dab7       0xff server.co
 .text.create_rpl_dag
                0x000000000000dbb6       0xa3 server.co
 .text.process_thread_server_process
                0x000000000000dc59       0xac server.co
 .text.process_thread_broadcast_process
                0x000000000000dd05      0x224 server.co
 *fill*         0x000000000000df29        0x3 90909090
 .text          0x000000000000df2c        0x0 obj_cooja/mtype891.o
 .text.print_processes
                0x000000000000df2c       0x49 obj_cooja/mtype891.o
 .text.rtimer_thread_loop
                0x000000000000df75       0x12 obj_cooja/mtype891.o
 .text.set_rime_addr
                0x000000000000df87       0xd1 obj_cooja/mtype891.o
 .text.contiki_init
                0x000000000000e058      0x3b0 obj_cooja/mtype891.o
                0x000000000000e058                contiki_init
 .text.process_run_thread_loop
                0x000000000000e408       0x6e obj_cooja/mtype891.o
 .text.Java_se_sics_cooja_corecomm_Lib7_init
                0x000000000000e476       0x40 obj_cooja/mtype891.o
                0x000000000000e476                Java_se_sics_cooja_corecomm_Lib7_init
 .text.Java_se_sics_cooja_corecomm_Lib7_getMemory
                0x000000000000e4b6       0x3d obj_cooja/mtype891.o
                0x000000000000e4b6                Java_se_sics_cooja_corecomm_Lib7_getMemory
 .text.Java_se_sics_cooja_corecomm_Lib7_setMemory
                0x000000000000e4f3       0x74 obj_cooja/mtype891.o
                0x000000000000e4f3                Java_se_sics_cooja_corecomm_Lib7_setMemory
 .text.Java_se_sics_cooja_corecomm_Lib7_tick
                0x000000000000e567       0xe1 obj_cooja/mtype891.o
                0x000000000000e567                Java_se_sics_cooja_corecomm_Lib7_tick
 .text.Java_se_sics_cooja_corecomm_Lib7_setReferenceAddress
                0x000000000000e648       0x12 obj_cooja/mtype891.o
                0x000000000000e648                Java_se_sics_cooja_corecomm_Lib7_setReferenceAddress
 *fill*         0x000000000000e65a        0x2 90909090
 .text          0x000000000000e65c        0x0 obj_cooja/mtype891.a(rimeaddr.o)
 .text.rimeaddr_copy
                0x000000000000e65c       0x15 obj_cooja/mtype891.a(rimeaddr.o)
                0x000000000000e65c                rimeaddr_copy
 .text.rimeaddr_cmp
                0x000000000000e671       0x2a obj_cooja/mtype891.a(rimeaddr.o)
                0x000000000000e671                rimeaddr_cmp
 .text.rimeaddr_set_node_addr
                0x000000000000e69b       0x1b obj_cooja/mtype891.a(rimeaddr.o)
                0x000000000000e69b                rimeaddr_set_node_addr
 *fill*         0x000000000000e6b6        0x2 90909090
 .text          0x000000000000e6b8        0x0 obj_cooja/mtype891.a(nullrdc.o)
 .text.packetbuf_set_attr
                0x000000000000e6b8       0x2a obj_cooja/mtype891.a(nullrdc.o)
 .text.packetbuf_attr
                0x000000000000e6e2       0x1a obj_cooja/mtype891.a(nullrdc.o)
 .text.packetbuf_set_addr
                0x000000000000e6fc       0x32 obj_cooja/mtype891.a(nullrdc.o)
 .text.packetbuf_addr
                0x000000000000e72e       0x1d obj_cooja/mtype891.a(nullrdc.o)
 .text.send_one_packet
                0x000000000000e74b      0x1f9 obj_cooja/mtype891.a(nullrdc.o)
 .text.send_packet
                0x000000000000e944       0x1a obj_cooja/mtype891.a(nullrdc.o)
 .text.send_list
                0x000000000000e95e       0x4a obj_cooja/mtype891.a(nullrdc.o)
 .text.packet_input
                0x000000000000e9a8      0x212 obj_cooja/mtype891.a(nullrdc.o)
 .text.on       0x000000000000ebba        0xf obj_cooja/mtype891.a(nullrdc.o)
 .text.off      0x000000000000ebc9       0x1e obj_cooja/mtype891.a(nullrdc.o)
 .text.channel_check_interval
                0x000000000000ebe7        0xa obj_cooja/mtype891.a(nullrdc.o)
 .text.init     0x000000000000ebf1        0xd obj_cooja/mtype891.a(nullrdc.o)
 *fill*         0x000000000000ebfe        0x2 90909090
 .text          0x000000000000ec00        0x0 obj_cooja/mtype891.a(mac.o)
 .text.mac_call_sent_callback
                0x000000000000ec00       0x3c obj_cooja/mtype891.a(mac.o)
                0x000000000000ec00                mac_call_sent_callback
 .text          0x000000000000ec3c        0x0 obj_cooja/mtype891.a(framer-802154.o)
 .text.packetbuf_set_attr
                0x000000000000ec3c       0x2a obj_cooja/mtype891.a(framer-802154.o)
 .text.packetbuf_attr
                0x000000000000ec66       0x1a obj_cooja/mtype891.a(framer-802154.o)
 .text.packetbuf_set_addr
                0x000000000000ec80       0x32 obj_cooja/mtype891.a(framer-802154.o)
 .text.packetbuf_addr
                0x000000000000ecb2       0x1d obj_cooja/mtype891.a(framer-802154.o)
 .text.is_broadcast_addr
                0x000000000000eccf       0x4d obj_cooja/mtype891.a(framer-802154.o)
 .text.create   0x000000000000ed1c      0x1cd obj_cooja/mtype891.a(framer-802154.o)
 .text.parse    0x000000000000eee9      0x12c obj_cooja/mtype891.a(framer-802154.o)
 *fill*         0x000000000000f015        0x3 90909090
 .text          0x000000000000f018        0x0 obj_cooja/mtype891.a(csma.o)
 .text.packetbuf_set_attr
                0x000000000000f018       0x2a obj_cooja/mtype891.a(csma.o)
 .text.packetbuf_attr
                0x000000000000f042       0x1a obj_cooja/mtype891.a(csma.o)
 .text.packetbuf_addr
                0x000000000000f05c       0x1d obj_cooja/mtype891.a(csma.o)
 .text.neighbor_queue_from_addr
                0x000000000000f079       0x51 obj_cooja/mtype891.a(csma.o)
 .text.default_timebase
                0x000000000000f0ca       0x25 obj_cooja/mtype891.a(csma.o)
 .text.transmit_packet_list
                0x000000000000f0ef       0x48 obj_cooja/mtype891.a(csma.o)
 .text.free_packet
                0x000000000000f137       0xe2 obj_cooja/mtype891.a(csma.o)
 .text.packet_sent
                0x000000000000f219      0x215 obj_cooja/mtype891.a(csma.o)
 .text.send_packet
                0x000000000000f42e      0x28b obj_cooja/mtype891.a(csma.o)
 .text.input_packet
                0x000000000000f6b9        0xf obj_cooja/mtype891.a(csma.o)
 .text.on       0x000000000000f6c8        0xf obj_cooja/mtype891.a(csma.o)
 .text.off      0x000000000000f6d7       0x16 obj_cooja/mtype891.a(csma.o)
 .text.channel_check_interval
                0x000000000000f6ed       0x1f obj_cooja/mtype891.a(csma.o)
 .text.init     0x000000000000f70c       0x2c obj_cooja/mtype891.a(csma.o)
 .text          0x000000000000f738        0x0 obj_cooja/mtype891.a(rpl-dag.o)
 .text.rpl_dag_init
                0x000000000000f738       0x1d obj_cooja/mtype891.a(rpl-dag.o)
                0x000000000000f738                rpl_dag_init
 .text.rpl_get_parent_rank
                0x000000000000f755       0x33 obj_cooja/mtype891.a(rpl-dag.o)
                0x000000000000f755                rpl_get_parent_rank
 .text.rpl_get_parent_link_metric
                0x000000000000f788       0x33 obj_cooja/mtype891.a(rpl-dag.o)
                0x000000000000f788                rpl_get_parent_link_metric
 .text.rpl_get_parent_ipaddr
                0x000000000000f7bb       0x2a obj_cooja/mtype891.a(rpl-dag.o)
                0x000000000000f7bb                rpl_get_parent_ipaddr
 .text.rpl_set_preferred_parent
                0x000000000000f7e5       0x4d obj_cooja/mtype891.a(rpl-dag.o)
 .text.lollipop_greater_than
                0x000000000000f832       0x65 obj_cooja/mtype891.a(rpl-dag.o)
 .text.remove_parents
                0x000000000000f897       0x61 obj_cooja/mtype891.a(rpl-dag.o)
 .text.nullify_parents
                0x000000000000f8f8       0x61 obj_cooja/mtype891.a(rpl-dag.o)
 .text.should_send_dao
                0x000000000000f959       0x5b obj_cooja/mtype891.a(rpl-dag.o)
 .text.acceptable_rank
                0x000000000000f9b4       0x98 obj_cooja/mtype891.a(rpl-dag.o)
 .text.get_dag  0x000000000000fa4c       0x88 obj_cooja/mtype891.a(rpl-dag.o)
 .text.rpl_set_root
                0x000000000000fad4      0x1d1 obj_cooja/mtype891.a(rpl-dag.o)
                0x000000000000fad4                rpl_set_root
 .text.rpl_repair_root
                0x000000000000fca5       0xd6 obj_cooja/mtype891.a(rpl-dag.o)
                0x000000000000fca5                rpl_repair_root
 .text.set_ip_from_prefix
                0x000000000000fd7b       0x6b obj_cooja/mtype891.a(rpl-dag.o)
 .text.check_prefix
                0x000000000000fde6      0x103 obj_cooja/mtype891.a(rpl-dag.o)
 .text.rpl_set_prefix
                0x000000000000fee9      0x10e obj_cooja/mtype891.a(rpl-dag.o)
                0x000000000000fee9                rpl_set_prefix
 .text.rpl_set_default_route
                0x000000000000fff7       0xa5 obj_cooja/mtype891.a(rpl-dag.o)
                0x000000000000fff7                rpl_set_default_route
 .text.rpl_alloc_instance
                0x000000000001009c       0xd9 obj_cooja/mtype891.a(rpl-dag.o)
                0x000000000001009c                rpl_alloc_instance
 .text.rpl_alloc_dag
                0x0000000000010175      0x112 obj_cooja/mtype891.a(rpl-dag.o)
                0x0000000000010175                rpl_alloc_dag
 .text.rpl_set_default_instance
                0x0000000000010287        0xd obj_cooja/mtype891.a(rpl-dag.o)
                0x0000000000010287                rpl_set_default_instance
 .text.rpl_free_instance
                0x0000000000010294       0x91 obj_cooja/mtype891.a(rpl-dag.o)
                0x0000000000010294                rpl_free_instance
 .text.rpl_free_dag
                0x0000000000010325       0x66 obj_cooja/mtype891.a(rpl-dag.o)
                0x0000000000010325                rpl_free_dag
 .text.rpl_add_parent
                0x000000000001038b       0x6a obj_cooja/mtype891.a(rpl-dag.o)
                0x000000000001038b                rpl_add_parent
 .text.find_parent_any_dag_any_instance
                0x00000000000103f5       0x38 obj_cooja/mtype891.a(rpl-dag.o)
 .text.rpl_find_parent
                0x000000000001042d       0x31 obj_cooja/mtype891.a(rpl-dag.o)
                0x000000000001042d                rpl_find_parent
 .text.find_parent_dag
                0x000000000001045e       0x29 obj_cooja/mtype891.a(rpl-dag.o)
 .text.rpl_find_parent_any_dag
                0x0000000000010487       0x3e obj_cooja/mtype891.a(rpl-dag.o)
                0x0000000000010487                rpl_find_parent_any_dag
 .text.rpl_select_dag
                0x00000000000104c5      0x31b obj_cooja/mtype891.a(rpl-dag.o)
                0x00000000000104c5                rpl_select_dag
 .text.rpl_select_parent
                0x00000000000107e0       0x92 obj_cooja/mtype891.a(rpl-dag.o)
                0x00000000000107e0                rpl_select_parent
 .text.rpl_remove_parent
                0x0000000000010872       0x27 obj_cooja/mtype891.a(rpl-dag.o)
                0x0000000000010872                rpl_remove_parent
 .text.rpl_nullify_parent
                0x0000000000010899       0x94 obj_cooja/mtype891.a(rpl-dag.o)
                0x0000000000010899                rpl_nullify_parent
 .text.rpl_move_parent
                0x000000000001092d       0xc8 obj_cooja/mtype891.a(rpl-dag.o)
                0x000000000001092d                rpl_move_parent
 .text.rpl_get_any_dag
                0x00000000000109f5       0x62 obj_cooja/mtype891.a(rpl-dag.o)
                0x00000000000109f5                rpl_get_any_dag
 .text.rpl_get_instance
                0x0000000000010a57       0x63 obj_cooja/mtype891.a(rpl-dag.o)
                0x0000000000010a57                rpl_get_instance
 .text.rpl_find_of
                0x0000000000010aba       0x47 obj_cooja/mtype891.a(rpl-dag.o)
                0x0000000000010aba                rpl_find_of
 .text.rpl_join_instance
                0x0000000000010b01      0x2a6 obj_cooja/mtype891.a(rpl-dag.o)
                0x0000000000010b01                rpl_join_instance
 .text.rpl_add_dag
                0x0000000000010da7      0x280 obj_cooja/mtype891.a(rpl-dag.o)
                0x0000000000010da7                rpl_add_dag
 .text.global_repair
                0x0000000000011027      0x105 obj_cooja/mtype891.a(rpl-dag.o)
 .text.rpl_local_repair
                0x000000000001112c       0x8c obj_cooja/mtype891.a(rpl-dag.o)
                0x000000000001112c                rpl_local_repair
 .text.rpl_recalculate_ranks
                0x00000000000111b8       0x78 obj_cooja/mtype891.a(rpl-dag.o)
                0x00000000000111b8                rpl_recalculate_ranks
 .text.rpl_process_parent_event
                0x0000000000011230       0x81 obj_cooja/mtype891.a(rpl-dag.o)
                0x0000000000011230                rpl_process_parent_event
 .text.rpl_process_dio
                0x00000000000112b1      0x43a obj_cooja/mtype891.a(rpl-dag.o)
                0x00000000000112b1                rpl_process_dio
 *fill*         0x00000000000116eb        0x1 90909090
 .text          0x00000000000116ec        0x0 obj_cooja/mtype891.a(rpl-icmp6.o)
 .text.packetbuf_addr
                0x00000000000116ec       0x1d obj_cooja/mtype891.a(rpl-icmp6.o)
 .text.get_global_addr
                0x0000000000011709       0xb7 obj_cooja/mtype891.a(rpl-icmp6.o)
 .text.get32    0x00000000000117c0       0x4f obj_cooja/mtype891.a(rpl-icmp6.o)
 .text.set32    0x000000000001180f       0x4a obj_cooja/mtype891.a(rpl-icmp6.o)
 .text.get16    0x0000000000011859       0x27 obj_cooja/mtype891.a(rpl-icmp6.o)
 .text.set16    0x0000000000011880       0x33 obj_cooja/mtype891.a(rpl-icmp6.o)
 .text.dis_input
                0x00000000000118b3       0x65 obj_cooja/mtype891.a(rpl-icmp6.o)
 .text.dis_output
                0x0000000000011918       0xaf obj_cooja/mtype891.a(rpl-icmp6.o)
                0x0000000000011918                dis_output
 .text.dio_input
                0x00000000000119c7      0x5d8 obj_cooja/mtype891.a(rpl-icmp6.o)
 .text.dio_output
                0x0000000000011f9f      0x53e obj_cooja/mtype891.a(rpl-icmp6.o)
                0x0000000000011f9f                dio_output
 .text.dao_input
                0x00000000000124dd      0x40b obj_cooja/mtype891.a(rpl-icmp6.o)
 .text.dao_output
                0x00000000000128e8       0x5c obj_cooja/mtype891.a(rpl-icmp6.o)
                0x00000000000128e8                dao_output
 .text.dao_output_target
                0x0000000000012944      0x243 obj_cooja/mtype891.a(rpl-icmp6.o)
                0x0000000000012944                dao_output_target
 .text.dao_ack_input
                0x0000000000012b87        0x5 obj_cooja/mtype891.a(rpl-icmp6.o)
 .text.dao_ack_output
                0x0000000000012b8c       0x73 obj_cooja/mtype891.a(rpl-icmp6.o)
                0x0000000000012b8c                dao_ack_output
 .text.uip_rpl_input
                0x0000000000012bff       0x63 obj_cooja/mtype891.a(rpl-icmp6.o)
                0x0000000000012bff                uip_rpl_input
 *fill*         0x0000000000012c62        0x2 90909090
 .text          0x0000000000012c64        0x0 obj_cooja/mtype891.a(rpl-timers.o)
 .text.handle_periodic_timer
                0x0000000000012c64       0x59 obj_cooja/mtype891.a(rpl-timers.o)
 .text.new_dio_interval
                0x0000000000012cbd       0xda obj_cooja/mtype891.a(rpl-timers.o)
 .text.handle_dio_timer
                0x0000000000012d97      0x11f obj_cooja/mtype891.a(rpl-timers.o)
 .text.rpl_reset_periodic_timer
                0x0000000000012eb6       0x5b obj_cooja/mtype891.a(rpl-timers.o)
                0x0000000000012eb6                rpl_reset_periodic_timer
 .text.rpl_reset_dio_timer
                0x0000000000012f11       0x48 obj_cooja/mtype891.a(rpl-timers.o)
                0x0000000000012f11                rpl_reset_dio_timer
 .text.handle_dao_timer
                0x0000000000012f59       0x92 obj_cooja/mtype891.a(rpl-timers.o)
 .text.rpl_schedule_dao
                0x0000000000012feb       0x89 obj_cooja/mtype891.a(rpl-timers.o)
                0x0000000000012feb                rpl_schedule_dao
 .text          0x0000000000013074        0x0 obj_cooja/mtype891.a(rpl-mrhof.o)
 .text.calculate_path_metric
                0x0000000000013074       0x22 obj_cooja/mtype891.a(rpl-mrhof.o)
 .text.reset    0x0000000000013096        0x5 obj_cooja/mtype891.a(rpl-mrhof.o)
 .text.neighbor_link_callback
                0x000000000001309b       0x6c obj_cooja/mtype891.a(rpl-mrhof.o)
 .text.calculate_rank
                0x0000000000013107       0x75 obj_cooja/mtype891.a(rpl-mrhof.o)
 .text.best_dag
                0x000000000001317c       0x75 obj_cooja/mtype891.a(rpl-mrhof.o)
 .text.best_parent
                0x00000000000131f1       0x92 obj_cooja/mtype891.a(rpl-mrhof.o)
 .text.update_metric_container
                0x0000000000013283        0xb obj_cooja/mtype891.a(rpl-mrhof.o)
 *fill*         0x000000000001328e        0x2 90909090
 .text          0x0000000000013290        0x0 obj_cooja/mtype891.a(process.o)
 .text.process_alloc_event
                0x0000000000013290       0x18 obj_cooja/mtype891.a(process.o)
                0x0000000000013290                process_alloc_event
 .text.process_start
                0x00000000000132a8       0x70 obj_cooja/mtype891.a(process.o)
                0x00000000000132a8                process_start
 .text.exit_process
                0x0000000000013318       0xec obj_cooja/mtype891.a(process.o)
 .text.call_process
                0x0000000000013404       0x90 obj_cooja/mtype891.a(process.o)
 .text.process_exit
                0x0000000000013494       0x1c obj_cooja/mtype891.a(process.o)
                0x0000000000013494                process_exit
 .text.process_init
                0x00000000000134b0       0x33 obj_cooja/mtype891.a(process.o)
                0x00000000000134b0                process_init
 .text.do_poll  0x00000000000134e3       0x5b obj_cooja/mtype891.a(process.o)
 .text.do_event
                0x000000000001353e      0x145 obj_cooja/mtype891.a(process.o)
 .text.process_run
                0x0000000000013683       0x33 obj_cooja/mtype891.a(process.o)
                0x0000000000013683                process_run
 .text.process_nevents
                0x00000000000136b6       0x1b obj_cooja/mtype891.a(process.o)
                0x00000000000136b6                process_nevents
 .text.process_post
                0x00000000000136d1       0xac obj_cooja/mtype891.a(process.o)
                0x00000000000136d1                process_post
 .text.process_post_synch
                0x000000000001377d       0x38 obj_cooja/mtype891.a(process.o)
                0x000000000001377d                process_post_synch
 .text.process_poll
                0x00000000000137b5       0x2f obj_cooja/mtype891.a(process.o)
                0x00000000000137b5                process_poll
 .text.process_is_running
                0x00000000000137e4       0x14 obj_cooja/mtype891.a(process.o)
                0x00000000000137e4                process_is_running
 .text          0x00000000000137f8        0x0 obj_cooja/mtype891.a(autostart.o)
 .text.autostart_start
                0x00000000000137f8       0x3f obj_cooja/mtype891.a(autostart.o)
                0x00000000000137f8                autostart_start
 .text.autostart_exit
                0x0000000000013837       0x37 obj_cooja/mtype891.a(autostart.o)
                0x0000000000013837                autostart_exit
 *fill*         0x000000000001386e        0x2 90909090
 .text          0x0000000000013870        0x0 obj_cooja/mtype891.a(serial-line.o)
 .text.serial_line_input_byte
                0x0000000000013870       0x7d obj_cooja/mtype891.a(serial-line.o)
                0x0000000000013870                serial_line_input_byte
 .text.process_thread_serial_line_process
                0x00000000000138ed      0x137 obj_cooja/mtype891.a(serial-line.o)
 .text.serial_line_init
                0x0000000000013a24       0x38 obj_cooja/mtype891.a(serial-line.o)
                0x0000000000013a24                serial_line_init
 .text          0x0000000000013a5c        0x0 obj_cooja/mtype891.a(memb.o)
 .text.memb_init
                0x0000000000013a5c       0x5e obj_cooja/mtype891.a(memb.o)
                0x0000000000013a5c                memb_init
 .text.memb_alloc
                0x0000000000013aba       0x65 obj_cooja/mtype891.a(memb.o)
                0x0000000000013aba                memb_alloc
 .text.memb_free
                0x0000000000013b1f       0x7b obj_cooja/mtype891.a(memb.o)
                0x0000000000013b1f                memb_free
 .text.memb_inmemb
                0x0000000000013b9a       0x3f obj_cooja/mtype891.a(memb.o)
                0x0000000000013b9a                memb_inmemb
 *fill*         0x0000000000013bd9        0x3 90909090
 .text          0x0000000000013bdc        0x0 obj_cooja/mtype891.a(list.o)
 .text.list_init
                0x0000000000013bdc        0xe obj_cooja/mtype891.a(list.o)
                0x0000000000013bdc                list_init
 .text.list_head
                0x0000000000013bea        0xa obj_cooja/mtype891.a(list.o)
                0x0000000000013bea                list_head
 .text.list_copy
                0x0000000000013bf4        0xf obj_cooja/mtype891.a(list.o)
                0x0000000000013bf4                list_copy
 .text.list_tail
                0x0000000000013c03       0x36 obj_cooja/mtype891.a(list.o)
                0x0000000000013c03                list_tail
 .text.list_add
                0x0000000000013c39       0x49 obj_cooja/mtype891.a(list.o)
                0x0000000000013c39                list_add
 .text.list_push
                0x0000000000013c82       0x2c obj_cooja/mtype891.a(list.o)
                0x0000000000013c82                list_push
 .text.list_chop
                0x0000000000013cae       0x6a obj_cooja/mtype891.a(list.o)
                0x0000000000013cae                list_chop
 .text.list_pop
                0x0000000000013d18       0x28 obj_cooja/mtype891.a(list.o)
                0x0000000000013d18                list_pop
 .text.list_remove
                0x0000000000013d40       0x68 obj_cooja/mtype891.a(list.o)
                0x0000000000013d40                list_remove
 .text.list_length
                0x0000000000013da8       0x2e obj_cooja/mtype891.a(list.o)
                0x0000000000013da8                list_length
 .text.list_insert
                0x0000000000013dd6       0x34 obj_cooja/mtype891.a(list.o)
                0x0000000000013dd6                list_insert
 .text.list_item_next
                0x0000000000013e0a       0x17 obj_cooja/mtype891.a(list.o)
                0x0000000000013e0a                list_item_next
 *fill*         0x0000000000013e21        0x3 90909090
 .text          0x0000000000013e24        0x0 obj_cooja/mtype891.a(etimer.o)
 .text.update_time
                0x0000000000013e24       0x8f obj_cooja/mtype891.a(etimer.o)
 .text.process_thread_etimer_process
                0x0000000000013eb3      0x190 obj_cooja/mtype891.a(etimer.o)
 .text.etimer_request_poll
                0x0000000000014043       0x14 obj_cooja/mtype891.a(etimer.o)
                0x0000000000014043                etimer_request_poll
 .text.add_timer
                0x0000000000014057       0x70 obj_cooja/mtype891.a(etimer.o)
 .text.etimer_set
                0x00000000000140c7       0x25 obj_cooja/mtype891.a(etimer.o)
                0x00000000000140c7                etimer_set
 .text.etimer_reset
                0x00000000000140ec       0x1e obj_cooja/mtype891.a(etimer.o)
                0x00000000000140ec                etimer_reset
 .text.etimer_restart
                0x000000000001410a       0x1e obj_cooja/mtype891.a(etimer.o)
                0x000000000001410a                etimer_restart
 .text.etimer_adjust
                0x0000000000014128       0x1c obj_cooja/mtype891.a(etimer.o)
                0x0000000000014128                etimer_adjust
 .text.etimer_expired
                0x0000000000014144       0x13 obj_cooja/mtype891.a(etimer.o)
                0x0000000000014144                etimer_expired
 .text.etimer_expiration_time
                0x0000000000014157       0x12 obj_cooja/mtype891.a(etimer.o)
                0x0000000000014157                etimer_expiration_time
 .text.etimer_start_time
                0x0000000000014169        0xa obj_cooja/mtype891.a(etimer.o)
                0x0000000000014169                etimer_start_time
 .text.etimer_pending
                0x0000000000014173       0x12 obj_cooja/mtype891.a(etimer.o)
                0x0000000000014173                etimer_pending
 .text.etimer_next_expiration_time
                0x0000000000014185       0x1a obj_cooja/mtype891.a(etimer.o)
                0x0000000000014185                etimer_next_expiration_time
 .text.etimer_stop
                0x000000000001419f       0x75 obj_cooja/mtype891.a(etimer.o)
                0x000000000001419f                etimer_stop
 .text          0x0000000000014214        0x0 obj_cooja/mtype891.a(ctimer.o)
 .text.process_thread_ctimer_process
                0x0000000000014214      0x11b obj_cooja/mtype891.a(ctimer.o)
 .text.ctimer_init
                0x000000000001432f       0x30 obj_cooja/mtype891.a(ctimer.o)
                0x000000000001432f                ctimer_init
 .text.ctimer_set
                0x000000000001435f       0x93 obj_cooja/mtype891.a(ctimer.o)
                0x000000000001435f                ctimer_set
 .text.ctimer_reset
                0x00000000000143f2       0x63 obj_cooja/mtype891.a(ctimer.o)
                0x00000000000143f2                ctimer_reset
 .text.ctimer_restart
                0x0000000000014455       0x63 obj_cooja/mtype891.a(ctimer.o)
                0x0000000000014455                ctimer_restart
 .text.ctimer_stop
                0x00000000000144b8       0x4b obj_cooja/mtype891.a(ctimer.o)
                0x00000000000144b8                ctimer_stop
 .text.ctimer_expired
                0x0000000000014503       0x57 obj_cooja/mtype891.a(ctimer.o)
                0x0000000000014503                ctimer_expired
 *fill*         0x000000000001455a        0x2 90909090
 .text          0x000000000001455c        0x0 obj_cooja/mtype891.a(stimer.o)
 .text.stimer_set
                0x000000000001455c       0x1b obj_cooja/mtype891.a(stimer.o)
                0x000000000001455c                stimer_set
 .text.stimer_reset
                0x0000000000014577       0x17 obj_cooja/mtype891.a(stimer.o)
                0x0000000000014577                stimer_reset
 .text.stimer_restart
                0x000000000001458e       0x12 obj_cooja/mtype891.a(stimer.o)
                0x000000000001458e                stimer_restart
 .text.stimer_expired
                0x00000000000145a0       0x27 obj_cooja/mtype891.a(stimer.o)
                0x00000000000145a0                stimer_expired
 .text.stimer_remaining
                0x00000000000145c7       0x26 obj_cooja/mtype891.a(stimer.o)
                0x00000000000145c7                stimer_remaining
 .text.stimer_elapsed
                0x00000000000145ed       0x14 obj_cooja/mtype891.a(stimer.o)
                0x00000000000145ed                stimer_elapsed
 *fill*         0x0000000000014601        0x3 90909090
 .text          0x0000000000014604        0x0 obj_cooja/mtype891.a(random.o)
 .text.random_init
                0x0000000000014604       0x1b obj_cooja/mtype891.a(random.o)
                0x0000000000014604                random_init
 .text.random_rand
                0x000000000001461f        0xd obj_cooja/mtype891.a(random.o)
                0x000000000001461f                random_rand
 .text          0x000000000001462c        0x0 obj_cooja/mtype891.a(ringbuf.o)
 .text.ringbuf_init
                0x000000000001462c       0x31 obj_cooja/mtype891.a(ringbuf.o)
                0x000000000001462c                ringbuf_init
 .text.ringbuf_put
                0x000000000001465d       0x7e obj_cooja/mtype891.a(ringbuf.o)
                0x000000000001465d                ringbuf_put
 .text.ringbuf_get
                0x00000000000146db       0x6d obj_cooja/mtype891.a(ringbuf.o)
                0x00000000000146db                ringbuf_get
 .text.ringbuf_size
                0x0000000000014748       0x12 obj_cooja/mtype891.a(ringbuf.o)
                0x0000000000014748                ringbuf_size
 .text.ringbuf_elements
                0x000000000001475a       0x27 obj_cooja/mtype891.a(ringbuf.o)
                0x000000000001475a                ringbuf_elements
 *fill*         0x0000000000014781        0x3 90909090
 .text          0x0000000000014784        0x0 obj_cooja/mtype891.a(nbr-table.o)
 .text.key_from_index
                0x0000000000014784       0x26 obj_cooja/mtype891.a(nbr-table.o)
 .text.item_from_index
                0x00000000000147aa       0x2a obj_cooja/mtype891.a(nbr-table.o)
 .text.index_from_key
                0x00000000000147d4       0x29 obj_cooja/mtype891.a(nbr-table.o)
 .text.index_from_item
                0x00000000000147fd       0x3b obj_cooja/mtype891.a(nbr-table.o)
 .text.item_from_key
                0x0000000000014838       0x22 obj_cooja/mtype891.a(nbr-table.o)
 .text.key_from_item
                0x000000000001485a       0x22 obj_cooja/mtype891.a(nbr-table.o)
 .text.index_from_lladdr
                0x000000000001487c       0x6c obj_cooja/mtype891.a(nbr-table.o)
 .text.nbr_get_bit
                0x00000000000148e8       0x51 obj_cooja/mtype891.a(nbr-table.o)
 .text.nbr_set_bit
                0x0000000000014939       0x96 obj_cooja/mtype891.a(nbr-table.o)
 .text.nbr_table_allocate
                0x00000000000149cf      0x19b obj_cooja/mtype891.a(nbr-table.o)
 .text.nbr_table_register
                0x0000000000014b6a       0x47 obj_cooja/mtype891.a(nbr-table.o)
                0x0000000000014b6a                nbr_table_register
 .text.nbr_table_head
                0x0000000000014bb1       0x5c obj_cooja/mtype891.a(nbr-table.o)
                0x0000000000014bb1                nbr_table_head
 .text.nbr_table_next
                0x0000000000014c0d       0x67 obj_cooja/mtype891.a(nbr-table.o)
                0x0000000000014c0d                nbr_table_next
 .text.nbr_table_add_lladdr
                0x0000000000014c74       0xd1 obj_cooja/mtype891.a(nbr-table.o)
                0x0000000000014c74                nbr_table_add_lladdr
 .text.nbr_table_get_from_lladdr
                0x0000000000014d45       0x4d obj_cooja/mtype891.a(nbr-table.o)
                0x0000000000014d45                nbr_table_get_from_lladdr
 .text.nbr_table_remove
                0x0000000000014d92       0x52 obj_cooja/mtype891.a(nbr-table.o)
                0x0000000000014d92                nbr_table_remove
 .text.nbr_table_lock
                0x0000000000014de4       0x2a obj_cooja/mtype891.a(nbr-table.o)
                0x0000000000014de4                nbr_table_lock
 .text.nbr_table_unlock
                0x0000000000014e0e       0x2a obj_cooja/mtype891.a(nbr-table.o)
                0x0000000000014e0e                nbr_table_unlock
 .text.nbr_table_get_lladdr
                0x0000000000014e38       0x30 obj_cooja/mtype891.a(nbr-table.o)
                0x0000000000014e38                nbr_table_get_lladdr
 .text          0x0000000000014e68        0x0 obj_cooja/mtype891.a(netstack.o)
 .text.netstack_init
                0x0000000000014e68       0x24 obj_cooja/mtype891.a(netstack.o)
                0x0000000000014e68                netstack_init
 .text          0x0000000000014e8c        0x0 obj_cooja/mtype891.a(packetbuf.o)
 .text.packetbuf_clear
                0x0000000000014e8c       0x37 obj_cooja/mtype891.a(packetbuf.o)
                0x0000000000014e8c                packetbuf_clear
 .text.packetbuf_clear_hdr
                0x0000000000014ec3        0xc obj_cooja/mtype891.a(packetbuf.o)
                0x0000000000014ec3                packetbuf_clear_hdr
 .text.packetbuf_copyfrom
                0x0000000000014ecf       0x52 obj_cooja/mtype891.a(packetbuf.o)
                0x0000000000014ecf                packetbuf_copyfrom
 .text.packetbuf_compact
                0x0000000000014f21       0x9e obj_cooja/mtype891.a(packetbuf.o)
                0x0000000000014f21                packetbuf_compact
 .text.packetbuf_copyto_hdr
                0x0000000000014fbf       0x5a obj_cooja/mtype891.a(packetbuf.o)
                0x0000000000014fbf                packetbuf_copyto_hdr
 .text.packetbuf_copyto
                0x0000000000015019       0xe3 obj_cooja/mtype891.a(packetbuf.o)
                0x0000000000015019                packetbuf_copyto
 .text.packetbuf_hdralloc
                0x00000000000150fc       0x4a obj_cooja/mtype891.a(packetbuf.o)
                0x00000000000150fc                packetbuf_hdralloc
 .text.packetbuf_hdr_remove
                0x0000000000015146       0x18 obj_cooja/mtype891.a(packetbuf.o)
                0x0000000000015146                packetbuf_hdr_remove
 .text.packetbuf_hdrreduce
                0x000000000001515e       0x4b obj_cooja/mtype891.a(packetbuf.o)
                0x000000000001515e                packetbuf_hdrreduce
 .text.packetbuf_set_datalen
                0x00000000000151a9       0x19 obj_cooja/mtype891.a(packetbuf.o)
                0x00000000000151a9                packetbuf_set_datalen
 .text.packetbuf_dataptr
                0x00000000000151c2       0x19 obj_cooja/mtype891.a(packetbuf.o)
                0x00000000000151c2                packetbuf_dataptr
 .text.packetbuf_hdrptr
                0x00000000000151db       0x17 obj_cooja/mtype891.a(packetbuf.o)
                0x00000000000151db                packetbuf_hdrptr
 .text.packetbuf_reference
                0x00000000000151f2       0x26 obj_cooja/mtype891.a(packetbuf.o)
                0x00000000000151f2                packetbuf_reference
 .text.packetbuf_is_reference
                0x0000000000015218       0x1a obj_cooja/mtype891.a(packetbuf.o)
                0x0000000000015218                packetbuf_is_reference
 .text.packetbuf_reference_ptr
                0x0000000000015232        0xa obj_cooja/mtype891.a(packetbuf.o)
                0x0000000000015232                packetbuf_reference_ptr
 .text.packetbuf_datalen
                0x000000000001523c        0xc obj_cooja/mtype891.a(packetbuf.o)
                0x000000000001523c                packetbuf_datalen
 .text.packetbuf_hdrlen
                0x0000000000015248       0x17 obj_cooja/mtype891.a(packetbuf.o)
                0x0000000000015248                packetbuf_hdrlen
 .text.packetbuf_totlen
                0x000000000001525f       0x16 obj_cooja/mtype891.a(packetbuf.o)
                0x000000000001525f                packetbuf_totlen
 .text.packetbuf_attr_clear
                0x0000000000015275       0x56 obj_cooja/mtype891.a(packetbuf.o)
                0x0000000000015275                packetbuf_attr_clear
 .text.packetbuf_attr_copyto
                0x00000000000152cb       0x9d obj_cooja/mtype891.a(packetbuf.o)
                0x00000000000152cb                packetbuf_attr_copyto
 .text.packetbuf_attr_copyfrom
                0x0000000000015368       0x9c obj_cooja/mtype891.a(packetbuf.o)
                0x0000000000015368                packetbuf_attr_copyfrom
 .text          0x0000000000015404        0x0 obj_cooja/mtype891.a(queuebuf.o)
 .text.queuebuf_load_to_ram
                0x0000000000015404        0xa obj_cooja/mtype891.a(queuebuf.o)
 .text.queuebuf_init
                0x000000000001540e       0x2c obj_cooja/mtype891.a(queuebuf.o)
                0x000000000001540e                queuebuf_init
 .text.queuebuf_new_from_packetbuf
                0x000000000001543a       0xcb obj_cooja/mtype891.a(queuebuf.o)
                0x000000000001543a                queuebuf_new_from_packetbuf
 .text.queuebuf_update_attr_from_packetbuf
                0x0000000000015505       0x33 obj_cooja/mtype891.a(queuebuf.o)
                0x0000000000015505                queuebuf_update_attr_from_packetbuf
 .text.queuebuf_free
                0x0000000000015538       0x73 obj_cooja/mtype891.a(queuebuf.o)
                0x0000000000015538                queuebuf_free
 .text.queuebuf_to_packetbuf
                0x00000000000155ab       0xe8 obj_cooja/mtype891.a(queuebuf.o)
                0x00000000000155ab                queuebuf_to_packetbuf
 .text.queuebuf_dataptr
                0x0000000000015693       0x5f obj_cooja/mtype891.a(queuebuf.o)
                0x0000000000015693                queuebuf_dataptr
 .text.queuebuf_datalen
                0x00000000000156f2       0x1f obj_cooja/mtype891.a(queuebuf.o)
                0x00000000000156f2                queuebuf_datalen
 .text.queuebuf_addr
                0x0000000000015711       0x2f obj_cooja/mtype891.a(queuebuf.o)
                0x0000000000015711                queuebuf_addr
 .text.queuebuf_attr
                0x0000000000015740       0x2b obj_cooja/mtype891.a(queuebuf.o)
                0x0000000000015740                queuebuf_attr
 .text.queuebuf_debug_print
                0x000000000001576b        0x5 obj_cooja/mtype891.a(queuebuf.o)
                0x000000000001576b                queuebuf_debug_print
 .text          0x0000000000015770        0x0 obj_cooja/mtype891.a(sicslowpan.o)
 .text.packetbuf_set_attr
                0x0000000000015770       0x2a obj_cooja/mtype891.a(sicslowpan.o)
 .text.packetbuf_set_addr
                0x000000000001579a       0x32 obj_cooja/mtype891.a(sicslowpan.o)
 .text.packetbuf_addr
                0x00000000000157cc       0x1d obj_cooja/mtype891.a(sicslowpan.o)
 .text.rime_sniffer_add
                0x00000000000157e9        0xd obj_cooja/mtype891.a(sicslowpan.o)
                0x00000000000157e9                rime_sniffer_add
 .text.rime_sniffer_remove
                0x00000000000157f6        0xf obj_cooja/mtype891.a(sicslowpan.o)
                0x00000000000157f6                rime_sniffer_remove
 .text.set_packet_attrs
                0x0000000000015805       0xe9 obj_cooja/mtype891.a(sicslowpan.o)
 .text.addr_context_lookup_by_prefix
                0x00000000000158ee       0x7a obj_cooja/mtype891.a(sicslowpan.o)
 .text.addr_context_lookup_by_number
                0x0000000000015968       0x6a obj_cooja/mtype891.a(sicslowpan.o)
 .text.compress_addr_64
                0x00000000000159d2      0x163 obj_cooja/mtype891.a(sicslowpan.o)
 .text.uncompress_addr
                0x0000000000015b35      0x12e obj_cooja/mtype891.a(sicslowpan.o)
 .text.compress_hdr_hc06
                0x0000000000015c63      0x942 obj_cooja/mtype891.a(sicslowpan.o)
 .text.uncompress_hdr_hc06
                0x00000000000165a5      0x77d obj_cooja/mtype891.a(sicslowpan.o)
 .text.compress_hdr_ipv6
                0x0000000000016d22       0x8d obj_cooja/mtype891.a(sicslowpan.o)
 .text.packet_sent
                0x0000000000016daf       0x3b obj_cooja/mtype891.a(sicslowpan.o)
 .text.send_packet
                0x0000000000016dea       0x36 obj_cooja/mtype891.a(sicslowpan.o)
 .text.output   0x0000000000016e20      0x54f obj_cooja/mtype891.a(sicslowpan.o)
 .text.input    0x000000000001736f      0x54f obj_cooja/mtype891.a(sicslowpan.o)
 .text.sicslowpan_init
                0x00000000000178be       0x57 obj_cooja/mtype891.a(sicslowpan.o)
                0x00000000000178be                sicslowpan_init
 *fill*         0x0000000000017915        0x3 90909090
 .text          0x0000000000017918        0x0 obj_cooja/mtype891.a(simple-udp.o)
 .text.init_simple_udp
                0x0000000000017918       0x2e obj_cooja/mtype891.a(simple-udp.o)
 .text.simple_udp_send
                0x0000000000017946       0x6d obj_cooja/mtype891.a(simple-udp.o)
                0x0000000000017946                simple_udp_send
 .text.simple_udp_sendto
                0x00000000000179b3       0x65 obj_cooja/mtype891.a(simple-udp.o)
                0x00000000000179b3                simple_udp_sendto
 .text.simple_udp_sendto_port
                0x0000000000017a18       0x63 obj_cooja/mtype891.a(simple-udp.o)
                0x0000000000017a18                simple_udp_sendto_port
 .text.simple_udp_register
                0x0000000000017a7b       0xe6 obj_cooja/mtype891.a(simple-udp.o)
                0x0000000000017a7b                simple_udp_register
 .text.process_thread_simple_udp_process
                0x0000000000017b61      0x15b obj_cooja/mtype891.a(simple-udp.o)
 .text          0x0000000000017cbc        0x0 obj_cooja/mtype891.a(tcpip.o)
 .text.tcpip_output
                0x0000000000017cbc       0x2f obj_cooja/mtype891.a(tcpip.o)
                0x0000000000017cbc                tcpip_output
 .text.tcpip_set_outputfunc
                0x0000000000017ceb        0xd obj_cooja/mtype891.a(tcpip.o)
                0x0000000000017ceb                tcpip_set_outputfunc
 .text.start_periodic_tcp_timer
                0x0000000000017cf8       0x24 obj_cooja/mtype891.a(tcpip.o)
 .text.check_for_tcp_syn
                0x0000000000017d1c       0x2d obj_cooja/mtype891.a(tcpip.o)
 .text.packet_input
                0x0000000000017d49       0x36 obj_cooja/mtype891.a(tcpip.o)
 .text.tcp_connect
                0x0000000000017d7f       0x55 obj_cooja/mtype891.a(tcpip.o)
                0x0000000000017d7f                tcp_connect
 .text.tcp_unlisten
                0x0000000000017dd4       0x6e obj_cooja/mtype891.a(tcpip.o)
                0x0000000000017dd4                tcp_unlisten
 .text.tcp_listen
                0x0000000000017e42       0x6c obj_cooja/mtype891.a(tcpip.o)
                0x0000000000017e42                tcp_listen
 .text.tcp_attach
                0x0000000000017eae       0x25 obj_cooja/mtype891.a(tcpip.o)
                0x0000000000017eae                tcp_attach
 .text.udp_attach
                0x0000000000017ed3       0x25 obj_cooja/mtype891.a(tcpip.o)
                0x0000000000017ed3                udp_attach
 .text.udp_new  0x0000000000017ef8       0x52 obj_cooja/mtype891.a(tcpip.o)
                0x0000000000017ef8                udp_new
 .text.udp_broadcast_new
                0x0000000000017f4a       0x92 obj_cooja/mtype891.a(tcpip.o)
                0x0000000000017f4a                udp_broadcast_new
 .text.eventhandler
                0x0000000000017fdc      0x21b obj_cooja/mtype891.a(tcpip.o)
 .text.tcpip_input
                0x00000000000181f7       0x34 obj_cooja/mtype891.a(tcpip.o)
                0x00000000000181f7                tcpip_input
 .text.tcpip_ipv6_output
                0x000000000001822b      0x483 obj_cooja/mtype891.a(tcpip.o)
                0x000000000001822b                tcpip_ipv6_output
 .text.tcpip_poll_udp
                0x00000000000186ae       0x23 obj_cooja/mtype891.a(tcpip.o)
                0x00000000000186ae                tcpip_poll_udp
 .text.tcpip_poll_tcp
                0x00000000000186d1       0x23 obj_cooja/mtype891.a(tcpip.o)
                0x00000000000186d1                tcpip_poll_tcp
 .text.tcpip_uipcall
                0x00000000000186f4       0xd0 obj_cooja/mtype891.a(tcpip.o)
                0x00000000000186f4                tcpip_uipcall
 .text.process_thread_tcpip_process
                0x00000000000187c4       0xd3 obj_cooja/mtype891.a(tcpip.o)
 *fill*         0x0000000000018897        0x1 90909090
 .text          0x0000000000018898        0x0 obj_cooja/mtype891.a(uip-debug.o)
 .text.uip_debug_ipaddr_print
                0x0000000000018898       0xd3 obj_cooja/mtype891.a(uip-debug.o)
                0x0000000000018898                uip_debug_ipaddr_print
 .text.uip_debug_lladdr_print
                0x000000000001896b       0x4d obj_cooja/mtype891.a(uip-debug.o)
                0x000000000001896b                uip_debug_lladdr_print
 .text          0x00000000000189b8        0x0 obj_cooja/mtype891.a(uip-ds6-route.o)
 .text.call_route_callback
                0x00000000000189b8       0x77 obj_cooja/mtype891.a(uip-ds6-route.o)
 .text.uip_ds6_notification_add
                0x0000000000018a2f       0x31 obj_cooja/mtype891.a(uip-ds6-route.o)
                0x0000000000018a2f                uip_ds6_notification_add
 .text.uip_ds6_notification_rm
                0x0000000000018a60       0x1c obj_cooja/mtype891.a(uip-ds6-route.o)
                0x0000000000018a60                uip_ds6_notification_rm
 .text.uip_ds6_route_init
                0x0000000000018a7c       0x4f obj_cooja/mtype891.a(uip-ds6-route.o)
                0x0000000000018a7c                uip_ds6_route_init
 .text.uip_ds6_route_nexthop_lladdr
                0x0000000000018acb       0x2c obj_cooja/mtype891.a(uip-ds6-route.o)
 .text.uip_ds6_route_nexthop
                0x0000000000018af7       0x28 obj_cooja/mtype891.a(uip-ds6-route.o)
                0x0000000000018af7                uip_ds6_route_nexthop
 .text.uip_ds6_route_head
                0x0000000000018b1f       0x41 obj_cooja/mtype891.a(uip-ds6-route.o)
                0x0000000000018b1f                uip_ds6_route_head
 .text.uip_ds6_route_next
                0x0000000000018b60       0x5c obj_cooja/mtype891.a(uip-ds6-route.o)
                0x0000000000018b60                uip_ds6_route_next
 .text.uip_ds6_route_num_routes
                0x0000000000018bbc        0xa obj_cooja/mtype891.a(uip-ds6-route.o)
                0x0000000000018bbc                uip_ds6_route_num_routes
 .text.uip_ds6_route_lookup
                0x0000000000018bc6       0x7a obj_cooja/mtype891.a(uip-ds6-route.o)
                0x0000000000018bc6                uip_ds6_route_lookup
 .text.uip_ds6_route_add
                0x0000000000018c40      0x150 obj_cooja/mtype891.a(uip-ds6-route.o)
                0x0000000000018c40                uip_ds6_route_add
 .text.uip_ds6_route_rm
                0x0000000000018d90       0xac obj_cooja/mtype891.a(uip-ds6-route.o)
                0x0000000000018d90                uip_ds6_route_rm
 .text.rm_routelist
                0x0000000000018e3c       0x61 obj_cooja/mtype891.a(uip-ds6-route.o)
 .text.rm_routelist_callback
                0x0000000000018e9d       0x13 obj_cooja/mtype891.a(uip-ds6-route.o)
 .text.uip_ds6_route_rm_by_nexthop
                0x0000000000018eb0       0x38 obj_cooja/mtype891.a(uip-ds6-route.o)
                0x0000000000018eb0                uip_ds6_route_rm_by_nexthop
 .text.uip_ds6_defrt_add
                0x0000000000018ee8       0xb1 obj_cooja/mtype891.a(uip-ds6-route.o)
                0x0000000000018ee8                uip_ds6_defrt_add
 .text.uip_ds6_defrt_rm
                0x0000000000018f99       0x7f obj_cooja/mtype891.a(uip-ds6-route.o)
                0x0000000000018f99                uip_ds6_defrt_rm
 .text.uip_ds6_defrt_lookup
                0x0000000000019018       0x59 obj_cooja/mtype891.a(uip-ds6-route.o)
                0x0000000000019018                uip_ds6_defrt_lookup
 .text.uip_ds6_defrt_choose
                0x0000000000019071       0x6b obj_cooja/mtype891.a(uip-ds6-route.o)
                0x0000000000019071                uip_ds6_defrt_choose
 .text.uip_ds6_defrt_periodic
                0x00000000000190dc       0x68 obj_cooja/mtype891.a(uip-ds6-route.o)
                0x00000000000190dc                uip_ds6_defrt_periodic
 .text          0x0000000000019144        0x0 obj_cooja/mtype891.a(uip-ds6-nbr.o)
 .text.packetbuf_addr
                0x0000000000019144       0x1d obj_cooja/mtype891.a(uip-ds6-nbr.o)
 .text.uip_ds6_neighbors_init
                0x0000000000019161       0x1d obj_cooja/mtype891.a(uip-ds6-nbr.o)
                0x0000000000019161                uip_ds6_neighbors_init
 .text.uip_ds6_nbr_add
                0x000000000001917e       0xbb obj_cooja/mtype891.a(uip-ds6-nbr.o)
                0x000000000001917e                uip_ds6_nbr_add
 .text.uip_ds6_nbr_rm
                0x0000000000019239       0x3b obj_cooja/mtype891.a(uip-ds6-nbr.o)
                0x0000000000019239                uip_ds6_nbr_rm
 .text.uip_ds6_nbr_get_ipaddr
                0x0000000000019274       0x15 obj_cooja/mtype891.a(uip-ds6-nbr.o)
                0x0000000000019274                uip_ds6_nbr_get_ipaddr
 .text.uip_ds6_nbr_get_ll
                0x0000000000019289       0x1c obj_cooja/mtype891.a(uip-ds6-nbr.o)
                0x0000000000019289                uip_ds6_nbr_get_ll
 .text.uip_ds6_nbr_num
                0x00000000000192a5       0x45 obj_cooja/mtype891.a(uip-ds6-nbr.o)
                0x00000000000192a5                uip_ds6_nbr_num
 .text.uip_ds6_nbr_lookup
                0x00000000000192ea       0x65 obj_cooja/mtype891.a(uip-ds6-nbr.o)
                0x00000000000192ea                uip_ds6_nbr_lookup
 .text.uip_ds6_nbr_ll_lookup
                0x000000000001934f       0x1c obj_cooja/mtype891.a(uip-ds6-nbr.o)
                0x000000000001934f                uip_ds6_nbr_ll_lookup
 .text.uip_ds6_nbr_ipaddr_from_lladdr
                0x000000000001936b       0x26 obj_cooja/mtype891.a(uip-ds6-nbr.o)
                0x000000000001936b                uip_ds6_nbr_ipaddr_from_lladdr
 .text.uip_ds6_nbr_lladdr_from_ipaddr
                0x0000000000019391       0x2e obj_cooja/mtype891.a(uip-ds6-nbr.o)
                0x0000000000019391                uip_ds6_nbr_lladdr_from_ipaddr
 .text.uip_ds6_link_neighbor_callback
                0x00000000000193bf       0x4a obj_cooja/mtype891.a(uip-ds6-nbr.o)
                0x00000000000193bf                uip_ds6_link_neighbor_callback
 .text.uip_ds6_neighbor_periodic
                0x0000000000019409      0x22a obj_cooja/mtype891.a(uip-ds6-nbr.o)
                0x0000000000019409                uip_ds6_neighbor_periodic
 .text.uip_ds6_get_least_lifetime_neighbor
                0x0000000000019633       0x79 obj_cooja/mtype891.a(uip-ds6-nbr.o)
                0x0000000000019633                uip_ds6_get_least_lifetime_neighbor
 .text          0x00000000000196ac        0x0 obj_cooja/mtype891.a(uip-ds6.o)
 .text.uip_ds6_init
                0x00000000000196ac      0x1cb obj_cooja/mtype891.a(uip-ds6.o)
                0x00000000000196ac                uip_ds6_init
 .text.uip_ds6_periodic
                0x0000000000019877       0x7d obj_cooja/mtype891.a(uip-ds6.o)
                0x0000000000019877                uip_ds6_periodic
 .text.uip_ds6_list_loop
                0x00000000000198f4       0xa3 obj_cooja/mtype891.a(uip-ds6.o)
                0x00000000000198f4                uip_ds6_list_loop
 .text.uip_ds6_prefix_add
                0x0000000000019997       0xbe obj_cooja/mtype891.a(uip-ds6.o)
                0x0000000000019997                uip_ds6_prefix_add
 .text.uip_ds6_prefix_rm
                0x0000000000019a55       0x11 obj_cooja/mtype891.a(uip-ds6.o)
                0x0000000000019a55                uip_ds6_prefix_rm
 .text.uip_ds6_prefix_lookup
                0x0000000000019a66       0x51 obj_cooja/mtype891.a(uip-ds6.o)
                0x0000000000019a66                uip_ds6_prefix_lookup
 .text.uip_ds6_is_addr_onlink
                0x0000000000019ab7       0x74 obj_cooja/mtype891.a(uip-ds6.o)
                0x0000000000019ab7                uip_ds6_is_addr_onlink
 .text.uip_ds6_addr_add
                0x0000000000019b2b      0x12e obj_cooja/mtype891.a(uip-ds6.o)
                0x0000000000019b2b                uip_ds6_addr_add
 .text.uip_ds6_addr_rm
                0x0000000000019c59       0x9f obj_cooja/mtype891.a(uip-ds6.o)
                0x0000000000019c59                uip_ds6_addr_rm
 .text.uip_ds6_addr_lookup
                0x0000000000019cf8       0x4b obj_cooja/mtype891.a(uip-ds6.o)
                0x0000000000019cf8                uip_ds6_addr_lookup
 .text.uip_ds6_get_link_local
                0x0000000000019d43       0x7f obj_cooja/mtype891.a(uip-ds6.o)
                0x0000000000019d43                uip_ds6_get_link_local
 .text.uip_ds6_get_global
                0x0000000000019dc2       0x7f obj_cooja/mtype891.a(uip-ds6.o)
                0x0000000000019dc2                uip_ds6_get_global
 .text.uip_ds6_maddr_add
                0x0000000000019e41       0x72 obj_cooja/mtype891.a(uip-ds6.o)
                0x0000000000019e41                uip_ds6_maddr_add
 .text.uip_ds6_maddr_rm
                0x0000000000019eb3       0x11 obj_cooja/mtype891.a(uip-ds6.o)
                0x0000000000019eb3                uip_ds6_maddr_rm
 .text.uip_ds6_maddr_lookup
                0x0000000000019ec4       0x4b obj_cooja/mtype891.a(uip-ds6.o)
                0x0000000000019ec4                uip_ds6_maddr_lookup
 .text.uip_ds6_aaddr_add
                0x0000000000019f0f       0x72 obj_cooja/mtype891.a(uip-ds6.o)
                0x0000000000019f0f                uip_ds6_aaddr_add
 .text.uip_ds6_aaddr_rm
                0x0000000000019f81       0x11 obj_cooja/mtype891.a(uip-ds6.o)
                0x0000000000019f81                uip_ds6_aaddr_rm
 .text.uip_ds6_aaddr_lookup
                0x0000000000019f92       0x4b obj_cooja/mtype891.a(uip-ds6.o)
                0x0000000000019f92                uip_ds6_aaddr_lookup
 .text.uip_ds6_select_src
                0x0000000000019fdd      0x145 obj_cooja/mtype891.a(uip-ds6.o)
                0x0000000000019fdd                uip_ds6_select_src
 .text.uip_ds6_set_addr_iid
                0x000000000001a122       0x2a obj_cooja/mtype891.a(uip-ds6.o)
                0x000000000001a122                uip_ds6_set_addr_iid
 .text.get_match_length
                0x000000000001a14c       0x7f obj_cooja/mtype891.a(uip-ds6.o)
                0x000000000001a14c                get_match_length
 .text.uip_ds6_compute_reachable_time
                0x000000000001a1cb       0x4c obj_cooja/mtype891.a(uip-ds6.o)
                0x000000000001a1cb                uip_ds6_compute_reachable_time
 *fill*         0x000000000001a217        0x1 90909090
 .text          0x000000000001a218        0x0 obj_cooja/mtype891.a(uip-icmp6.o)
 .text.uip_icmp6_echo_request_input
                0x000000000001a218      0x2b5 obj_cooja/mtype891.a(uip-icmp6.o)
                0x000000000001a218                uip_icmp6_echo_request_input
 .text.uip_icmp6_error_output
                0x000000000001a4cd      0x32b obj_cooja/mtype891.a(uip-icmp6.o)
                0x000000000001a4cd                uip_icmp6_error_output
 .text.uip_icmp6_send
                0x000000000001a7f8      0x10a obj_cooja/mtype891.a(uip-icmp6.o)
                0x000000000001a7f8                uip_icmp6_send
 *fill*         0x000000000001a902        0x2 90909090
 .text          0x000000000001a904        0x0 obj_cooja/mtype891.a(uip-nd6.o)
 .text.create_llao
                0x000000000001a904       0x48 obj_cooja/mtype891.a(uip-nd6.o)
 .text.uip_nd6_ns_input
                0x000000000001a94c      0x5b4 obj_cooja/mtype891.a(uip-nd6.o)
                0x000000000001a94c                uip_nd6_ns_input
 .text.uip_nd6_ns_output
                0x000000000001af00      0x2f8 obj_cooja/mtype891.a(uip-nd6.o)
                0x000000000001af00                uip_nd6_ns_output
 .text.uip_nd6_na_input
                0x000000000001b1f8      0x467 obj_cooja/mtype891.a(uip-nd6.o)
                0x000000000001b1f8                uip_nd6_na_input
 *fill*         0x000000000001b65f        0x1 90909090
 .text          0x000000000001b660        0x0 obj_cooja/mtype891.a(uip-packetqueue)
 .text.packet_timedout
                0x000000000001b660       0x2c obj_cooja/mtype891.a(uip-packetqueue)
 .text.uip_packetqueue_new
                0x000000000001b68c        0xe obj_cooja/mtype891.a(uip-packetqueue)
                0x000000000001b68c                uip_packetqueue_new
 .text.uip_packetqueue_alloc
                0x000000000001b69a       0x60 obj_cooja/mtype891.a(uip-packetqueue)
                0x000000000001b69a                uip_packetqueue_alloc
 .text.uip_packetqueue_free
                0x000000000001b6fa       0x41 obj_cooja/mtype891.a(uip-packetqueue)
                0x000000000001b6fa                uip_packetqueue_free
 .text.uip_packetqueue_buf
                0x000000000001b73b       0x1d obj_cooja/mtype891.a(uip-packetqueue)
                0x000000000001b73b                uip_packetqueue_buf
 .text.uip_packetqueue_buflen
                0x000000000001b758       0x21 obj_cooja/mtype891.a(uip-packetqueue)
                0x000000000001b758                uip_packetqueue_buflen
 .text.uip_packetqueue_set_buflen
                0x000000000001b779       0x28 obj_cooja/mtype891.a(uip-packetqueue)
                0x000000000001b779                uip_packetqueue_set_buflen
 *fill*         0x000000000001b7a1        0x3 90909090
 .text          0x000000000001b7a4        0x0 obj_cooja/mtype891.a(uip-udp-packet.)
 .text.uip_udp_packet_send
                0x000000000001b7a4       0x63 obj_cooja/mtype891.a(uip-udp-packet.)
                0x000000000001b7a4                uip_udp_packet_send
 .text.uip_udp_packet_sendto
                0x000000000001b807       0xd1 obj_cooja/mtype891.a(uip-udp-packet.)
                0x000000000001b807                uip_udp_packet_sendto
 .text          0x000000000001b8d8        0x0 obj_cooja/mtype891.a(uip6.o)
 .text.uip_add32
                0x000000000001b8d8       0xed obj_cooja/mtype891.a(uip6.o)
                0x000000000001b8d8                uip_add32
 .text.chksum   0x000000000001b9c5       0xa1 obj_cooja/mtype891.a(uip6.o)
 .text.uip_chksum
                0x000000000001ba66       0x35 obj_cooja/mtype891.a(uip6.o)
                0x000000000001ba66                uip_chksum
 .text.upper_layer_chksum
                0x000000000001ba9b       0xbc obj_cooja/mtype891.a(uip6.o)
 .text.uip_icmp6chksum
                0x000000000001bb57       0x14 obj_cooja/mtype891.a(uip6.o)
                0x000000000001bb57                uip_icmp6chksum
 .text.uip_tcpchksum
                0x000000000001bb6b       0x14 obj_cooja/mtype891.a(uip6.o)
                0x000000000001bb6b                uip_tcpchksum
 .text.uip_udpchksum
                0x000000000001bb7f       0x14 obj_cooja/mtype891.a(uip6.o)
                0x000000000001bb7f                uip_udpchksum
 .text.uip_init
                0x000000000001bb93       0xc6 obj_cooja/mtype891.a(uip6.o)
                0x000000000001bb93                uip_init
 .text.uip_connect
                0x000000000001bc59      0x1b0 obj_cooja/mtype891.a(uip6.o)
                0x000000000001bc59                uip_connect
 .text.remove_ext_hdr
                0x000000000001be09       0xda obj_cooja/mtype891.a(uip6.o)
                0x000000000001be09                remove_ext_hdr
 .text.uip_udp_new
                0x000000000001bee3      0x160 obj_cooja/mtype891.a(uip6.o)
                0x000000000001bee3                uip_udp_new
 .text.uip_unlisten
                0x000000000001c043       0x60 obj_cooja/mtype891.a(uip6.o)
                0x000000000001c043                uip_unlisten
 .text.uip_listen
                0x000000000001c0a3       0x61 obj_cooja/mtype891.a(uip6.o)
                0x000000000001c0a3                uip_listen
 .text.uip_add_rcv_nxt
                0x000000000001c104       0x64 obj_cooja/mtype891.a(uip6.o)
 .text.ext_hdr_options_process
                0x000000000001c168      0x1fd obj_cooja/mtype891.a(uip6.o)
 .text.uip_process
                0x000000000001c365     0x1dd3 obj_cooja/mtype891.a(uip6.o)
                0x000000000001c365                uip_process
 .text.uip_htons
                0x000000000001e138       0x22 obj_cooja/mtype891.a(uip6.o)
                0x000000000001e138                uip_htons
 .text.uip_htonl
                0x000000000001e15a       0x40 obj_cooja/mtype891.a(uip6.o)
                0x000000000001e15a                uip_htonl
 .text.uip_send
                0x000000000001e19a       0x60 obj_cooja/mtype891.a(uip6.o)
                0x000000000001e19a                uip_send
 *fill*         0x000000000001e1fa        0x2 90909090
 .text          0x000000000001e1fc        0x0 obj_cooja/mtype891.a(servreg-hack.o)
 .text.purge_registrations
                0x000000000001e1fc       0xd5 obj_cooja/mtype891.a(servreg-hack.o)
 .text.servreg_hack_init
                0x000000000001e2d1       0x54 obj_cooja/mtype891.a(servreg-hack.o)
                0x000000000001e2d1                servreg_hack_init
 .text.servreg_hack_register
                0x000000000001e325      0x125 obj_cooja/mtype891.a(servreg-hack.o)
                0x000000000001e325                servreg_hack_register
 .text.servreg_hack_list_head
                0x000000000001e44a       0x1a obj_cooja/mtype891.a(servreg-hack.o)
                0x000000000001e44a                servreg_hack_list_head
 .text.servreg_hack_item_id
                0x000000000001e464        0xc obj_cooja/mtype891.a(servreg-hack.o)
                0x000000000001e464                servreg_hack_item_id
 .text.servreg_hack_item_address
                0x000000000001e470        0xb obj_cooja/mtype891.a(servreg-hack.o)
                0x000000000001e470                servreg_hack_item_address
 .text.servreg_hack_lookup
                0x000000000001e47b       0x58 obj_cooja/mtype891.a(servreg-hack.o)
                0x000000000001e47b                servreg_hack_lookup
 .text.handle_incoming_reg
                0x000000000001e4d3      0x12d obj_cooja/mtype891.a(servreg-hack.o)
 .text.send_udp_packet
                0x000000000001e600      0x1b8 obj_cooja/mtype891.a(servreg-hack.o)
 .text.parse_incoming_packet
                0x000000000001e7b8       0x73 obj_cooja/mtype891.a(servreg-hack.o)
 .text.process_thread_servreg_hack_process
                0x000000000001e82b      0x1ae obj_cooja/mtype891.a(servreg-hack.o)
 *fill*         0x000000000001e9d9        0x3 90909090
 .text          0x000000000001e9dc        0x0 obj_cooja/mtype891.a(simEnvChange.o)
 .text.doActionsBeforeTick
                0x000000000001e9dc       0x31 obj_cooja/mtype891.a(simEnvChange.o)
                0x000000000001e9dc                doActionsBeforeTick
 .text.doActionsAfterTick
                0x000000000001ea0d       0x32 obj_cooja/mtype891.a(simEnvChange.o)
                0x000000000001ea0d                doActionsAfterTick
 *fill*         0x000000000001ea3f        0x1 90909090
 .text          0x000000000001ea40        0x0 obj_cooja/mtype891.a(cooja_mt.o)
 .text.cooja_mt_init
                0x000000000001ea40        0xd obj_cooja/mtype891.a(cooja_mt.o)
                0x000000000001ea40                cooja_mt_init
 .text.cooja_mt_remove
                0x000000000001ea4d        0xd obj_cooja/mtype891.a(cooja_mt.o)
                0x000000000001ea4d                cooja_mt_remove
 .text.cooja_mt_start
                0x000000000001ea5a       0x2d obj_cooja/mtype891.a(cooja_mt.o)
                0x000000000001ea5a                cooja_mt_start
 .text.cooja_mt_exec
                0x000000000001ea87       0x31 obj_cooja/mtype891.a(cooja_mt.o)
                0x000000000001ea87                cooja_mt_exec
 .text.cooja_mt_exit
                0x000000000001eab8       0x22 obj_cooja/mtype891.a(cooja_mt.o)
                0x000000000001eab8                cooja_mt_exit
 .text.cooja_mt_yield
                0x000000000001eada       0x22 obj_cooja/mtype891.a(cooja_mt.o)
                0x000000000001eada                cooja_mt_yield
 .text          0x000000000001eafc        0x0 obj_cooja/mtype891.a(cooja_mtarch.o)
 .text.cooja_mtarch_init
                0x000000000001eafc        0x5 obj_cooja/mtype891.a(cooja_mtarch.o)
                0x000000000001eafc                cooja_mtarch_init
 .text.cooja_mtarch_start
                0x000000000001eb01       0xc1 obj_cooja/mtype891.a(cooja_mtarch.o)
                0x000000000001eb01                cooja_mtarch_start
 .text.cooja_sw
                0x000000000001ebc2       0x22 obj_cooja/mtype891.a(cooja_mtarch.o)
                0x000000000001ebc2                cooja_sw
 .text.cooja_mtarch_exec
                0x000000000001ebe4       0x1c obj_cooja/mtype891.a(cooja_mtarch.o)
                0x000000000001ebe4                cooja_mtarch_exec
 .text.cooja_mtarch_remove
                0x000000000001ec00        0x5 obj_cooja/mtype891.a(cooja_mtarch.o)
                0x000000000001ec00                cooja_mtarch_remove
 .text.cooja_mtarch_yield
                0x000000000001ec05        0xa obj_cooja/mtype891.a(cooja_mtarch.o)
                0x000000000001ec05                cooja_mtarch_yield
 .text.cooja_mtarch_pstop
                0x000000000001ec0f        0x5 obj_cooja/mtype891.a(cooja_mtarch.o)
                0x000000000001ec0f                cooja_mtarch_pstop
 .text.cooja_mtarch_pstart
                0x000000000001ec14        0x5 obj_cooja/mtype891.a(cooja_mtarch.o)
                0x000000000001ec14                cooja_mtarch_pstart
 .text.cooja_mtarch_stack_usage
                0x000000000001ec19       0x3e obj_cooja/mtype891.a(cooja_mtarch.o)
                0x000000000001ec19                cooja_mtarch_stack_usage
 *fill*         0x000000000001ec57        0x1 90909090
 .text          0x000000000001ec58        0x0 obj_cooja/mtype891.a(rtimer-arch.o)
 .text.rtimer_arch_init
                0x000000000001ec58       0x23 obj_cooja/mtype891.a(rtimer-arch.o)
                0x000000000001ec58                rtimer_arch_init
 .text.rtimer_arch_schedule
                0x000000000001ec7b       0x17 obj_cooja/mtype891.a(rtimer-arch.o)
                0x000000000001ec7b                rtimer_arch_schedule
 .text.rtimer_arch_next
                0x000000000001ec92        0xa obj_cooja/mtype891.a(rtimer-arch.o)
                0x000000000001ec92                rtimer_arch_next
 .text.rtimer_arch_pending
                0x000000000001ec9c        0xa obj_cooja/mtype891.a(rtimer-arch.o)
                0x000000000001ec9c                rtimer_arch_pending
 .text.rtimer_arch_check
                0x000000000001eca6       0x32 obj_cooja/mtype891.a(rtimer-arch.o)
                0x000000000001eca6                rtimer_arch_check
 .text.rtimer_arch_now
                0x000000000001ecd8       0x42 obj_cooja/mtype891.a(rtimer-arch.o)
                0x000000000001ecd8                rtimer_arch_now
 *fill*         0x000000000001ed1a        0x2 90909090
 .text          0x000000000001ed1c        0x0 obj_cooja/mtype891.a(watchdog.o)
 .text.watchdog_init
                0x000000000001ed1c        0x5 obj_cooja/mtype891.a(watchdog.o)
                0x000000000001ed1c                watchdog_init
 .text.watchdog_start
                0x000000000001ed21        0x5 obj_cooja/mtype891.a(watchdog.o)
                0x000000000001ed21                watchdog_start
 .text.watchdog_periodic
                0x000000000001ed26        0x5 obj_cooja/mtype891.a(watchdog.o)
                0x000000000001ed26                watchdog_periodic
 .text.watchdog_stop
                0x000000000001ed2b        0x5 obj_cooja/mtype891.a(watchdog.o)
                0x000000000001ed2b                watchdog_stop
 .text.watchdog_reboot
                0x000000000001ed30        0x5 obj_cooja/mtype891.a(watchdog.o)
                0x000000000001ed30                watchdog_reboot
 *fill*         0x000000000001ed35        0x3 90909090
 .text          0x000000000001ed38        0x0 obj_cooja/mtype891.a(beep.o)
 .text.beep_alarm
                0x000000000001ed38        0xc obj_cooja/mtype891.a(beep.o)
                0x000000000001ed38                beep_alarm
 .text.beep_beep
                0x000000000001ed44        0xc obj_cooja/mtype891.a(beep.o)
                0x000000000001ed44                beep_beep
 .text.beep     0x000000000001ed50        0xc obj_cooja/mtype891.a(beep.o)
                0x000000000001ed50                beep
 .text.beep_down
                0x000000000001ed5c        0xc obj_cooja/mtype891.a(beep.o)
                0x000000000001ed5c                beep_down
 .text.beep_on  0x000000000001ed68        0xc obj_cooja/mtype891.a(beep.o)
                0x000000000001ed68                beep_on
 .text.beep_off
                0x000000000001ed74        0xc obj_cooja/mtype891.a(beep.o)
                0x000000000001ed74                beep_off
 .text.beep_spinup
                0x000000000001ed80        0xc obj_cooja/mtype891.a(beep.o)
                0x000000000001ed80                beep_spinup
 .text.beep_quick
                0x000000000001ed8c        0xc obj_cooja/mtype891.a(beep.o)
                0x000000000001ed8c                beep_quick
 .text.beep_long
                0x000000000001ed98        0xc obj_cooja/mtype891.a(beep.o)
                0x000000000001ed98                beep_long
 .text.doInterfaceActionsBeforeTick
                0x000000000001eda4        0x5 obj_cooja/mtype891.a(beep.o)
 .text.doInterfaceActionsAfterTick
                0x000000000001eda9        0x5 obj_cooja/mtype891.a(beep.o)
 *fill*         0x000000000001edae        0x2 90909090
 .text          0x000000000001edb0        0x0 obj_cooja/mtype891.a(button-sensor.o)
 .text.value    0x000000000001edb0       0x2f obj_cooja/mtype891.a(button-sensor.o)
 .text.configure
                0x000000000001eddf       0x50 obj_cooja/mtype891.a(button-sensor.o)
 .text.status   0x000000000001ee2f       0x1f obj_cooja/mtype891.a(button-sensor.o)
 .text.doInterfaceActionsBeforeTick
                0x000000000001ee4e       0x60 obj_cooja/mtype891.a(button-sensor.o)
 .text.doInterfaceActionsAfterTick
                0x000000000001eeae        0x5 obj_cooja/mtype891.a(button-sensor.o)
 *fill*         0x000000000001eeb3        0x1 90909090
 .text          0x000000000001eeb4        0x0 obj_cooja/mtype891.a(leds-arch.o)
 .text.leds_arch_init
                0x000000000001eeb4        0xc obj_cooja/mtype891.a(leds-arch.o)
                0x000000000001eeb4                leds_arch_init
 .text.leds_arch_get
                0x000000000001eec0        0xc obj_cooja/mtype891.a(leds-arch.o)
                0x000000000001eec0                leds_arch_get
 .text.leds_arch_set
                0x000000000001eecc       0x23 obj_cooja/mtype891.a(leds-arch.o)
                0x000000000001eecc                leds_arch_set
 .text.doInterfaceActionsBeforeTick
                0x000000000001eeef        0x5 obj_cooja/mtype891.a(leds-arch.o)
 .text.doInterfaceActionsAfterTick
                0x000000000001eef4        0x5 obj_cooja/mtype891.a(leds-arch.o)
 *fill*         0x000000000001eef9        0x3 90909090
 .text          0x000000000001eefc        0x0 obj_cooja/mtype891.a(moteid.o)
 .text.doInterfaceActionsBeforeTick
                0x000000000001eefc       0x2a obj_cooja/mtype891.a(moteid.o)
 .text.doInterfaceActionsAfterTick
                0x000000000001ef26        0x5 obj_cooja/mtype891.a(moteid.o)
 *fill*         0x000000000001ef2b        0x1 90909090
 .text          0x000000000001ef2c        0x0 obj_cooja/mtype891.a(pir-sensor.o)
 .text.value    0x000000000001ef2c        0xf obj_cooja/mtype891.a(pir-sensor.o)
 .text.configure
                0x000000000001ef3b       0x3a obj_cooja/mtype891.a(pir-sensor.o)
 .text.status   0x000000000001ef75       0x23 obj_cooja/mtype891.a(pir-sensor.o)
 .text.doInterfaceActionsBeforeTick
                0x000000000001ef98       0x40 obj_cooja/mtype891.a(pir-sensor.o)
 .text.doInterfaceActionsAfterTick
                0x000000000001efd8        0x5 obj_cooja/mtype891.a(pir-sensor.o)
 *fill*         0x000000000001efdd        0x3 90909090
 .text          0x000000000001efe0        0x0 obj_cooja/mtype891.a(rs232.o)
 .text.rs232_init
                0x000000000001efe0        0x5 obj_cooja/mtype891.a(rs232.o)
                0x000000000001efe0                rs232_init
 .text.rs232_set_speed
                0x000000000001efe5        0xe obj_cooja/mtype891.a(rs232.o)
                0x000000000001efe5                rs232_set_speed
 .text.rs232_set_input
                0x000000000001eff3        0xd obj_cooja/mtype891.a(rs232.o)
                0x000000000001eff3                rs232_set_input
 .text.rs232_send
                0x000000000001f000       0x23 obj_cooja/mtype891.a(rs232.o)
                0x000000000001f000                rs232_send
 .text.rs232_print
                0x000000000001f023       0x1c obj_cooja/mtype891.a(rs232.o)
                0x000000000001f023                rs232_print
 .text.slip_arch_writeb
                0x000000000001f03f       0x1a obj_cooja/mtype891.a(rs232.o)
                0x000000000001f03f                slip_arch_writeb
 .text.doInterfaceActionsBeforeTick
                0x000000000001f059       0xb4 obj_cooja/mtype891.a(rs232.o)
 .text.doInterfaceActionsAfterTick
                0x000000000001f10d        0x5 obj_cooja/mtype891.a(rs232.o)
 *fill*         0x000000000001f112        0x2 90909090
 .text          0x000000000001f114        0x0 obj_cooja/mtype891.a(vib-sensor.o)
 .text.value    0x000000000001f114        0xf obj_cooja/mtype891.a(vib-sensor.o)
 .text.configure
                0x000000000001f123       0x3a obj_cooja/mtype891.a(vib-sensor.o)
 .text.status   0x000000000001f15d       0x23 obj_cooja/mtype891.a(vib-sensor.o)
 .text.doInterfaceActionsBeforeTick
                0x000000000001f180       0x40 obj_cooja/mtype891.a(vib-sensor.o)
 .text.doInterfaceActionsAfterTick
                0x000000000001f1c0        0x5 obj_cooja/mtype891.a(vib-sensor.o)
 *fill*         0x000000000001f1c5        0x3 90909090
 .text          0x000000000001f1c8        0x0 obj_cooja/mtype891.a(clock.o)
 .text.clock_init
                0x000000000001f1c8        0x5 obj_cooja/mtype891.a(clock.o)
                0x000000000001f1c8                clock_init
 .text.clock_time
                0x000000000001f1cd        0xa obj_cooja/mtype891.a(clock.o)
                0x000000000001f1cd                clock_time
 .text.clock_seconds
                0x000000000001f1d7       0x1f obj_cooja/mtype891.a(clock.o)
                0x000000000001f1d7                clock_seconds
 .text.clock_delay
                0x000000000001f1f6        0x5 obj_cooja/mtype891.a(clock.o)
                0x000000000001f1f6                clock_delay
 .text.doInterfaceActionsBeforeTick
                0x000000000001f1fb        0x5 obj_cooja/mtype891.a(clock.o)
 .text.doInterfaceActionsAfterTick
                0x000000000001f200        0x5 obj_cooja/mtype891.a(clock.o)
 *fill*         0x000000000001f205        0x3 90909090
 .text          0x000000000001f208        0x0 obj_cooja/mtype891.a(log.o)
 .text.simlog_char
                0x000000000001f208       0x43 obj_cooja/mtype891.a(log.o)
                0x000000000001f208                simlog_char
 .text.simlog   0x000000000001f24b       0xb1 obj_cooja/mtype891.a(log.o)
                0x000000000001f24b                simlog
 .text.log_message
                0x000000000001f2fc       0x1e obj_cooja/mtype891.a(log.o)
                0x000000000001f2fc                log_message
 .text.doInterfaceActionsBeforeTick
                0x000000000001f31a        0x5 obj_cooja/mtype891.a(log.o)
 .text.doInterfaceActionsAfterTick
                0x000000000001f31f        0x5 obj_cooja/mtype891.a(log.o)
 .text.log_set_putchar_with_slip
                0x000000000001f324        0xd obj_cooja/mtype891.a(log.o)
                0x000000000001f324                log_set_putchar_with_slip
 .text.putchar  0x000000000001f331       0x84 obj_cooja/mtype891.a(log.o)
                0x000000000001f331                log_putchar
 .text.puts     0x000000000001f3b5       0x24 obj_cooja/mtype891.a(log.o)
                0x000000000001f3b5                log_puts
 .text.printf   0x000000000001f3d9       0x63 obj_cooja/mtype891.a(log.o)
                0x000000000001f3d9                log_printf
 .text          0x000000000001f43c        0x0 obj_cooja/mtype891.a(cfs-cooja.o)
 .text.cfs_open
                0x000000000001f43c       0x4b obj_cooja/mtype891.a(cfs-cooja.o)
                0x000000000001f43c                cfs_open
 .text.cfs_close
                0x000000000001f487        0xc obj_cooja/mtype891.a(cfs-cooja.o)
                0x000000000001f487                cfs_close
 .text.cfs_read
                0x000000000001f493       0x93 obj_cooja/mtype891.a(cfs-cooja.o)
                0x000000000001f493                cfs_read
 .text.cfs_write
                0x000000000001f526       0xbb obj_cooja/mtype891.a(cfs-cooja.o)
                0x000000000001f526                cfs_write
 .text.cfs_seek
                0x000000000001f5e1       0x82 obj_cooja/mtype891.a(cfs-cooja.o)
                0x000000000001f5e1                cfs_seek
 .text.cfs_remove
                0x000000000001f663       0x23 obj_cooja/mtype891.a(cfs-cooja.o)
                0x000000000001f663                cfs_remove
 .text.cfs_opendir
                0x000000000001f686        0xa obj_cooja/mtype891.a(cfs-cooja.o)
                0x000000000001f686                cfs_opendir
 .text.cfs_readdir
                0x000000000001f690        0xa obj_cooja/mtype891.a(cfs-cooja.o)
                0x000000000001f690                cfs_readdir
 .text.cfs_closedir
                0x000000000001f69a        0x5 obj_cooja/mtype891.a(cfs-cooja.o)
                0x000000000001f69a                cfs_closedir
 .text.doInterfaceActionsBeforeTick
                0x000000000001f69f        0x5 obj_cooja/mtype891.a(cfs-cooja.o)
 .text.doInterfaceActionsAfterTick
                0x000000000001f6a4        0x5 obj_cooja/mtype891.a(cfs-cooja.o)
 *fill*         0x000000000001f6a9        0x3 90909090
 .text          0x000000000001f6ac        0x0 obj_cooja/mtype891.a(cooja-radio.o)
 .text.radio_set_channel
                0x000000000001f6ac        0xd obj_cooja/mtype891.a(cooja-radio.o)
                0x000000000001f6ac                radio_set_channel
 .text.radio_set_txpower
                0x000000000001f6b9       0x17 obj_cooja/mtype891.a(cooja-radio.o)
                0x000000000001f6b9                radio_set_txpower
 .text.radio_signal_strength_last
                0x000000000001f6d0        0xa obj_cooja/mtype891.a(cooja-radio.o)
                0x000000000001f6d0                radio_signal_strength_last
 .text.radio_signal_strength_current
                0x000000000001f6da        0xa obj_cooja/mtype891.a(cooja-radio.o)
                0x000000000001f6da                radio_signal_strength_current
 .text.radio_on
                0x000000000001f6e4       0x11 obj_cooja/mtype891.a(cooja-radio.o)
 .text.radio_off
                0x000000000001f6f5       0x11 obj_cooja/mtype891.a(cooja-radio.o)
 .text.doInterfaceActionsBeforeTick
                0x000000000001f706       0x4b obj_cooja/mtype891.a(cooja-radio.o)
 .text.doInterfaceActionsAfterTick
                0x000000000001f751        0x5 obj_cooja/mtype891.a(cooja-radio.o)
 .text.radio_read
                0x000000000001f756       0x7e obj_cooja/mtype891.a(cooja-radio.o)
 .text.channel_clear
                0x000000000001f7d4       0x1b obj_cooja/mtype891.a(cooja-radio.o)
 .text.radio_send
                0x000000000001f7ef       0xd2 obj_cooja/mtype891.a(cooja-radio.o)
 .text.prepare_packet
                0x000000000001f8c1       0x1c obj_cooja/mtype891.a(cooja-radio.o)
 .text.transmit_packet
                0x000000000001f8dd       0x3a obj_cooja/mtype891.a(cooja-radio.o)
 .text.receiving_packet
                0x000000000001f917        0xf obj_cooja/mtype891.a(cooja-radio.o)
 .text.pending_packet
                0x000000000001f926       0x25 obj_cooja/mtype891.a(cooja-radio.o)
 .text.process_thread_cooja_radio_process
                0x000000000001f94b       0x93 obj_cooja/mtype891.a(cooja-radio.o)
 .text.init     0x000000000001f9de       0x21 obj_cooja/mtype891.a(cooja-radio.o)
 *fill*         0x000000000001f9ff        0x1 90909090
 .text          0x000000000001fa00        0x0 obj_cooja/mtype891.a(sensors.o)
 .text.get_sensor_index
                0x000000000001fa00       0x3b obj_cooja/mtype891.a(sensors.o)
 .text.sensors_first
                0x000000000001fa3b        0xa obj_cooja/mtype891.a(sensors.o)
                0x000000000001fa3b                sensors_first
 .text.sensors_next
                0x000000000001fa45       0x1d obj_cooja/mtype891.a(sensors.o)
                0x000000000001fa45                sensors_next
 .text.sensors_changed
                0x000000000001fa62       0x2f obj_cooja/mtype891.a(sensors.o)
                0x000000000001fa62                sensors_changed
 .text.sensors_find
                0x000000000001fa91       0x84 obj_cooja/mtype891.a(sensors.o)
                0x000000000001fa91                sensors_find
 .text.process_thread_sensors_process
                0x000000000001fb15      0x1a5 obj_cooja/mtype891.a(sensors.o)
 *fill*         0x000000000001fcba        0x2 90909090
 .text          0x000000000001fcbc        0x0 obj_cooja/mtype891.a(rimestats.o)
 .text          0x000000000001fcbc        0x0 obj_cooja/mtype891.a(frame802154.o)
 .text.addr_len
                0x000000000001fcbc       0x31 obj_cooja/mtype891.a(frame802154.o)
 .text.field_len
                0x000000000001fced       0xc6 obj_cooja/mtype891.a(frame802154.o)
 .text.frame802154_hdrlen
                0x000000000001fdb3       0x48 obj_cooja/mtype891.a(frame802154.o)
                0x000000000001fdb3                frame802154_hdrlen
 .text.frame802154_create
                0x000000000001fdfb      0x1d3 obj_cooja/mtype891.a(frame802154.o)
                0x000000000001fdfb                frame802154_create
 .text.frame802154_parse
                0x000000000001ffce      0x29b obj_cooja/mtype891.a(frame802154.o)
                0x000000000001ffce                frame802154_parse
 *fill*         0x0000000000020269        0x3 90909090
 .text          0x000000000002026c        0x0 obj_cooja/mtype891.a(rpl.o)
 .text.rpl_purge_routes
                0x000000000002026c       0xfa obj_cooja/mtype891.a(rpl.o)
                0x000000000002026c                rpl_purge_routes
 .text.rpl_remove_routes
                0x0000000000020366       0x46 obj_cooja/mtype891.a(rpl.o)
                0x0000000000020366                rpl_remove_routes
 .text.rpl_remove_routes_by_nexthop
                0x00000000000203ac       0x6c obj_cooja/mtype891.a(rpl.o)
                0x00000000000203ac                rpl_remove_routes_by_nexthop
 .text.rpl_add_route
                0x0000000000020418       0x70 obj_cooja/mtype891.a(rpl.o)
                0x0000000000020418                rpl_add_route
 .text.rpl_link_neighbor_callback
                0x0000000000020488       0xeb obj_cooja/mtype891.a(rpl.o)
                0x0000000000020488                rpl_link_neighbor_callback
 .text.rpl_ipv6_neighbor_callback
                0x0000000000020573       0x64 obj_cooja/mtype891.a(rpl.o)
                0x0000000000020573                rpl_ipv6_neighbor_callback
 .text.rpl_init
                0x00000000000205d7       0x73 obj_cooja/mtype891.a(rpl.o)
                0x00000000000205d7                rpl_init
 *fill*         0x000000000002064a        0x2 90909090
 .text          0x000000000002064c        0x0 obj_cooja/mtype891.a(rpl-ext-header.)
 .text.rpl_verify_header
                0x000000000002064c      0x1fa obj_cooja/mtype891.a(rpl-ext-header.)
                0x000000000002064c                rpl_verify_header
 .text.set_rpl_opt
                0x0000000000020846      0x18b obj_cooja/mtype891.a(rpl-ext-header.)
 .text.rpl_update_header_empty
                0x00000000000209d1      0x22f obj_cooja/mtype891.a(rpl-ext-header.)
                0x00000000000209d1                rpl_update_header_empty
 .text.rpl_update_header_final
                0x0000000000020c00      0x174 obj_cooja/mtype891.a(rpl-ext-header.)
                0x0000000000020c00                rpl_update_header_final
 .text.rpl_remove_header
                0x0000000000020d74      0x114 obj_cooja/mtype891.a(rpl-ext-header.)
                0x0000000000020d74                rpl_remove_header
 .text.rpl_invert_header
                0x0000000000020e88      0x14c obj_cooja/mtype891.a(rpl-ext-header.)
                0x0000000000020e88                rpl_invert_header
 .text.rpl_insert_header
                0x0000000000020fd4       0x39 obj_cooja/mtype891.a(rpl-ext-header.)
                0x0000000000020fd4                rpl_insert_header
 *fill*         0x000000000002100d        0x3 90909090
 .text          0x0000000000021010        0x0 obj_cooja/mtype891.a(timer.o)
 .text.timer_set
                0x0000000000021010       0x1b obj_cooja/mtype891.a(timer.o)
                0x0000000000021010                timer_set
 .text.timer_reset
                0x000000000002102b       0x17 obj_cooja/mtype891.a(timer.o)
                0x000000000002102b                timer_reset
 .text.timer_restart
                0x0000000000021042       0x12 obj_cooja/mtype891.a(timer.o)
                0x0000000000021042                timer_restart
 .text.timer_expired
                0x0000000000021054       0x29 obj_cooja/mtype891.a(timer.o)
                0x0000000000021054                timer_expired
 .text.timer_remaining
                0x000000000002107d       0x26 obj_cooja/mtype891.a(timer.o)
                0x000000000002107d                timer_remaining
 *fill*         0x00000000000210a3        0x1 90909090
 .text          0x00000000000210a4        0x0 obj_cooja/mtype891.a(rtimer.o)
 .text.rtimer_init
                0x00000000000210a4        0xd obj_cooja/mtype891.a(rtimer.o)
                0x00000000000210a4                rtimer_init
 .text.rtimer_set
                0x00000000000210b1       0x57 obj_cooja/mtype891.a(rtimer.o)
                0x00000000000210b1                rtimer_set
 .text.rtimer_run_next
                0x0000000000021108       0x59 obj_cooja/mtype891.a(rtimer.o)
                0x0000000000021108                rtimer_run_next
 *fill*         0x0000000000021161        0xf 90909090
 .text          0x0000000000021170       0x38 /usr/lib/gcc/i686-linux-gnu/4.6/crtendS.o
 .text          0x00000000000211a8        0x0 /usr/lib/gcc/i686-linux-gnu/4.6/../../../i386-linux-gnu/crtn.o
 *(.gnu.warning)

.fini           0x00000000000211a8       0x1a
 *(.fini)
 .fini          0x00000000000211a8       0x10 /usr/lib/gcc/i686-linux-gnu/4.6/../../../i386-linux-gnu/crti.o
                0x00000000000211a8                _fini
 .fini          0x00000000000211b8        0x5 /usr/lib/gcc/i686-linux-gnu/4.6/crtbeginS.o
 .fini          0x00000000000211bd        0x5 /usr/lib/gcc/i686-linux-gnu/4.6/../../../i386-linux-gnu/crtn.o
                0x00000000000211c2                PROVIDE (__etext, .)
                0x00000000000211c2                PROVIDE (_etext, .)
                0x00000000000211c2                PROVIDE (etext, .)

.rodata         0x00000000000211e0      0x710
 *(.rodata .rodata.* .gnu.linkonce.r.*)
 .rodata        0x00000000000211e0      0x148 server.co
                0x000000000002120c                autostart_processes
 .rodata        0x0000000000021328      0x123 obj_cooja/mtype891.o
 .rodata        0x000000000002144b        0x8 obj_cooja/mtype891.a(rimeaddr.o)
                0x000000000002144b                rimeaddr_null
 *fill*         0x0000000000021453        0xd 00
 .rodata        0x0000000000021460       0x40 obj_cooja/mtype891.a(nullrdc.o)
                0x0000000000021480                nullrdc_driver
 .rodata        0x00000000000214a0        0xc obj_cooja/mtype891.a(framer-802154.o)
                0x00000000000214a4                framer_802154
 .rodata        0x00000000000214ac       0x24 obj_cooja/mtype891.a(csma.o)
                0x00000000000214b4                csma_driver
 .rodata        0x00000000000214d0        0x4 obj_cooja/mtype891.a(rpl-dag.o)
 .rodata        0x00000000000214d4        0xe obj_cooja/mtype891.a(serial-line.o)
 .rodata        0x00000000000214e2        0xc obj_cooja/mtype891.a(etimer.o)
 .rodata        0x00000000000214ee        0xf obj_cooja/mtype891.a(ctimer.o)
 *fill*         0x00000000000214fd        0x3 00
 .rodata        0x0000000000021500       0x2c obj_cooja/mtype891.a(sicslowpan.o)
                0x0000000000021500                unc_llconf
                0x0000000000021504                unc_ctxconf
                0x0000000000021508                unc_mxconf
                0x000000000002150c                llprefix
                0x0000000000021520                sicslowpan_driver
 .rodata        0x000000000002152c       0x13 obj_cooja/mtype891.a(simple-udp.o)
 .rodata        0x000000000002153f       0x29 obj_cooja/mtype891.a(tcpip.o)
 .rodata        0x0000000000021568       0x1c obj_cooja/mtype891.a(uip-debug.o)
 .rodata        0x0000000000021584      0x1ac obj_cooja/mtype891.a(uip6.o)
 .rodata        0x0000000000021730       0x9d obj_cooja/mtype891.a(servreg-hack.o)
 *fill*         0x00000000000217cd        0x3 00
 .rodata        0x00000000000217d0        0x8 obj_cooja/mtype891.a(beep.o)
                0x00000000000217d0                beep_interface
 .rodata        0x00000000000217d8       0x20 obj_cooja/mtype891.a(button-sensor.o)
                0x00000000000217d8                button_interface
                0x00000000000217e8                button_sensor
 .rodata        0x00000000000217f8        0x8 obj_cooja/mtype891.a(leds-arch.o)
                0x00000000000217f8                leds_interface
 .rodata        0x0000000000021800        0x8 obj_cooja/mtype891.a(moteid.o)
                0x0000000000021800                moteid_interface
 .rodata        0x0000000000021808       0x1c obj_cooja/mtype891.a(pir-sensor.o)
                0x0000000000021808                pir_interface
                0x0000000000021814                pir_sensor
 .rodata        0x0000000000021824        0xe obj_cooja/mtype891.a(rs232.o)
                0x0000000000021824                rs232_interface
 *fill*         0x0000000000021832        0x2 00
 .rodata        0x0000000000021834       0x24 obj_cooja/mtype891.a(vib-sensor.o)
                0x0000000000021834                vib_interface
                0x0000000000021848                vib_sensor
 .rodata        0x0000000000021858        0x8 obj_cooja/mtype891.a(clock.o)
                0x0000000000021858                clock_interface
 .rodata        0x0000000000021860        0x8 obj_cooja/mtype891.a(log.o)
                0x0000000000021860                simlog_interface
 .rodata        0x0000000000021868       0x2f obj_cooja/mtype891.a(cfs-cooja.o)
                0x0000000000021868                cfs_interface
 *fill*         0x0000000000021897        0x9 00
 .rodata        0x00000000000218a0       0x48 obj_cooja/mtype891.a(cooja-radio.o)
                0x00000000000218a0                radio_interface
                0x00000000000218c0                cooja_radio_driver
 .rodata        0x00000000000218e8        0x8 obj_cooja/mtype891.a(sensors.o)

.rodata1
 *(.rodata1)

.eh_frame_hdr   0x00000000000218f0     0x10dc
 *(.eh_frame_hdr)
 .eh_frame_hdr  0x00000000000218f0     0x10dc /usr/lib/gcc/i686-linux-gnu/4.6/../../../i386-linux-gnu/crti.o

.eh_frame       0x00000000000229cc     0x452c
 *(.eh_frame)
 .eh_frame      0x00000000000229cc       0x3c /usr/lib/gcc/i686-linux-gnu/4.6/../../../i386-linux-gnu/crti.o
                                         0x40 (size before relaxing)
 .eh_frame      0x0000000000022a08       0xb8 server.co
                                         0xd0 (size before relaxing)
 .eh_frame      0x0000000000022ac0      0x148 obj_cooja/mtype891.o
                                        0x160 (size before relaxing)
 .eh_frame      0x0000000000022c08       0x60 obj_cooja/mtype891.a(rimeaddr.o)
                                         0x78 (size before relaxing)
 .eh_frame      0x0000000000022c68      0x194 obj_cooja/mtype891.a(nullrdc.o)
                                        0x1ac (size before relaxing)
 .eh_frame      0x0000000000022dfc       0x20 obj_cooja/mtype891.a(mac.o)
                                         0x38 (size before relaxing)
 .eh_frame      0x0000000000022e1c       0xec obj_cooja/mtype891.a(framer-802154.o)
                                        0x104 (size before relaxing)
 .eh_frame      0x0000000000022f08      0x1c8 obj_cooja/mtype891.a(csma.o)
                                        0x1e0 (size before relaxing)
 .eh_frame      0x00000000000230d0      0x554 obj_cooja/mtype891.a(rpl-dag.o)
                                        0x56c (size before relaxing)
 .eh_frame      0x0000000000023624      0x224 obj_cooja/mtype891.a(rpl-icmp6.o)
                                        0x23c (size before relaxing)
 .eh_frame      0x0000000000023848       0xe8 obj_cooja/mtype891.a(rpl-timers.o)
                                        0x100 (size before relaxing)
 .eh_frame      0x0000000000023930       0xe4 obj_cooja/mtype891.a(rpl-mrhof.o)
                                         0xfc (size before relaxing)
 .eh_frame      0x0000000000023a14      0x1c8 obj_cooja/mtype891.a(process.o)
                                        0x1e0 (size before relaxing)
 .eh_frame      0x0000000000023bdc       0x40 obj_cooja/mtype891.a(autostart.o)
                                         0x58 (size before relaxing)
 .eh_frame      0x0000000000023c1c       0x60 obj_cooja/mtype891.a(serial-line.o)
                                         0x78 (size before relaxing)
 .eh_frame      0x0000000000023c7c       0x80 obj_cooja/mtype891.a(memb.o)
                                         0x98 (size before relaxing)
 .eh_frame      0x0000000000023cfc      0x180 obj_cooja/mtype891.a(list.o)
                                        0x198 (size before relaxing)
 .eh_frame      0x0000000000023e7c      0x1c0 obj_cooja/mtype891.a(etimer.o)
                                        0x1d8 (size before relaxing)
 .eh_frame      0x000000000002403c       0xe0 obj_cooja/mtype891.a(ctimer.o)
                                         0xf8 (size before relaxing)
 .eh_frame      0x000000000002411c       0xc4 obj_cooja/mtype891.a(stimer.o)
                                         0xdc (size before relaxing)
 .eh_frame      0x00000000000241e0       0x40 obj_cooja/mtype891.a(random.o)
                                         0x58 (size before relaxing)
 .eh_frame      0x0000000000024220       0xa0 obj_cooja/mtype891.a(ringbuf.o)
                                         0xb8 (size before relaxing)
 .eh_frame      0x00000000000242c0      0x270 obj_cooja/mtype891.a(nbr-table.o)
                                        0x288 (size before relaxing)
 .eh_frame      0x0000000000024530       0x20 obj_cooja/mtype891.a(netstack.o)
                                         0x38 (size before relaxing)
 .eh_frame      0x0000000000024550      0x2b4 obj_cooja/mtype891.a(packetbuf.o)
                                        0x2cc (size before relaxing)
 .eh_frame      0x0000000000024804      0x168 obj_cooja/mtype891.a(queuebuf.o)
                                        0x180 (size before relaxing)
 .eh_frame      0x000000000002496c      0x27c obj_cooja/mtype891.a(sicslowpan.o)
                                        0x294 (size before relaxing)
 .eh_frame      0x0000000000024be8       0xd0 obj_cooja/mtype891.a(simple-udp.o)
                                         0xe8 (size before relaxing)
 .eh_frame      0x0000000000024cb8      0x274 obj_cooja/mtype891.a(tcpip.o)
                                        0x28c (size before relaxing)
 .eh_frame      0x0000000000024f2c       0x40 obj_cooja/mtype891.a(uip-debug.o)
                                         0x58 (size before relaxing)
 .eh_frame      0x0000000000024f6c      0x280 obj_cooja/mtype891.a(uip-ds6-route.o)
                                        0x298 (size before relaxing)
 .eh_frame      0x00000000000251ec      0x1c0 obj_cooja/mtype891.a(uip-ds6-nbr.o)
                                        0x1d8 (size before relaxing)
 .eh_frame      0x00000000000253ac      0x2d4 obj_cooja/mtype891.a(uip-ds6.o)
                                        0x2ec (size before relaxing)
 .eh_frame      0x0000000000025680       0x80 obj_cooja/mtype891.a(uip-icmp6.o)
                                         0x98 (size before relaxing)
 .eh_frame      0x0000000000025700       0x98 obj_cooja/mtype891.a(uip-nd6.o)
                                         0xb0 (size before relaxing)
 .eh_frame      0x0000000000025798       0xe0 obj_cooja/mtype891.a(uip-packetqueue)
                                         0xf8 (size before relaxing)
 .eh_frame      0x0000000000025878       0x40 obj_cooja/mtype891.a(uip-udp-packet.)
                                         0x58 (size before relaxing)
 .eh_frame      0x00000000000258b8      0x280 obj_cooja/mtype891.a(uip6.o)
                                        0x298 (size before relaxing)
 .eh_frame      0x0000000000025b38      0x170 obj_cooja/mtype891.a(servreg-hack.o)
                                        0x188 (size before relaxing)
 .eh_frame      0x0000000000025ca8       0x40 obj_cooja/mtype891.a(simEnvChange.o)
                                         0x58 (size before relaxing)
 .eh_frame      0x0000000000025ce8       0xc0 obj_cooja/mtype891.a(cooja_mt.o)
                                         0xd8 (size before relaxing)
 .eh_frame      0x0000000000025da8      0x128 obj_cooja/mtype891.a(cooja_mtarch.o)
                                        0x140 (size before relaxing)
 .eh_frame      0x0000000000025ed0       0xc0 obj_cooja/mtype891.a(rtimer-arch.o)
                                         0xd8 (size before relaxing)
 .eh_frame      0x0000000000025f90       0xa0 obj_cooja/mtype891.a(watchdog.o)
                                         0xb8 (size before relaxing)
 .eh_frame      0x0000000000026030      0x160 obj_cooja/mtype891.a(beep.o)
                                        0x178 (size before relaxing)
 .eh_frame      0x0000000000026190       0xa0 obj_cooja/mtype891.a(button-sensor.o)
                                         0xb8 (size before relaxing)
 .eh_frame      0x0000000000026230       0xa0 obj_cooja/mtype891.a(leds-arch.o)
                                         0xb8 (size before relaxing)
 .eh_frame      0x00000000000262d0       0x40 obj_cooja/mtype891.a(moteid.o)
                                         0x58 (size before relaxing)
 .eh_frame      0x0000000000026310       0xa0 obj_cooja/mtype891.a(pir-sensor.o)
                                         0xb8 (size before relaxing)
 .eh_frame      0x00000000000263b0      0x100 obj_cooja/mtype891.a(rs232.o)
                                        0x118 (size before relaxing)
 .eh_frame      0x00000000000264b0       0xa0 obj_cooja/mtype891.a(vib-sensor.o)
                                         0xb8 (size before relaxing)
 .eh_frame      0x0000000000026550       0xc0 obj_cooja/mtype891.a(clock.o)
                                         0xd8 (size before relaxing)
 .eh_frame      0x0000000000026610      0x128 obj_cooja/mtype891.a(log.o)
                                        0x140 (size before relaxing)
 .eh_frame      0x0000000000026738      0x168 obj_cooja/mtype891.a(cfs-cooja.o)
                                        0x180 (size before relaxing)
 .eh_frame      0x00000000000268a0      0x220 obj_cooja/mtype891.a(cooja-radio.o)
                                        0x238 (size before relaxing)
 .eh_frame      0x0000000000026ac0       0xc4 obj_cooja/mtype891.a(sensors.o)
                                         0xdc (size before relaxing)
 .eh_frame      0x0000000000026b84       0xa0 obj_cooja/mtype891.a(frame802154.o)
                                         0xb8 (size before relaxing)
 .eh_frame      0x0000000000026c24       0xe0 obj_cooja/mtype891.a(rpl.o)
                                         0xf8 (size before relaxing)
 .eh_frame      0x0000000000026d04       0xec obj_cooja/mtype891.a(rpl-ext-header.)
                                        0x104 (size before relaxing)
 .eh_frame      0x0000000000026df0       0xa4 obj_cooja/mtype891.a(timer.o)
                                         0xbc (size before relaxing)
 .eh_frame      0x0000000000026e94       0x60 obj_cooja/mtype891.a(rtimer.o)
                                         0x78 (size before relaxing)
 .eh_frame      0x0000000000026ef4        0x4 /usr/lib/gcc/i686-linux-gnu/4.6/crtendS.o

.gcc_except_table
 *(.gcc_except_table .gcc_except_table.*)

.exception_ranges
 *(.exception_ranges .exception_ranges*)
                0x0000000000026ef8                . = (ALIGN (0x1000) - ((0x1000 - .) & 0xfff))
                0x0000000000027f0c                . = DATA_SEGMENT_ALIGN (0x1000, 0x1000)

.eh_frame
 *(.eh_frame)

.gcc_except_table
 *(.gcc_except_table .gcc_except_table.*)

.exception_ranges
 *(.exception_ranges .exception_ranges*)

.tdata
 *(.tdata .tdata.* .gnu.linkonce.td.*)

.tbss
 *(.tbss .tbss.* .gnu.linkonce.tb.*)
 *(.tcommon)

.preinit_array
 *(.preinit_array)

.init_array
 *(SORT(.init_array.*) SORT(.ctors.*))
 *(.init_array)
 *(EXCLUDE_FILE(*crtend?.o *crtend.o *crtbegin?.o *crtbegin.o) .ctors)

.fini_array
 *(SORT(.fini_array.*) SORT(.dtors.*))
 *(.fini_array)
 *(EXCLUDE_FILE(*crtend?.o *crtend.o *crtbegin?.o *crtbegin.o) .dtors)

.ctors          0x0000000000027f0c        0x8
 *crtbegin.o(.ctors)
 *crtbegin?.o(.ctors)
 .ctors         0x0000000000027f0c        0x4 /usr/lib/gcc/i686-linux-gnu/4.6/crtbeginS.o
 *(EXCLUDE_FILE(*crtend?.o *crtend.o) .ctors)
 *(SORT(.ctors.*))
 *(.ctors)
 .ctors         0x0000000000027f10        0x4 /usr/lib/gcc/i686-linux-gnu/4.6/crtendS.o

.dtors          0x0000000000027f14        0x8
 *crtbegin.o(.dtors)
 *crtbegin?.o(.dtors)
 .dtors         0x0000000000027f14        0x4 /usr/lib/gcc/i686-linux-gnu/4.6/crtbeginS.o
 *(EXCLUDE_FILE(*crtend?.o *crtend.o) .dtors)
 *(SORT(.dtors.*))
 *(.dtors)
 .dtors         0x0000000000027f18        0x4 /usr/lib/gcc/i686-linux-gnu/4.6/crtendS.o
                0x0000000000027f18                __DTOR_END__

.jcr            0x0000000000027f1c        0x4
 *(.jcr)
 .jcr           0x0000000000027f1c        0x0 /usr/lib/gcc/i686-linux-gnu/4.6/crtbeginS.o
 .jcr           0x0000000000027f1c        0x4 /usr/lib/gcc/i686-linux-gnu/4.6/crtendS.o

.data.rel.ro
 *(.data.rel.ro.local* .gnu.linkonce.d.rel.ro.local.*)
 *(.data.rel.ro* .gnu.linkonce.d.rel.ro.*)

.dynamic        0x0000000000027f20       0xc8
 *(.dynamic)
 .dynamic       0x0000000000027f20       0xc8 /usr/lib/gcc/i686-linux-gnu/4.6/../../../i386-linux-gnu/crti.o
                0x0000000000027f20                _DYNAMIC

.got            0x0000000000027fe8        0xc
 *(.got)
 .got           0x0000000000027fe8        0xc /usr/lib/gcc/i686-linux-gnu/4.6/../../../i386-linux-gnu/crti.o
 *(.igot)
                0x0000000000027ff4                . = DATA_SEGMENT_RELRO_END (., 0xc)

.got.plt        0x0000000000027ff4       0x14
 *(.got.plt)
 .got.plt       0x0000000000027ff4       0x14 /usr/lib/gcc/i686-linux-gnu/4.6/../../../i386-linux-gnu/crti.o
                0x0000000000027ff4                _GLOBAL_OFFSET_TABLE_
 *(.igot.plt)

.data           0x0000000000028020      0x394
 *(.data .data.* .gnu.linkonce.d.*)
 .data          0x0000000000028020        0x0 /usr/lib/gcc/i686-linux-gnu/4.6/../../../i386-linux-gnu/crti.o
 .data          0x0000000000028020        0x0 /usr/lib/gcc/i686-linux-gnu/4.6/crtbeginS.o
 .data.rel      0x0000000000028020        0x4 /usr/lib/gcc/i686-linux-gnu/4.6/crtbeginS.o
                0x0000000000028020                __dso_handle
 *fill*         0x0000000000028024       0x1c 00
 .data          0x0000000000028040      0x188 server.co
                0x00000000000281a8                server_process
                0x00000000000281b8                broadcast_process
 *fill*         0x00000000000281c8       0x18 00
 .data          0x00000000000281e0       0x40 obj_cooja/mtype891.o
                0x00000000000281e0                simInterfaces
                0x0000000000028210                sensors
 .data          0x0000000000028220        0x0 obj_cooja/mtype891.a(rimeaddr.o)
 .data          0x0000000000028220        0x0 obj_cooja/mtype891.a(nullrdc.o)
 .data          0x0000000000028220        0x0 obj_cooja/mtype891.a(mac.o)
 .data          0x0000000000028220        0x0 obj_cooja/mtype891.a(framer-802154.o)
 .data          0x0000000000028220       0x28 obj_cooja/mtype891.a(csma.o)
 .data          0x0000000000028248       0x14 obj_cooja/mtype891.a(rpl-dag.o)
 .data          0x000000000002825c        0x1 obj_cooja/mtype891.a(rpl-icmp6.o)
 *fill*         0x000000000002825d        0x3 00
 .data          0x0000000000028260        0x0 obj_cooja/mtype891.a(rpl-timers.o)
 .data          0x0000000000028260       0x1c obj_cooja/mtype891.a(rpl-mrhof.o)
                0x0000000000028260                rpl_mrhof
 .data          0x000000000002827c        0x0 obj_cooja/mtype891.a(process.o)
 .data          0x000000000002827c        0x0 obj_cooja/mtype891.a(autostart.o)
 .data          0x000000000002827c       0x10 obj_cooja/mtype891.a(serial-line.o)
                0x000000000002827c                serial_line_process
 .data          0x000000000002828c        0x0 obj_cooja/mtype891.a(memb.o)
 .data          0x000000000002828c        0x0 obj_cooja/mtype891.a(list.o)
 .data          0x000000000002828c       0x10 obj_cooja/mtype891.a(etimer.o)
                0x000000000002828c                etimer_process
 .data          0x000000000002829c       0x14 obj_cooja/mtype891.a(ctimer.o)
                0x00000000000282a0                ctimer_process
 .data          0x00000000000282b0        0x0 obj_cooja/mtype891.a(stimer.o)
 .data          0x00000000000282b0        0x0 obj_cooja/mtype891.a(random.o)
 .data          0x00000000000282b0        0x0 obj_cooja/mtype891.a(ringbuf.o)
 .data          0x00000000000282b0       0x10 obj_cooja/mtype891.a(nbr-table.o)
 .data          0x00000000000282c0        0x0 obj_cooja/mtype891.a(netstack.o)
 .data          0x00000000000282c0        0x4 obj_cooja/mtype891.a(packetbuf.o)
 .data          0x00000000000282c4       0x24 obj_cooja/mtype891.a(queuebuf.o)
 .data          0x00000000000282e8        0x0 obj_cooja/mtype891.a(sicslowpan.o)
 .data          0x00000000000282e8       0x10 obj_cooja/mtype891.a(simple-udp.o)
                0x00000000000282e8                simple_udp_process
 .data          0x00000000000282f8       0x10 obj_cooja/mtype891.a(tcpip.o)
                0x00000000000282f8                tcpip_process
 .data          0x0000000000028308        0x0 obj_cooja/mtype891.a(uip-debug.o)
 .data          0x0000000000028308       0x34 obj_cooja/mtype891.a(uip-ds6-route.o)
 .data          0x000000000002833c       0x14 obj_cooja/mtype891.a(uip-ds6-nbr.o)
                0x000000000002834c                ds6_neighbors
 .data          0x0000000000028350        0x0 obj_cooja/mtype891.a(uip-ds6.o)
 .data          0x0000000000028350        0x0 obj_cooja/mtype891.a(uip-icmp6.o)
 .data          0x0000000000028350        0x0 obj_cooja/mtype891.a(uip-nd6.o)
 .data          0x0000000000028350        0xc obj_cooja/mtype891.a(uip-packetqueue)
 .data          0x000000000002835c        0x0 obj_cooja/mtype891.a(uip-udp-packet.)
 .data          0x000000000002835c        0x0 obj_cooja/mtype891.a(uip6.o)
 .data          0x000000000002835c       0x24 obj_cooja/mtype891.a(servreg-hack.o)
                0x0000000000028370                servreg_hack_process
 .data          0x0000000000028380        0x0 obj_cooja/mtype891.a(simEnvChange.o)
 .data          0x0000000000028380        0x0 obj_cooja/mtype891.a(cooja_mt.o)
 .data          0x0000000000028380        0x0 obj_cooja/mtype891.a(cooja_mtarch.o)
 .data          0x0000000000028380        0x0 obj_cooja/mtype891.a(rtimer-arch.o)
 .data          0x0000000000028380        0x0 obj_cooja/mtype891.a(watchdog.o)
 .data          0x0000000000028380        0x0 obj_cooja/mtype891.a(beep.o)
 .data          0x0000000000028380        0x0 obj_cooja/mtype891.a(button-sensor.o)
 .data          0x0000000000028380        0x0 obj_cooja/mtype891.a(leds-arch.o)
 .data          0x0000000000028380        0x0 obj_cooja/mtype891.a(moteid.o)
 .data          0x0000000000028380        0x0 obj_cooja/mtype891.a(pir-sensor.o)
 .data          0x0000000000028380        0x0 obj_cooja/mtype891.a(rs232.o)
 .data          0x0000000000028380        0x0 obj_cooja/mtype891.a(vib-sensor.o)
 .data          0x0000000000028380        0x0 obj_cooja/mtype891.a(clock.o)
 .data          0x0000000000028380        0x0 obj_cooja/mtype891.a(log.o)
 .data          0x0000000000028380        0x0 obj_cooja/mtype891.a(cfs-cooja.o)
 .data          0x0000000000028380       0x24 obj_cooja/mtype891.a(cooja-radio.o)
                0x0000000000028380                simRadioHWOn
                0x0000000000028384                simSignalStrength
                0x0000000000028388                simLastSignalStrength
                0x000000000002838c                simPower
                0x0000000000028390                simRadioChannel
                0x0000000000028394                cooja_radio_process
 .data          0x00000000000283a4       0x10 obj_cooja/mtype891.a(sensors.o)
                0x00000000000283a4                sensors_process
 .data          0x00000000000283b4        0x0 obj_cooja/mtype891.a(rimestats.o)
 .data          0x00000000000283b4        0x0 obj_cooja/mtype891.a(frame802154.o)
 .data          0x00000000000283b4        0x0 obj_cooja/mtype891.a(rpl.o)
 .data          0x00000000000283b4        0x0 obj_cooja/mtype891.a(rpl-ext-header.)
 .data          0x00000000000283b4        0x0 obj_cooja/mtype891.a(timer.o)
 .data          0x00000000000283b4        0x0 obj_cooja/mtype891.a(rtimer.o)
 .data          0x00000000000283b4        0x0 /usr/lib/gcc/i686-linux-gnu/4.6/crtendS.o
 .data          0x00000000000283b4        0x0 /usr/lib/gcc/i686-linux-gnu/4.6/../../../i386-linux-gnu/crtn.o

.data1
 *(.data1)
                0x00000000000283b4                _edata = .
                0x00000000000283b4                PROVIDE (edata, .)
                0x00000000000283b4                __bss_start = .

.bss            0x00000000000283c0     0xf228
 *(.dynbss)
 .dynbss        0x0000000000000000        0x0 /usr/lib/gcc/i686-linux-gnu/4.6/../../../i386-linux-gnu/crti.o
 *(.bss .bss.* .gnu.linkonce.b.*)
 .bss           0x00000000000283c0        0x0 /usr/lib/gcc/i686-linux-gnu/4.6/../../../i386-linux-gnu/crti.o
 .bss           0x00000000000283c0        0x8 /usr/lib/gcc/i686-linux-gnu/4.6/crtbeginS.o
 *fill*         0x00000000000283c8       0x18 00
 .bss           0x00000000000283e0      0x15c server.co
 *fill*         0x000000000002853c        0x4 00
 .bss           0x0000000000028540     0x2030 obj_cooja/mtype891.o
 .bss           0x000000000002a570        0x0 obj_cooja/mtype891.a(rimeaddr.o)
 *fill*         0x000000000002a570       0x10 00
 .bss           0x000000000002a580       0x48 obj_cooja/mtype891.a(nullrdc.o)
 .bss           0x000000000002a5c8        0x0 obj_cooja/mtype891.a(mac.o)
 .bss           0x000000000002a5c8        0x2 obj_cooja/mtype891.a(framer-802154.o)
 *fill*         0x000000000002a5ca       0x16 00
 .bss           0x000000000002a5e0      0x246 obj_cooja/mtype891.a(csma.o)
 *fill*         0x000000000002a826       0x1a 00
 .bss           0x000000000002a840     0x12c0 obj_cooja/mtype891.a(rpl-dag.o)
 .bss           0x000000000002bb00        0x0 obj_cooja/mtype891.a(rpl-icmp6.o)
 .bss           0x000000000002bb00       0x23 obj_cooja/mtype891.a(rpl-timers.o)
 *fill*         0x000000000002bb23        0x1 00
 .bss           0x000000000002bb24        0x0 obj_cooja/mtype891.a(rpl-mrhof.o)
 *fill*         0x000000000002bb24       0x1c 00
 .bss           0x000000000002bb40      0x1b0 obj_cooja/mtype891.a(process.o)
                0x000000000002bb40                process_list
                0x000000000002bb44                process_current
 .bss           0x000000000002bcf0        0x0 obj_cooja/mtype891.a(autostart.o)
 *fill*         0x000000000002bcf0       0x10 00
 .bss           0x000000000002bd00      0x141 obj_cooja/mtype891.a(serial-line.o)
 *fill*         0x000000000002be41        0x3 00
 .bss           0x000000000002be44        0x0 obj_cooja/mtype891.a(memb.o)
 .bss           0x000000000002be44        0x0 obj_cooja/mtype891.a(list.o)
 .bss           0x000000000002be44        0x8 obj_cooja/mtype891.a(etimer.o)
 .bss           0x000000000002be4c        0x5 obj_cooja/mtype891.a(ctimer.o)
 *fill*         0x000000000002be51        0x3 00
 .bss           0x000000000002be54        0x0 obj_cooja/mtype891.a(stimer.o)
 .bss           0x000000000002be54        0x0 obj_cooja/mtype891.a(random.o)
 .bss           0x000000000002be54        0x0 obj_cooja/mtype891.a(ringbuf.o)
 *fill*         0x000000000002be54        0xc 00
 .bss           0x000000000002be60     0x1214 obj_cooja/mtype891.a(nbr-table.o)
 .bss           0x000000000002d074        0x0 obj_cooja/mtype891.a(netstack.o)
 *fill*         0x000000000002d074        0xc 00
 .bss           0x000000000002d080       0xd8 obj_cooja/mtype891.a(packetbuf.o)
 *fill*         0x000000000002d158        0x8 00
 .bss           0x000000000002d160      0xe40 obj_cooja/mtype891.a(queuebuf.o)
 .bss           0x000000000002dfa0      0x140 obj_cooja/mtype891.a(sicslowpan.o)
 .bss           0x000000000002e0e0      0x110 obj_cooja/mtype891.a(simple-udp.o)
 *fill*         0x000000000002e1f0       0x10 00
 .bss           0x000000000002e200       0x6f obj_cooja/mtype891.a(tcpip.o)
 *fill*         0x000000000002e26f        0x1 00
 .bss           0x000000000002e270        0x0 obj_cooja/mtype891.a(uip-debug.o)
 *fill*         0x000000000002e270       0x10 00
 .bss           0x000000000002e280     0x39e8 obj_cooja/mtype891.a(uip-ds6-route.o)
 *fill*         0x0000000000031c68       0x18 00
 .bss           0x0000000000031c80     0x2ee0 obj_cooja/mtype891.a(uip-ds6-nbr.o)
 .bss           0x0000000000034b60       0x20 obj_cooja/mtype891.a(uip-ds6.o)
 .bss           0x0000000000034b80       0x10 obj_cooja/mtype891.a(uip-icmp6.o)
 .bss           0x0000000000034b90       0x14 obj_cooja/mtype891.a(uip-nd6.o)
 *fill*         0x0000000000034ba4       0x1c 00
 .bss           0x0000000000034bc0      0x258 obj_cooja/mtype891.a(uip-packetqueue)
 .bss           0x0000000000034e18        0x0 obj_cooja/mtype891.a(uip-udp-packet.)
 .bss           0x0000000000034e18        0xe obj_cooja/mtype891.a(uip6.o)
                0x0000000000034e18                uip_ext_bitmap
                0x0000000000034e19                uip_ext_len
                0x0000000000034e1a                uip_ext_opt_offset
 *fill*         0x0000000000034e26       0x1a 00
 .bss           0x0000000000034e40      0x24c obj_cooja/mtype891.a(servreg-hack.o)
 .bss           0x000000000003508c        0x1 obj_cooja/mtype891.a(simEnvChange.o)
                0x000000000003508c                simDontFallAsleep
 *fill*         0x000000000003508d        0x3 00
 .bss           0x0000000000035090        0x4 obj_cooja/mtype891.a(cooja_mt.o)
 .bss           0x0000000000035094        0x4 obj_cooja/mtype891.a(cooja_mtarch.o)
 .bss           0x0000000000035098        0xc obj_cooja/mtype891.a(rtimer-arch.o)
 .bss           0x00000000000350a4        0x0 obj_cooja/mtype891.a(watchdog.o)
 .bss           0x00000000000350a4        0x0 obj_cooja/mtype891.a(beep.o)
 .bss           0x00000000000350a4        0x8 obj_cooja/mtype891.a(button-sensor.o)
 .bss           0x00000000000350ac        0x0 obj_cooja/mtype891.a(leds-arch.o)
 .bss           0x00000000000350ac        0x0 obj_cooja/mtype891.a(moteid.o)
 .bss           0x00000000000350ac        0x1 obj_cooja/mtype891.a(pir-sensor.o)
                0x00000000000350ac                simPirValue
 *fill*         0x00000000000350ad        0x3 00
 .bss           0x00000000000350b0        0x4 obj_cooja/mtype891.a(rs232.o)
 .bss           0x00000000000350b4        0x1 obj_cooja/mtype891.a(vib-sensor.o)
                0x00000000000350b4                simVibValue
 *fill*         0x00000000000350b5        0x3 00
 .bss           0x00000000000350b8        0x0 obj_cooja/mtype891.a(clock.o)
 *fill*         0x00000000000350b8        0x8 00
 .bss           0x00000000000350c0      0x421 obj_cooja/mtype891.a(log.o)
 *fill*         0x00000000000354e1       0x1f 00
 .bss           0x0000000000035500      0xfbc obj_cooja/mtype891.a(cfs-cooja.o)
                0x0000000000035500                simCFSData
                0x00000000000364a0                simCFSChanged
                0x00000000000364a4                simCFSRead
                0x00000000000364a8                simCFSWritten
 .bss           0x00000000000364bc       0x10 obj_cooja/mtype891.a(cooja-radio.o)
                0x00000000000364bc                simReceiving
                0x00000000000364c0                simInSize
                0x00000000000364c4                simOutSize
 .bss           0x00000000000364cc        0xc obj_cooja/mtype891.a(sensors.o)
 .bss           0x00000000000364d8        0x0 obj_cooja/mtype891.a(rimestats.o)
 .bss           0x00000000000364d8        0x0 obj_cooja/mtype891.a(frame802154.o)
 .bss           0x00000000000364d8        0x0 obj_cooja/mtype891.a(rpl.o)
 .bss           0x00000000000364d8        0x0 obj_cooja/mtype891.a(rpl-ext-header.)
 .bss           0x00000000000364d8        0x0 obj_cooja/mtype891.a(timer.o)
 .bss           0x00000000000364d8        0x4 obj_cooja/mtype891.a(rtimer.o)
 .bss           0x00000000000364dc        0x0 /usr/lib/gcc/i686-linux-gnu/4.6/crtendS.o
 .bss           0x00000000000364dc        0x0 /usr/lib/gcc/i686-linux-gnu/4.6/../../../i386-linux-gnu/crtn.o
 *(COMMON)
 COMMON         0x00000000000364dc        0x8 obj_cooja/mtype891.o
                0x00000000000364dc                referenceVar
                0x00000000000364e0                sensors_flags
 COMMON         0x00000000000364e4        0x8 obj_cooja/mtype891.a(rimeaddr.o)
                0x00000000000364e4                rimeaddr_node_addr
 *fill*         0x00000000000364ec       0x14 00
 COMMON         0x0000000000036500      0x114 obj_cooja/mtype891.a(rpl-dag.o)
                0x0000000000036500                default_instance
                0x0000000000036520                instance_table
 COMMON         0x0000000000036614        0x1 obj_cooja/mtype891.a(serial-line.o)
                0x0000000000036614                serial_line_event_message
 *fill*         0x0000000000036615        0xb 00
 COMMON         0x0000000000036620       0x60 obj_cooja/mtype891.a(packetbuf.o)
                0x0000000000036620                packetbuf_attrs
                0x0000000000036660                packetbuf_addrs
 COMMON         0x0000000000036680        0x8 obj_cooja/mtype891.a(sicslowpan.o)
                0x0000000000036680                frag_sender
 COMMON         0x0000000000036688        0x1 obj_cooja/mtype891.a(tcpip.o)
                0x0000000000036688                tcpip_event
 *fill*         0x0000000000036689       0x17 00
 COMMON         0x00000000000366a0      0x181 obj_cooja/mtype891.a(uip-ds6.o)
                0x00000000000366a0                uip_ds6_prefix_list
                0x0000000000036700                uip_ds6_timer_periodic
                0x0000000000036710                uip_ds6_netif_addr_list_offset
                0x0000000000036720                uip_ds6_if
                0x0000000000036818                uip_ds6_timer_ra
                0x0000000000036820                uip_ds6_addr_size
 *fill*         0x0000000000036821       0x1f 00
 COMMON         0x0000000000036840      0x3ac obj_cooja/mtype891.a(uip6.o)
                0x0000000000036840                uip_slen
                0x0000000000036842                uip_acc32
                0x0000000000036860                uip_conns
                0x0000000000036920                uip_lladdr
                0x0000000000036928                uip_appdata
                0x000000000003692c                uip_flags
                0x0000000000036940                uip_aligned_buf
                0x0000000000036a30                uip_listenports
                0x0000000000036a40                uip_len
                0x0000000000036a44                uip_sappdata
                0x0000000000036a60                uip_udp_conns
                0x0000000000036be0                uip_udp_conn
                0x0000000000036be4                uip_next_hdr
                0x0000000000036be8                uip_conn
 COMMON         0x0000000000036bec        0xc obj_cooja/mtype891.a(simEnvChange.o)
                0x0000000000036bec                simEtimerPending
                0x0000000000036bf0                simProcessRunValue
                0x0000000000036bf4                simNextExpirationTime
 COMMON         0x0000000000036bf8        0x1 obj_cooja/mtype891.a(beep.o)
                0x0000000000036bf8                simBeeped
 COMMON         0x0000000000036bf9        0x3 obj_cooja/mtype891.a(button-sensor.o)
                0x0000000000036bf9                simButtonIsActive
                0x0000000000036bfa                simButtonIsDown
                0x0000000000036bfb                simButtonChanged
 COMMON         0x0000000000036bfc        0x1 obj_cooja/mtype891.a(leds-arch.o)
                0x0000000000036bfc                simLedsValue
 *fill*         0x0000000000036bfd        0x3 00
 COMMON         0x0000000000036c00        0xc obj_cooja/mtype891.a(moteid.o)
                0x0000000000036c00                simRandomSeed
                0x0000000000036c04                simMoteIDChanged
                0x0000000000036c08                simMoteID
 COMMON         0x0000000000036c0c        0x2 obj_cooja/mtype891.a(pir-sensor.o)
                0x0000000000036c0c                simPirIsActive
                0x0000000000036c0d                simPirChanged
 *fill*         0x0000000000036c0e       0x12 00
 COMMON         0x0000000000036c20      0x420 obj_cooja/mtype891.a(rs232.o)
                0x0000000000036c20                simSerialReceivingFlag
                0x0000000000036c24                simSerialReceivingLength
                0x0000000000036c40                simSerialReceivingData
 COMMON         0x0000000000037040        0x2 obj_cooja/mtype891.a(vib-sensor.o)
                0x0000000000037040                simVibChanged
                0x0000000000037041                simVibIsActive
 *fill*         0x0000000000037042        0x2 00
 COMMON         0x0000000000037044        0x4 obj_cooja/mtype891.a(clock.o)
                0x0000000000037044                simCurrentTime
 *fill*         0x0000000000037048       0x18 00
 COMMON         0x0000000000037060      0x420 obj_cooja/mtype891.a(log.o)
                0x0000000000037060                simLoggedLength
                0x0000000000037064                simLoggedFlag
                0x0000000000037080                simLoggedData
 COMMON         0x0000000000037480      0x100 obj_cooja/mtype891.a(cooja-radio.o)
                0x0000000000037480                simOutDataBuffer
                0x0000000000037500                simInDataBuffer
 COMMON         0x0000000000037580        0x1 obj_cooja/mtype891.a(sensors.o)
                0x0000000000037580                sensors_event
 *fill*         0x0000000000037581       0x1f 00
 COMMON         0x00000000000375a0       0x48 obj_cooja/mtype891.a(rimestats.o)
                0x00000000000375a0                rimestats
                0x00000000000375e8                . = ALIGN ((. != 0x0)?0x4:0x1)
                0x00000000000375e8                . = ALIGN (0x4)
                0x00000000000375e8                . = ALIGN (0x4)
                0x00000000000375e8                _end = .
                0x00000000000375e8                PROVIDE (end, .)
                0x00000000000375e8                . = DATA_SEGMENT_END (.)

.stab
 *(.stab)

.stabstr
 *(.stabstr)

.stab.excl
 *(.stab.excl)

.stab.exclstr
 *(.stab.exclstr)

.stab.index
 *(.stab.index)

.stab.indexstr
 *(.stab.indexstr)

.comment        0x0000000000000000       0x2a
 *(.comment)
 .comment       0x0000000000000000       0x2a /usr/lib/gcc/i686-linux-gnu/4.6/crtbeginS.o
                                         0x2b (size before relaxing)
 .comment       0x0000000000000000       0x2b server.co
 .comment       0x0000000000000000       0x2b obj_cooja/mtype891.o
 .comment       0x0000000000000000       0x2b obj_cooja/mtype891.a(rimeaddr.o)
 .comment       0x0000000000000000       0x2b obj_cooja/mtype891.a(nullrdc.o)
 .comment       0x0000000000000000       0x2b obj_cooja/mtype891.a(mac.o)
 .comment       0x0000000000000000       0x2b obj_cooja/mtype891.a(framer-802154.o)
 .comment       0x0000000000000000       0x2b obj_cooja/mtype891.a(csma.o)
 .comment       0x0000000000000000       0x2b obj_cooja/mtype891.a(rpl-dag.o)
 .comment       0x0000000000000000       0x2b obj_cooja/mtype891.a(rpl-icmp6.o)
 .comment       0x0000000000000000       0x2b obj_cooja/mtype891.a(rpl-timers.o)
 .comment       0x0000000000000000       0x2b obj_cooja/mtype891.a(rpl-mrhof.o)
 .comment       0x0000000000000000       0x2b obj_cooja/mtype891.a(process.o)
 .comment       0x0000000000000000       0x2b obj_cooja/mtype891.a(autostart.o)
 .comment       0x0000000000000000       0x2b obj_cooja/mtype891.a(serial-line.o)
 .comment       0x0000000000000000       0x2b obj_cooja/mtype891.a(memb.o)
 .comment       0x0000000000000000       0x2b obj_cooja/mtype891.a(list.o)
 .comment       0x0000000000000000       0x2b obj_cooja/mtype891.a(etimer.o)
 .comment       0x0000000000000000       0x2b obj_cooja/mtype891.a(ctimer.o)
 .comment       0x0000000000000000       0x2b obj_cooja/mtype891.a(stimer.o)
 .comment       0x0000000000000000       0x2b obj_cooja/mtype891.a(random.o)
 .comment       0x0000000000000000       0x2b obj_cooja/mtype891.a(ringbuf.o)
 .comment       0x0000000000000000       0x2b obj_cooja/mtype891.a(nbr-table.o)
 .comment       0x0000000000000000       0x2b obj_cooja/mtype891.a(netstack.o)
 .comment       0x0000000000000000       0x2b obj_cooja/mtype891.a(packetbuf.o)
 .comment       0x0000000000000000       0x2b obj_cooja/mtype891.a(queuebuf.o)
 .comment       0x0000000000000000       0x2b obj_cooja/mtype891.a(sicslowpan.o)
 .comment       0x0000000000000000       0x2b obj_cooja/mtype891.a(simple-udp.o)
 .comment       0x0000000000000000       0x2b obj_cooja/mtype891.a(tcpip.o)
 .comment       0x0000000000000000       0x2b obj_cooja/mtype891.a(uip-debug.o)
 .comment       0x0000000000000000       0x2b obj_cooja/mtype891.a(uip-ds6-route.o)
 .comment       0x0000000000000000       0x2b obj_cooja/mtype891.a(uip-ds6-nbr.o)
 .comment       0x0000000000000000       0x2b obj_cooja/mtype891.a(uip-ds6.o)
 .comment       0x0000000000000000       0x2b obj_cooja/mtype891.a(uip-icmp6.o)
 .comment       0x0000000000000000       0x2b obj_cooja/mtype891.a(uip-nd6.o)
 .comment       0x0000000000000000       0x2b obj_cooja/mtype891.a(uip-packetqueue)
 .comment       0x0000000000000000       0x2b obj_cooja/mtype891.a(uip-udp-packet.)
 .comment       0x0000000000000000       0x2b obj_cooja/mtype891.a(uip6.o)
 .comment       0x0000000000000000       0x2b obj_cooja/mtype891.a(servreg-hack.o)
 .comment       0x0000000000000000       0x2b obj_cooja/mtype891.a(simEnvChange.o)
 .comment       0x0000000000000000       0x2b obj_cooja/mtype891.a(cooja_mt.o)
 .comment       0x0000000000000000       0x2b obj_cooja/mtype891.a(cooja_mtarch.o)
 .comment       0x0000000000000000       0x2b obj_cooja/mtype891.a(rtimer-arch.o)
 .comment       0x0000000000000000       0x2b obj_cooja/mtype891.a(watchdog.o)
 .comment       0x0000000000000000       0x2b obj_cooja/mtype891.a(beep.o)
 .comment       0x0000000000000000       0x2b obj_cooja/mtype891.a(button-sensor.o)
 .comment       0x0000000000000000       0x2b obj_cooja/mtype891.a(leds-arch.o)
 .comment       0x0000000000000000       0x2b obj_cooja/mtype891.a(moteid.o)
 .comment       0x0000000000000000       0x2b obj_cooja/mtype891.a(pir-sensor.o)
 .comment       0x0000000000000000       0x2b obj_cooja/mtype891.a(rs232.o)
 .comment       0x0000000000000000       0x2b obj_cooja/mtype891.a(vib-sensor.o)
 .comment       0x0000000000000000       0x2b obj_cooja/mtype891.a(clock.o)
 .comment       0x0000000000000000       0x2b obj_cooja/mtype891.a(log.o)
 .comment       0x0000000000000000       0x2b obj_cooja/mtype891.a(cfs-cooja.o)
 .comment       0x0000000000000000       0x2b obj_cooja/mtype891.a(cooja-radio.o)
 .comment       0x0000000000000000       0x2b obj_cooja/mtype891.a(sensors.o)
 .comment       0x0000000000000000       0x2b obj_cooja/mtype891.a(rimestats.o)
 .comment       0x0000000000000000       0x2b obj_cooja/mtype891.a(frame802154.o)
 .comment       0x0000000000000000       0x2b obj_cooja/mtype891.a(rpl.o)
 .comment       0x0000000000000000       0x2b obj_cooja/mtype891.a(rpl-ext-header.)
 .comment       0x0000000000000000       0x2b obj_cooja/mtype891.a(timer.o)
 .comment       0x0000000000000000       0x2b obj_cooja/mtype891.a(rtimer.o)
 .comment       0x0000000000000000       0x2b /usr/lib/gcc/i686-linux-gnu/4.6/crtendS.o

.debug
 *(.debug)

.line
 *(.line)

.debug_srcinfo
 *(.debug_srcinfo)

.debug_sfnames
 *(.debug_sfnames)

.debug_aranges  0x0000000000000000     0x1668
 *(.debug_aranges)
 .debug_aranges
                0x0000000000000000       0x40 server.co
 .debug_aranges
                0x0000000000000040       0x68 obj_cooja/mtype891.o
 .debug_aranges
                0x00000000000000a8       0x30 obj_cooja/mtype891.a(rimeaddr.o)
 .debug_aranges
                0x00000000000000d8       0x78 obj_cooja/mtype891.a(nullrdc.o)
 .debug_aranges
                0x0000000000000150       0x20 obj_cooja/mtype891.a(mac.o)
 .debug_aranges
                0x0000000000000170       0x50 obj_cooja/mtype891.a(framer-802154.o)
 .debug_aranges
                0x00000000000001c0       0x88 obj_cooja/mtype891.a(csma.o)
 .debug_aranges
                0x0000000000000248      0x168 obj_cooja/mtype891.a(rpl-dag.o)
 .debug_aranges
                0x00000000000003b0       0x98 obj_cooja/mtype891.a(rpl-icmp6.o)
 .debug_aranges
                0x0000000000000448       0x50 obj_cooja/mtype891.a(rpl-timers.o)
 .debug_aranges
                0x0000000000000498       0x50 obj_cooja/mtype891.a(rpl-mrhof.o)
 .debug_aranges
                0x00000000000004e8       0x88 obj_cooja/mtype891.a(process.o)
 .debug_aranges
                0x0000000000000570       0x28 obj_cooja/mtype891.a(autostart.o)
 .debug_aranges
                0x0000000000000598       0x30 obj_cooja/mtype891.a(serial-line.o)
 .debug_aranges
                0x00000000000005c8       0x38 obj_cooja/mtype891.a(memb.o)
 .debug_aranges
                0x0000000000000600       0x78 obj_cooja/mtype891.a(list.o)
 .debug_aranges
                0x0000000000000678       0x88 obj_cooja/mtype891.a(etimer.o)
 .debug_aranges
                0x0000000000000700       0x50 obj_cooja/mtype891.a(ctimer.o)
 .debug_aranges
                0x0000000000000750       0x48 obj_cooja/mtype891.a(stimer.o)
 .debug_aranges
                0x0000000000000798       0x28 obj_cooja/mtype891.a(random.o)
 .debug_aranges
                0x00000000000007c0       0x40 obj_cooja/mtype891.a(ringbuf.o)
 .debug_aranges
                0x0000000000000800       0xb0 obj_cooja/mtype891.a(nbr-table.o)
 .debug_aranges
                0x00000000000008b0       0x20 obj_cooja/mtype891.a(netstack.o)
 .debug_aranges
                0x00000000000008d0       0xc0 obj_cooja/mtype891.a(packetbuf.o)
 .debug_aranges
                0x0000000000000990       0x70 obj_cooja/mtype891.a(queuebuf.o)
 .debug_aranges
                0x0000000000000a00       0xa8 obj_cooja/mtype891.a(sicslowpan.o)
 .debug_aranges
                0x0000000000000aa8       0x48 obj_cooja/mtype891.a(simple-udp.o)
 .debug_aranges
                0x0000000000000af0       0xb0 obj_cooja/mtype891.a(tcpip.o)
 .debug_aranges
                0x0000000000000ba0       0x28 obj_cooja/mtype891.a(uip-debug.o)
 .debug_aranges
                0x0000000000000bc8       0xb8 obj_cooja/mtype891.a(uip-ds6-route.o)
 .debug_aranges
                0x0000000000000c80       0x88 obj_cooja/mtype891.a(uip-ds6-nbr.o)
 .debug_aranges
                0x0000000000000d08       0xc8 obj_cooja/mtype891.a(uip-ds6.o)
 .debug_aranges
                0x0000000000000dd0       0x30 obj_cooja/mtype891.a(uip-icmp6.o)
 .debug_aranges
                0x0000000000000e00       0x38 obj_cooja/mtype891.a(uip-nd6.o)
 .debug_aranges
                0x0000000000000e38       0x50 obj_cooja/mtype891.a(uip-packetqueue)
 .debug_aranges
                0x0000000000000e88       0x28 obj_cooja/mtype891.a(uip-udp-packet.)
 .debug_aranges
                0x0000000000000eb0       0xb0 obj_cooja/mtype891.a(uip6.o)
 .debug_aranges
                0x0000000000000f60       0x70 obj_cooja/mtype891.a(servreg-hack.o)
 .debug_aranges
                0x0000000000000fd0       0x28 obj_cooja/mtype891.a(simEnvChange.o)
 .debug_aranges
                0x0000000000000ff8       0x48 obj_cooja/mtype891.a(cooja_mt.o)
 .debug_aranges
                0x0000000000001040       0x60 obj_cooja/mtype891.a(cooja_mtarch.o)
 .debug_aranges
                0x00000000000010a0       0x48 obj_cooja/mtype891.a(rtimer-arch.o)
 .debug_aranges
                0x00000000000010e8       0x40 obj_cooja/mtype891.a(watchdog.o)
 .debug_aranges
                0x0000000000001128       0x70 obj_cooja/mtype891.a(beep.o)
 .debug_aranges
                0x0000000000001198       0x40 obj_cooja/mtype891.a(button-sensor.o)
 .debug_aranges
                0x00000000000011d8       0x40 obj_cooja/mtype891.a(leds-arch.o)
 .debug_aranges
                0x0000000000001218       0x28 obj_cooja/mtype891.a(moteid.o)
 .debug_aranges
                0x0000000000001240       0x40 obj_cooja/mtype891.a(pir-sensor.o)
 .debug_aranges
                0x0000000000001280       0x58 obj_cooja/mtype891.a(rs232.o)
 .debug_aranges
                0x00000000000012d8       0x40 obj_cooja/mtype891.a(vib-sensor.o)
 .debug_aranges
                0x0000000000001318       0x48 obj_cooja/mtype891.a(clock.o)
 .debug_aranges
                0x0000000000001360       0x60 obj_cooja/mtype891.a(log.o)
 .debug_aranges
                0x00000000000013c0       0x70 obj_cooja/mtype891.a(cfs-cooja.o)
 .debug_aranges
                0x0000000000001430       0xa0 obj_cooja/mtype891.a(cooja-radio.o)
 .debug_aranges
                0x00000000000014d0       0x48 obj_cooja/mtype891.a(sensors.o)
 .debug_aranges
                0x0000000000001518       0x40 obj_cooja/mtype891.a(frame802154.o)
 .debug_aranges
                0x0000000000001558       0x50 obj_cooja/mtype891.a(rpl.o)
 .debug_aranges
                0x00000000000015a8       0x50 obj_cooja/mtype891.a(rpl-ext-header.)
 .debug_aranges
                0x00000000000015f8       0x40 obj_cooja/mtype891.a(timer.o)
 .debug_aranges
                0x0000000000001638       0x30 obj_cooja/mtype891.a(rtimer.o)

.debug_pubnames
 *(.debug_pubnames)

.debug_info     0x0000000000000000    0x1b149
 *(.debug_info .gnu.linkonce.wi.*)
 .debug_info    0x0000000000000000     0x10f7 server.co
 .debug_info    0x00000000000010f7     0x3acc obj_cooja/mtype891.o
 .debug_info    0x0000000000004bc3      0x169 obj_cooja/mtype891.a(rimeaddr.o)
 .debug_info    0x0000000000004d2c      0xc1d obj_cooja/mtype891.a(nullrdc.o)
 .debug_info    0x0000000000005949      0x114 obj_cooja/mtype891.a(mac.o)
 .debug_info    0x0000000000005a5d      0x5f3 obj_cooja/mtype891.a(framer-802154.o)
 .debug_info    0x0000000000006050      0xb66 obj_cooja/mtype891.a(csma.o)
 .debug_info    0x0000000000006bb6     0x1860 obj_cooja/mtype891.a(rpl-dag.o)
 .debug_info    0x0000000000008416     0x1595 obj_cooja/mtype891.a(rpl-icmp6.o)
 .debug_info    0x00000000000099ab      0x9a9 obj_cooja/mtype891.a(rpl-timers.o)
 .debug_info    0x000000000000a354      0xa54 obj_cooja/mtype891.a(rpl-mrhof.o)
 .debug_info    0x000000000000ada8      0x502 obj_cooja/mtype891.a(process.o)
 .debug_info    0x000000000000b2aa      0x1b9 obj_cooja/mtype891.a(autostart.o)
 .debug_info    0x000000000000b463      0x2f6 obj_cooja/mtype891.a(serial-line.o)
 .debug_info    0x000000000000b759      0x1a5 obj_cooja/mtype891.a(memb.o)
 .debug_info    0x000000000000b8fe      0x323 obj_cooja/mtype891.a(list.o)
 .debug_info    0x000000000000bc21      0x4b5 obj_cooja/mtype891.a(etimer.o)
 .debug_info    0x000000000000c0d6      0x457 obj_cooja/mtype891.a(ctimer.o)
 .debug_info    0x000000000000c52d      0x192 obj_cooja/mtype891.a(stimer.o)
 .debug_info    0x000000000000c6bf       0xb8 obj_cooja/mtype891.a(random.o)
 .debug_info    0x000000000000c777      0x1c3 obj_cooja/mtype891.a(ringbuf.o)
 .debug_info    0x000000000000c93a      0x847 obj_cooja/mtype891.a(nbr-table.o)
 .debug_info    0x000000000000d181      0x3ba obj_cooja/mtype891.a(netstack.o)
 .debug_info    0x000000000000d53b      0x5ba obj_cooja/mtype891.a(packetbuf.o)
 .debug_info    0x000000000000daf5      0x69e obj_cooja/mtype891.a(queuebuf.o)
 .debug_info    0x000000000000e193      0xe63 obj_cooja/mtype891.a(sicslowpan.o)
 .debug_info    0x000000000000eff6      0x77e obj_cooja/mtype891.a(simple-udp.o)
 .debug_info    0x000000000000f774     0x1745 obj_cooja/mtype891.a(tcpip.o)
 .debug_info    0x0000000000010eb9      0x1bc obj_cooja/mtype891.a(uip-debug.o)
 .debug_info    0x0000000000011075      0xcb3 obj_cooja/mtype891.a(uip-ds6-route.o)
 .debug_info    0x0000000000011d28      0xb92 obj_cooja/mtype891.a(uip-ds6-nbr.o)
 .debug_info    0x00000000000128ba      0xafa obj_cooja/mtype891.a(uip-ds6.o)
 .debug_info    0x00000000000133b4      0x51e obj_cooja/mtype891.a(uip-icmp6.o)
 .debug_info    0x00000000000138d2      0x9e2 obj_cooja/mtype891.a(uip-nd6.o)
 .debug_info    0x00000000000142b4      0x4c0 obj_cooja/mtype891.a(uip-packetqueue)
 .debug_info    0x0000000000014774      0x398 obj_cooja/mtype891.a(uip-udp-packet.)
 .debug_info    0x0000000000014b0c      0xf2a obj_cooja/mtype891.a(uip6.o)
 .debug_info    0x0000000000015a36      0x874 obj_cooja/mtype891.a(servreg-hack.o)
 .debug_info    0x00000000000162aa      0x168 obj_cooja/mtype891.a(simEnvChange.o)
 .debug_info    0x0000000000016412      0x1fd obj_cooja/mtype891.a(cooja_mt.o)
 .debug_info    0x000000000001660f      0x32b obj_cooja/mtype891.a(cooja_mtarch.o)
 .debug_info    0x000000000001693a      0x186 obj_cooja/mtype891.a(rtimer-arch.o)
 .debug_info    0x0000000000016ac0       0x93 obj_cooja/mtype891.a(watchdog.o)
 .debug_info    0x0000000000016b53      0x221 obj_cooja/mtype891.a(beep.o)
 .debug_info    0x0000000000016d74      0x27b obj_cooja/mtype891.a(button-sensor.o)
 .debug_info    0x0000000000016fef      0x148 obj_cooja/mtype891.a(leds-arch.o)
 .debug_info    0x0000000000017137      0x116 obj_cooja/mtype891.a(moteid.o)
 .debug_info    0x000000000001724d      0x236 obj_cooja/mtype891.a(pir-sensor.o)
 .debug_info    0x0000000000017483      0x252 obj_cooja/mtype891.a(rs232.o)
 .debug_info    0x00000000000176d5      0x236 obj_cooja/mtype891.a(vib-sensor.o)
 .debug_info    0x000000000001790b      0x16c obj_cooja/mtype891.a(clock.o)
 .debug_info    0x0000000000017a77      0x2e3 obj_cooja/mtype891.a(log.o)
 .debug_info    0x0000000000017d5a      0x416 obj_cooja/mtype891.a(cfs-cooja.o)
 .debug_info    0x0000000000018170      0x983 obj_cooja/mtype891.a(cooja-radio.o)
 .debug_info    0x0000000000018af3      0x398 obj_cooja/mtype891.a(sensors.o)
 .debug_info    0x0000000000018e8b      0x146 obj_cooja/mtype891.a(rimestats.o)
 .debug_info    0x0000000000018fd1      0x46f obj_cooja/mtype891.a(frame802154.o)
 .debug_info    0x0000000000019440      0xce9 obj_cooja/mtype891.a(rpl.o)
 .debug_info    0x000000000001a129      0xce4 obj_cooja/mtype891.a(rpl-ext-header.)
 .debug_info    0x000000000001ae0d      0x181 obj_cooja/mtype891.a(timer.o)
 .debug_info    0x000000000001af8e      0x1bb obj_cooja/mtype891.a(rtimer.o)

.debug_abbrev   0x0000000000000000     0x59d0
 *(.debug_abbrev)
 .debug_abbrev  0x0000000000000000      0x23d server.co
 .debug_abbrev  0x000000000000023d      0x28d obj_cooja/mtype891.o
 .debug_abbrev  0x00000000000004ca       0xd4 obj_cooja/mtype891.a(rimeaddr.o)
 .debug_abbrev  0x000000000000059e      0x2c4 obj_cooja/mtype891.a(nullrdc.o)
 .debug_abbrev  0x0000000000000862       0xa2 obj_cooja/mtype891.a(mac.o)
 .debug_abbrev  0x0000000000000904      0x1b9 obj_cooja/mtype891.a(framer-802154.o)
 .debug_abbrev  0x0000000000000abd      0x2b5 obj_cooja/mtype891.a(csma.o)
 .debug_abbrev  0x0000000000000d72      0x2a9 obj_cooja/mtype891.a(rpl-dag.o)
 .debug_abbrev  0x000000000000101b      0x2af obj_cooja/mtype891.a(rpl-icmp6.o)
 .debug_abbrev  0x00000000000012ca      0x17d obj_cooja/mtype891.a(rpl-timers.o)
 .debug_abbrev  0x0000000000001447      0x19e obj_cooja/mtype891.a(rpl-mrhof.o)
 .debug_abbrev  0x00000000000015e5      0x1fd obj_cooja/mtype891.a(process.o)
 .debug_abbrev  0x00000000000017e2       0xf7 obj_cooja/mtype891.a(autostart.o)
 .debug_abbrev  0x00000000000018d9      0x190 obj_cooja/mtype891.a(serial-line.o)
 .debug_abbrev  0x0000000000001a69       0xdd obj_cooja/mtype891.a(memb.o)
 .debug_abbrev  0x0000000000001b46      0x11e obj_cooja/mtype891.a(list.o)
 .debug_abbrev  0x0000000000001c64      0x1ce obj_cooja/mtype891.a(etimer.o)
 .debug_abbrev  0x0000000000001e32      0x197 obj_cooja/mtype891.a(ctimer.o)
 .debug_abbrev  0x0000000000001fc9       0xb8 obj_cooja/mtype891.a(stimer.o)
 .debug_abbrev  0x0000000000002081       0x69 obj_cooja/mtype891.a(random.o)
 .debug_abbrev  0x00000000000020ea       0xd4 obj_cooja/mtype891.a(ringbuf.o)
 .debug_abbrev  0x00000000000021be      0x1a9 obj_cooja/mtype891.a(nbr-table.o)
 .debug_abbrev  0x0000000000002367       0xdc obj_cooja/mtype891.a(netstack.o)
 .debug_abbrev  0x0000000000002443      0x1c0 obj_cooja/mtype891.a(packetbuf.o)
 .debug_abbrev  0x0000000000002603      0x1b8 obj_cooja/mtype891.a(queuebuf.o)
 .debug_abbrev  0x00000000000027bb      0x27e obj_cooja/mtype891.a(sicslowpan.o)
 .debug_abbrev  0x0000000000002a39      0x1ea obj_cooja/mtype891.a(simple-udp.o)
 .debug_abbrev  0x0000000000002c23      0x2e9 obj_cooja/mtype891.a(tcpip.o)
 .debug_abbrev  0x0000000000002f0c       0xca obj_cooja/mtype891.a(uip-debug.o)
 .debug_abbrev  0x0000000000002fd6      0x289 obj_cooja/mtype891.a(uip-ds6-route.o)
 .debug_abbrev  0x000000000000325f      0x27d obj_cooja/mtype891.a(uip-ds6-nbr.o)
 .debug_abbrev  0x00000000000034dc      0x1ea obj_cooja/mtype891.a(uip-ds6.o)
 .debug_abbrev  0x00000000000036c6      0x139 obj_cooja/mtype891.a(uip-icmp6.o)
 .debug_abbrev  0x00000000000037ff      0x214 obj_cooja/mtype891.a(uip-nd6.o)
 .debug_abbrev  0x0000000000003a13      0x17f obj_cooja/mtype891.a(uip-packetqueue)
 .debug_abbrev  0x0000000000003b92      0x18b obj_cooja/mtype891.a(uip-udp-packet.)
 .debug_abbrev  0x0000000000003d1d      0x25b obj_cooja/mtype891.a(uip6.o)
 .debug_abbrev  0x0000000000003f78      0x263 obj_cooja/mtype891.a(servreg-hack.o)
 .debug_abbrev  0x00000000000041db       0xc2 obj_cooja/mtype891.a(simEnvChange.o)
 .debug_abbrev  0x000000000000429d       0xe2 obj_cooja/mtype891.a(cooja_mt.o)
 .debug_abbrev  0x000000000000437f      0x128 obj_cooja/mtype891.a(cooja_mtarch.o)
 .debug_abbrev  0x00000000000044a7       0xab obj_cooja/mtype891.a(rtimer-arch.o)
 .debug_abbrev  0x0000000000004552       0x2b obj_cooja/mtype891.a(watchdog.o)
 .debug_abbrev  0x000000000000457d       0xdc obj_cooja/mtype891.a(beep.o)
 .debug_abbrev  0x0000000000004659       0xe8 obj_cooja/mtype891.a(button-sensor.o)
 .debug_abbrev  0x0000000000004741       0xd7 obj_cooja/mtype891.a(leds-arch.o)
 .debug_abbrev  0x0000000000004818       0x85 obj_cooja/mtype891.a(moteid.o)
 .debug_abbrev  0x000000000000489d       0xcc obj_cooja/mtype891.a(pir-sensor.o)
 .debug_abbrev  0x0000000000004969      0x13c obj_cooja/mtype891.a(rs232.o)
 .debug_abbrev  0x0000000000004aa5       0xcc obj_cooja/mtype891.a(vib-sensor.o)
 .debug_abbrev  0x0000000000004b71       0xe4 obj_cooja/mtype891.a(clock.o)
 .debug_abbrev  0x0000000000004c55      0x120 obj_cooja/mtype891.a(log.o)
 .debug_abbrev  0x0000000000004d75      0x135 obj_cooja/mtype891.a(cfs-cooja.o)
 .debug_abbrev  0x0000000000004eaa      0x251 obj_cooja/mtype891.a(cooja-radio.o)
 .debug_abbrev  0x00000000000050fb      0x19e obj_cooja/mtype891.a(sensors.o)
 .debug_abbrev  0x0000000000005299       0x5d obj_cooja/mtype891.a(rimestats.o)
 .debug_abbrev  0x00000000000052f6      0x141 obj_cooja/mtype891.a(frame802154.o)
 .debug_abbrev  0x0000000000005437      0x1b6 obj_cooja/mtype891.a(rpl.o)
 .debug_abbrev  0x00000000000055ed      0x1f2 obj_cooja/mtype891.a(rpl-ext-header.)
 .debug_abbrev  0x00000000000057df       0xd4 obj_cooja/mtype891.a(timer.o)
 .debug_abbrev  0x00000000000058b3      0x11d obj_cooja/mtype891.a(rtimer.o)

.debug_line     0x0000000000000000     0x92ea
 *(.debug_line)
 .debug_line    0x0000000000000000      0x31a server.co
 .debug_line    0x000000000000031a      0x558 obj_cooja/mtype891.o
 .debug_line    0x0000000000000872       0xb9 obj_cooja/mtype891.a(rimeaddr.o)
 .debug_line    0x000000000000092b      0x390 obj_cooja/mtype891.a(nullrdc.o)
 .debug_line    0x0000000000000cbb       0x90 obj_cooja/mtype891.a(mac.o)
 .debug_line    0x0000000000000d4b      0x20a obj_cooja/mtype891.a(framer-802154.o)
 .debug_line    0x0000000000000f55      0x3ac obj_cooja/mtype891.a(csma.o)
 .debug_line    0x0000000000001301      0x94f obj_cooja/mtype891.a(rpl-dag.o)
 .debug_line    0x0000000000001c50      0x604 obj_cooja/mtype891.a(rpl-icmp6.o)
 .debug_line    0x0000000000002254      0x27d obj_cooja/mtype891.a(rpl-timers.o)
 .debug_line    0x00000000000024d1      0x2c9 obj_cooja/mtype891.a(rpl-mrhof.o)
 .debug_line    0x000000000000279a      0x254 obj_cooja/mtype891.a(process.o)
 .debug_line    0x00000000000029ee       0xd4 obj_cooja/mtype891.a(autostart.o)
 .debug_line    0x0000000000002ac2      0x15e obj_cooja/mtype891.a(serial-line.o)
 .debug_line    0x0000000000002c20       0xf8 obj_cooja/mtype891.a(memb.o)
 .debug_line    0x0000000000002d18      0x1b4 obj_cooja/mtype891.a(list.o)
 .debug_line    0x0000000000002ecc      0x276 obj_cooja/mtype891.a(etimer.o)
 .debug_line    0x0000000000003142      0x204 obj_cooja/mtype891.a(ctimer.o)
 .debug_line    0x0000000000003346       0xe3 obj_cooja/mtype891.a(stimer.o)
 .debug_line    0x0000000000003429       0x69 obj_cooja/mtype891.a(random.o)
 .debug_line    0x0000000000003492       0xff obj_cooja/mtype891.a(ringbuf.o)
 .debug_line    0x0000000000003591      0x37c obj_cooja/mtype891.a(nbr-table.o)
 .debug_line    0x000000000000390d       0xec obj_cooja/mtype891.a(netstack.o)
 .debug_line    0x00000000000039f9      0x2be obj_cooja/mtype891.a(packetbuf.o)
 .debug_line    0x0000000000003cb7      0x1f6 obj_cooja/mtype891.a(queuebuf.o)
 .debug_line    0x0000000000003ead      0x7b2 obj_cooja/mtype891.a(sicslowpan.o)
 .debug_line    0x000000000000465f      0x1ef obj_cooja/mtype891.a(simple-udp.o)
 .debug_line    0x000000000000484e      0x52d obj_cooja/mtype891.a(tcpip.o)
 .debug_line    0x0000000000004d7b       0xe6 obj_cooja/mtype891.a(uip-debug.o)
 .debug_line    0x0000000000004e61      0x454 obj_cooja/mtype891.a(uip-ds6-route.o)
 .debug_line    0x00000000000052b5      0x3b6 obj_cooja/mtype891.a(uip-ds6-nbr.o)
 .debug_line    0x000000000000566b      0x46d obj_cooja/mtype891.a(uip-ds6.o)
 .debug_line    0x0000000000005ad8      0x1c9 obj_cooja/mtype891.a(uip-icmp6.o)
 .debug_line    0x0000000000005ca1      0x3d1 obj_cooja/mtype891.a(uip-nd6.o)
 .debug_line    0x0000000000006072      0x212 obj_cooja/mtype891.a(uip-packetqueue)
 .debug_line    0x0000000000006284      0x118 obj_cooja/mtype891.a(uip-udp-packet.)
 .debug_line    0x000000000000639c      0x95f obj_cooja/mtype891.a(uip6.o)
 .debug_line    0x0000000000006cfb      0x3a3 obj_cooja/mtype891.a(servreg-hack.o)
 .debug_line    0x000000000000709e      0x10f obj_cooja/mtype891.a(simEnvChange.o)
 .debug_line    0x00000000000071ad      0x13c obj_cooja/mtype891.a(cooja_mt.o)
 .debug_line    0x00000000000072e9      0x19e obj_cooja/mtype891.a(cooja_mtarch.o)
 .debug_line    0x0000000000007487      0x119 obj_cooja/mtype891.a(rtimer-arch.o)
 .debug_line    0x00000000000075a0       0xa3 obj_cooja/mtype891.a(watchdog.o)
 .debug_line    0x0000000000007643      0x183 obj_cooja/mtype891.a(beep.o)
 .debug_line    0x00000000000077c6      0x1b0 obj_cooja/mtype891.a(button-sensor.o)
 .debug_line    0x0000000000007976       0xe4 obj_cooja/mtype891.a(leds-arch.o)
 .debug_line    0x0000000000007a5a       0xb0 obj_cooja/mtype891.a(moteid.o)
 .debug_line    0x0000000000007b0a      0x127 obj_cooja/mtype891.a(pir-sensor.o)
 .debug_line    0x0000000000007c31      0x14a obj_cooja/mtype891.a(rs232.o)
 .debug_line    0x0000000000007d7b      0x127 obj_cooja/mtype891.a(vib-sensor.o)
 .debug_line    0x0000000000007ea2      0x129 obj_cooja/mtype891.a(clock.o)
 .debug_line    0x0000000000007fcb      0x1a9 obj_cooja/mtype891.a(log.o)
 .debug_line    0x0000000000008174      0x1be obj_cooja/mtype891.a(cfs-cooja.o)
 .debug_line    0x0000000000008332      0x368 obj_cooja/mtype891.a(cooja-radio.o)
 .debug_line    0x000000000000869a      0x197 obj_cooja/mtype891.a(sensors.o)
 .debug_line    0x0000000000008831       0x83 obj_cooja/mtype891.a(rimestats.o)
 .debug_line    0x00000000000088b4      0x20f obj_cooja/mtype891.a(frame802154.o)
 .debug_line    0x0000000000008ac3      0x30d obj_cooja/mtype891.a(rpl.o)
 .debug_line    0x0000000000008dd0      0x31e obj_cooja/mtype891.a(rpl-ext-header.)
 .debug_line    0x00000000000090ee      0x108 obj_cooja/mtype891.a(timer.o)
 .debug_line    0x00000000000091f6       0xf4 obj_cooja/mtype891.a(rtimer.o)

.debug_frame
 *(.debug_frame)

.debug_str      0x0000000000000000     0x6463
 *(.debug_str)
 .debug_str     0x0000000000000000      0x816 server.co
                                        0x9eb (size before relaxing)
 .debug_str     0x0000000000000816     0x17af obj_cooja/mtype891.o
                                       0x1aa3 (size before relaxing)
 .debug_str     0x0000000000001fc5       0x74 obj_cooja/mtype891.a(rimeaddr.o)
                                        0x147 (size before relaxing)
 .debug_str     0x0000000000002039      0x666 obj_cooja/mtype891.a(nullrdc.o)
                                        0x8cf (size before relaxing)
 .debug_str     0x000000000000269f       0x46 obj_cooja/mtype891.a(mac.o)
                                        0x15f (size before relaxing)
 .debug_str     0x00000000000026e5       0x7d obj_cooja/mtype891.a(framer-802154.o)
                                        0x624 (size before relaxing)
 .debug_str     0x0000000000002762      0x20d obj_cooja/mtype891.a(csma.o)
                                        0x7f3 (size before relaxing)
 .debug_str     0x000000000000296f      0x538 obj_cooja/mtype891.a(rpl-dag.o)
                                        0xa77 (size before relaxing)
 .debug_str     0x0000000000002ea7      0x226 obj_cooja/mtype891.a(rpl-icmp6.o)
                                        0xc73 (size before relaxing)
 .debug_str     0x00000000000030cd       0xd1 obj_cooja/mtype891.a(rpl-timers.o)
                                        0x573 (size before relaxing)
 .debug_str     0x000000000000319e       0xba obj_cooja/mtype891.a(rpl-mrhof.o)
                                        0x59d (size before relaxing)
 .debug_str     0x0000000000003258      0x16c obj_cooja/mtype891.a(process.o)
                                        0x289 (size before relaxing)
 .debug_str     0x00000000000033c4       0x49 obj_cooja/mtype891.a(autostart.o)
                                        0x14a (size before relaxing)
 .debug_str     0x000000000000340d       0xc8 obj_cooja/mtype891.a(serial-line.o)
                                        0x209 (size before relaxing)
 .debug_str     0x00000000000034d5       0x55 obj_cooja/mtype891.a(memb.o)
                                        0x10f (size before relaxing)
 .debug_str     0x000000000000352a       0xad obj_cooja/mtype891.a(list.o)
                                         0xfc (size before relaxing)
 .debug_str     0x00000000000035d7      0x142 obj_cooja/mtype891.a(etimer.o)
                                        0x29f (size before relaxing)
 .debug_str     0x0000000000003719       0xbc obj_cooja/mtype891.a(ctimer.o)
                                        0x233 (size before relaxing)
 .debug_str     0x00000000000037d5       0x7d obj_cooja/mtype891.a(stimer.o)
                                        0x138 (size before relaxing)
 .debug_str     0x0000000000003852       0x44 obj_cooja/mtype891.a(random.o)
                                         0xf7 (size before relaxing)
 .debug_str     0x0000000000003896       0x6b obj_cooja/mtype891.a(ringbuf.o)
                                        0x147 (size before relaxing)
 .debug_str     0x0000000000003901      0x25b obj_cooja/mtype891.a(nbr-table.o)
                                        0x3c9 (size before relaxing)
 .debug_str     0x0000000000003b5c       0x37 obj_cooja/mtype891.a(netstack.o)
                                        0x1f7 (size before relaxing)
 .debug_str     0x0000000000003b93      0x1e7 obj_cooja/mtype891.a(packetbuf.o)
                                        0x610 (size before relaxing)
 .debug_str     0x0000000000003d7a      0x199 obj_cooja/mtype891.a(queuebuf.o)
                                        0x5de (size before relaxing)
 .debug_str     0x0000000000003f13      0x35d obj_cooja/mtype891.a(sicslowpan.o)
                                        0xa04 (size before relaxing)
 .debug_str     0x0000000000004270       0xed obj_cooja/mtype891.a(simple-udp.o)
                                        0x3f8 (size before relaxing)
 .debug_str     0x000000000000435d      0x20b obj_cooja/mtype891.a(tcpip.o)
                                        0xafc (size before relaxing)
 .debug_str     0x0000000000004568       0x58 obj_cooja/mtype891.a(uip-debug.o)
                                        0x15d (size before relaxing)
 .debug_str     0x00000000000045c0      0x320 obj_cooja/mtype891.a(uip-ds6-route.o)
                                        0x6fa (size before relaxing)
 .debug_str     0x00000000000048e0      0x1b1 obj_cooja/mtype891.a(uip-ds6-nbr.o)
                                        0x8ee (size before relaxing)
 .debug_str     0x0000000000004a91      0x2f7 obj_cooja/mtype891.a(uip-ds6.o)
                                        0x603 (size before relaxing)
 .debug_str     0x0000000000004d88       0xa7 obj_cooja/mtype891.a(uip-icmp6.o)
                                        0x355 (size before relaxing)
 .debug_str     0x0000000000004e2f      0x103 obj_cooja/mtype891.a(uip-nd6.o)
                                        0x542 (size before relaxing)
 .debug_str     0x0000000000004f32      0x100 obj_cooja/mtype891.a(uip-packetqueue)
                                        0x2ce (size before relaxing)
 .debug_str     0x0000000000005032       0x80 obj_cooja/mtype891.a(uip-udp-packet.)
                                        0x217 (size before relaxing)
 .debug_str     0x00000000000050b2      0x2d8 obj_cooja/mtype891.a(uip6.o)
                                        0x789 (size before relaxing)
 .debug_str     0x000000000000538a      0x1dd obj_cooja/mtype891.a(servreg-hack.o)
                                        0x4c7 (size before relaxing)
 .debug_str     0x0000000000005567       0x37 obj_cooja/mtype891.a(simEnvChange.o)
                                        0x185 (size before relaxing)
 .debug_str     0x000000000000559e       0x85 obj_cooja/mtype891.a(cooja_mt.o)
                                        0x1af (size before relaxing)
 .debug_str     0x0000000000005623      0x104 obj_cooja/mtype891.a(cooja_mtarch.o)
                                        0x235 (size before relaxing)
 .debug_str     0x0000000000005727       0xcc obj_cooja/mtype891.a(rtimer-arch.o)
                                        0x1d3 (size before relaxing)
 .debug_str     0x00000000000057f3       0x80 obj_cooja/mtype891.a(watchdog.o)
                                         0xaa (size before relaxing)
 .debug_str     0x0000000000005873       0xcd obj_cooja/mtype891.a(beep.o)
                                        0x1cc (size before relaxing)
 .debug_str     0x0000000000005940       0x79 obj_cooja/mtype891.a(button-sensor.o)
                                        0x1fc (size before relaxing)
 .debug_str     0x00000000000059b9       0x71 obj_cooja/mtype891.a(leds-arch.o)
                                        0x197 (size before relaxing)
 .debug_str     0x0000000000005a2a       0x50 obj_cooja/mtype891.a(moteid.o)
                                        0x182 (size before relaxing)
 .debug_str     0x0000000000005a7a       0x5e obj_cooja/mtype891.a(pir-sensor.o)
                                        0x1b9 (size before relaxing)
 .debug_str     0x0000000000005ad8       0xe4 obj_cooja/mtype891.a(rs232.o)
                                        0x222 (size before relaxing)
 .debug_str     0x0000000000005bbc       0x5e obj_cooja/mtype891.a(vib-sensor.o)
                                        0x1b9 (size before relaxing)
 .debug_str     0x0000000000005c1a       0x6b obj_cooja/mtype891.a(clock.o)
                                        0x1ae (size before relaxing)
 .debug_str     0x0000000000005c85       0xce obj_cooja/mtype891.a(log.o)
                                        0x23c (size before relaxing)
 .debug_str     0x0000000000005d53      0x116 obj_cooja/mtype891.a(cfs-cooja.o)
                                        0x25a (size before relaxing)
 .debug_str     0x0000000000005e69      0x1a6 obj_cooja/mtype891.a(cooja-radio.o)
                                        0x59d (size before relaxing)
 .debug_str     0x000000000000600f       0xaa obj_cooja/mtype891.a(sensors.o)
                                        0x21e (size before relaxing)
 .debug_str     0x00000000000060b9       0x2f obj_cooja/mtype891.a(rimestats.o)
                                         0xfe (size before relaxing)
 .debug_str     0x00000000000060e8       0xd1 obj_cooja/mtype891.a(frame802154.o)
                                        0x30d (size before relaxing)
 .debug_str     0x00000000000061b9       0xd2 obj_cooja/mtype891.a(rpl.o)
                                        0x717 (size before relaxing)
 .debug_str     0x000000000000628b      0x10b obj_cooja/mtype891.a(rpl-ext-header.)
                                        0x6ee (size before relaxing)
 .debug_str     0x0000000000006396       0x26 obj_cooja/mtype891.a(timer.o)
                                        0x134 (size before relaxing)
 .debug_str     0x00000000000063bc       0xa7 obj_cooja/mtype891.a(rtimer.o)
                                        0x18c (size before relaxing)

.debug_loc      0x0000000000000000     0x7560
 *(.debug_loc)
 .debug_loc     0x0000000000000000      0x118 server.co
 .debug_loc     0x0000000000000118      0x218 obj_cooja/mtype891.o
 .debug_loc     0x0000000000000330       0xa8 obj_cooja/mtype891.a(rimeaddr.o)
 .debug_loc     0x00000000000003d8      0x2a0 obj_cooja/mtype891.a(nullrdc.o)
 .debug_loc     0x0000000000000678       0x38 obj_cooja/mtype891.a(mac.o)
 .debug_loc     0x00000000000006b0      0x188 obj_cooja/mtype891.a(framer-802154.o)
 .debug_loc     0x0000000000000838      0x310 obj_cooja/mtype891.a(csma.o)
 .debug_loc     0x0000000000000b48      0x930 obj_cooja/mtype891.a(rpl-dag.o)
 .debug_loc     0x0000000000001478      0x380 obj_cooja/mtype891.a(rpl-icmp6.o)
 .debug_loc     0x00000000000017f8      0x188 obj_cooja/mtype891.a(rpl-timers.o)
 .debug_loc     0x0000000000001980      0x188 obj_cooja/mtype891.a(rpl-mrhof.o)
 .debug_loc     0x0000000000001b08      0x310 obj_cooja/mtype891.a(process.o)
 .debug_loc     0x0000000000001e18       0x70 obj_cooja/mtype891.a(autostart.o)
 .debug_loc     0x0000000000001e88       0xa8 obj_cooja/mtype891.a(serial-line.o)
 .debug_loc     0x0000000000001f30       0xe0 obj_cooja/mtype891.a(memb.o)
 .debug_loc     0x0000000000002010      0x2a0 obj_cooja/mtype891.a(list.o)
 .debug_loc     0x00000000000022b0      0x310 obj_cooja/mtype891.a(etimer.o)
 .debug_loc     0x00000000000025c0      0x188 obj_cooja/mtype891.a(ctimer.o)
 .debug_loc     0x0000000000002748      0x150 obj_cooja/mtype891.a(stimer.o)
 .debug_loc     0x0000000000002898       0x70 obj_cooja/mtype891.a(random.o)
 .debug_loc     0x0000000000002908      0x118 obj_cooja/mtype891.a(ringbuf.o)
 .debug_loc     0x0000000000002a20      0x428 obj_cooja/mtype891.a(nbr-table.o)
 .debug_loc     0x0000000000002e48       0x38 obj_cooja/mtype891.a(netstack.o)
 .debug_loc     0x0000000000002e80      0x498 obj_cooja/mtype891.a(packetbuf.o)
 .debug_loc     0x0000000000003318      0x268 obj_cooja/mtype891.a(queuebuf.o)
 .debug_loc     0x0000000000003580      0x3f0 obj_cooja/mtype891.a(sicslowpan.o)
 .debug_loc     0x0000000000003970      0x150 obj_cooja/mtype891.a(simple-udp.o)
 .debug_loc     0x0000000000003ac0      0x428 obj_cooja/mtype891.a(tcpip.o)
 .debug_loc     0x0000000000003ee8       0x70 obj_cooja/mtype891.a(uip-debug.o)
 .debug_loc     0x0000000000003f58      0x460 obj_cooja/mtype891.a(uip-ds6-route.o)
 .debug_loc     0x00000000000043b8      0x310 obj_cooja/mtype891.a(uip-ds6-nbr.o)
 .debug_loc     0x00000000000046c8      0x4d0 obj_cooja/mtype891.a(uip-ds6.o)
 .debug_loc     0x0000000000004b98       0xa8 obj_cooja/mtype891.a(uip-icmp6.o)
 .debug_loc     0x0000000000004c40       0xe0 obj_cooja/mtype891.a(uip-nd6.o)
 .debug_loc     0x0000000000004d20      0x188 obj_cooja/mtype891.a(uip-packetqueue)
 .debug_loc     0x0000000000004ea8       0x70 obj_cooja/mtype891.a(uip-udp-packet.)
 .debug_loc     0x0000000000004f18      0x428 obj_cooja/mtype891.a(uip6.o)
 .debug_loc     0x0000000000005340      0x268 obj_cooja/mtype891.a(servreg-hack.o)
 .debug_loc     0x00000000000055a8       0x70 obj_cooja/mtype891.a(simEnvChange.o)
 .debug_loc     0x0000000000005618      0x150 obj_cooja/mtype891.a(cooja_mt.o)
 .debug_loc     0x0000000000005768      0x1f8 obj_cooja/mtype891.a(cooja_mtarch.o)
 .debug_loc     0x0000000000005960      0x150 obj_cooja/mtype891.a(rtimer-arch.o)
 .debug_loc     0x0000000000005ab0      0x118 obj_cooja/mtype891.a(watchdog.o)
 .debug_loc     0x0000000000005bc8      0x268 obj_cooja/mtype891.a(beep.o)
 .debug_loc     0x0000000000005e30      0x118 obj_cooja/mtype891.a(button-sensor.o)
 .debug_loc     0x0000000000005f48      0x118 obj_cooja/mtype891.a(leds-arch.o)
 .debug_loc     0x0000000000006060       0x70 obj_cooja/mtype891.a(moteid.o)
 .debug_loc     0x00000000000060d0      0x118 obj_cooja/mtype891.a(pir-sensor.o)
 .debug_loc     0x00000000000061e8      0x1c0 obj_cooja/mtype891.a(rs232.o)
 .debug_loc     0x00000000000063a8      0x118 obj_cooja/mtype891.a(vib-sensor.o)
 .debug_loc     0x00000000000064c0      0x150 obj_cooja/mtype891.a(clock.o)
 .debug_loc     0x0000000000006610      0x1f8 obj_cooja/mtype891.a(log.o)
 .debug_loc     0x0000000000006808      0x268 obj_cooja/mtype891.a(cfs-cooja.o)
 .debug_loc     0x0000000000006a70      0x3b8 obj_cooja/mtype891.a(cooja-radio.o)
 .debug_loc     0x0000000000006e28      0x150 obj_cooja/mtype891.a(sensors.o)
 .debug_loc     0x0000000000006f78      0x118 obj_cooja/mtype891.a(frame802154.o)
 .debug_loc     0x0000000000007090      0x188 obj_cooja/mtype891.a(rpl.o)
 .debug_loc     0x0000000000007218      0x188 obj_cooja/mtype891.a(rpl-ext-header.)
 .debug_loc     0x00000000000073a0      0x118 obj_cooja/mtype891.a(timer.o)
 .debug_loc     0x00000000000074b8       0xa8 obj_cooja/mtype891.a(rtimer.o)

.debug_macinfo
 *(.debug_macinfo)

.debug_weaknames
 *(.debug_weaknames)

.debug_funcnames
 *(.debug_funcnames)

.debug_typenames
 *(.debug_typenames)

.debug_varnames
 *(.debug_varnames)

.debug_pubtypes
 *(.debug_pubtypes)

.debug_ranges   0x0000000000000000     0x13e0
 *(.debug_ranges)
 .debug_ranges  0x0000000000000000       0x30 server.co
 .debug_ranges  0x0000000000000030       0x58 obj_cooja/mtype891.o
 .debug_ranges  0x0000000000000088       0x20 obj_cooja/mtype891.a(rimeaddr.o)
 .debug_ranges  0x00000000000000a8       0xb0 obj_cooja/mtype891.a(nullrdc.o)
 .debug_ranges  0x0000000000000158       0x10 obj_cooja/mtype891.a(mac.o)
 .debug_ranges  0x0000000000000168       0x40 obj_cooja/mtype891.a(framer-802154.o)
 .debug_ranges  0x00000000000001a8       0x90 obj_cooja/mtype891.a(csma.o)
 .debug_ranges  0x0000000000000238      0x158 obj_cooja/mtype891.a(rpl-dag.o)
 .debug_ranges  0x0000000000000390       0x88 obj_cooja/mtype891.a(rpl-icmp6.o)
 .debug_ranges  0x0000000000000418       0x40 obj_cooja/mtype891.a(rpl-timers.o)
 .debug_ranges  0x0000000000000458       0x40 obj_cooja/mtype891.a(rpl-mrhof.o)
 .debug_ranges  0x0000000000000498       0x78 obj_cooja/mtype891.a(process.o)
 .debug_ranges  0x0000000000000510       0x18 obj_cooja/mtype891.a(autostart.o)
 .debug_ranges  0x0000000000000528       0x38 obj_cooja/mtype891.a(serial-line.o)
 .debug_ranges  0x0000000000000560       0x28 obj_cooja/mtype891.a(memb.o)
 .debug_ranges  0x0000000000000588       0x68 obj_cooja/mtype891.a(list.o)
 .debug_ranges  0x00000000000005f0       0x90 obj_cooja/mtype891.a(etimer.o)
 .debug_ranges  0x0000000000000680       0x40 obj_cooja/mtype891.a(ctimer.o)
 .debug_ranges  0x00000000000006c0       0x38 obj_cooja/mtype891.a(stimer.o)
 .debug_ranges  0x00000000000006f8       0x18 obj_cooja/mtype891.a(random.o)
 .debug_ranges  0x0000000000000710       0x30 obj_cooja/mtype891.a(ringbuf.o)
 .debug_ranges  0x0000000000000740       0xd0 obj_cooja/mtype891.a(nbr-table.o)
 .debug_ranges  0x0000000000000810       0x10 obj_cooja/mtype891.a(netstack.o)
 .debug_ranges  0x0000000000000820       0xb0 obj_cooja/mtype891.a(packetbuf.o)
 .debug_ranges  0x00000000000008d0       0x60 obj_cooja/mtype891.a(queuebuf.o)
 .debug_ranges  0x0000000000000930       0xe0 obj_cooja/mtype891.a(sicslowpan.o)
 .debug_ranges  0x0000000000000a10       0x38 obj_cooja/mtype891.a(simple-udp.o)
 .debug_ranges  0x0000000000000a48       0xa0 obj_cooja/mtype891.a(tcpip.o)
 .debug_ranges  0x0000000000000ae8       0x18 obj_cooja/mtype891.a(uip-debug.o)
 .debug_ranges  0x0000000000000b00       0xa8 obj_cooja/mtype891.a(uip-ds6-route.o)
 .debug_ranges  0x0000000000000ba8       0x78 obj_cooja/mtype891.a(uip-ds6-nbr.o)
 .debug_ranges  0x0000000000000c20       0xb8 obj_cooja/mtype891.a(uip-ds6.o)
 .debug_ranges  0x0000000000000cd8       0x20 obj_cooja/mtype891.a(uip-icmp6.o)
 .debug_ranges  0x0000000000000cf8       0x58 obj_cooja/mtype891.a(uip-nd6.o)
 .debug_ranges  0x0000000000000d50       0x40 obj_cooja/mtype891.a(uip-packetqueue)
 .debug_ranges  0x0000000000000d90       0x18 obj_cooja/mtype891.a(uip-udp-packet.)
 .debug_ranges  0x0000000000000da8       0xa0 obj_cooja/mtype891.a(uip6.o)
 .debug_ranges  0x0000000000000e48       0x60 obj_cooja/mtype891.a(servreg-hack.o)
 .debug_ranges  0x0000000000000ea8       0x18 obj_cooja/mtype891.a(simEnvChange.o)
 .debug_ranges  0x0000000000000ec0       0x38 obj_cooja/mtype891.a(cooja_mt.o)
 .debug_ranges  0x0000000000000ef8       0x50 obj_cooja/mtype891.a(cooja_mtarch.o)
 .debug_ranges  0x0000000000000f48       0x38 obj_cooja/mtype891.a(rtimer-arch.o)
 .debug_ranges  0x0000000000000f80       0x30 obj_cooja/mtype891.a(watchdog.o)
 .debug_ranges  0x0000000000000fb0       0x60 obj_cooja/mtype891.a(beep.o)
 .debug_ranges  0x0000000000001010       0x30 obj_cooja/mtype891.a(button-sensor.o)
 .debug_ranges  0x0000000000001040       0x30 obj_cooja/mtype891.a(leds-arch.o)
 .debug_ranges  0x0000000000001070       0x18 obj_cooja/mtype891.a(moteid.o)
 .debug_ranges  0x0000000000001088       0x30 obj_cooja/mtype891.a(pir-sensor.o)
 .debug_ranges  0x00000000000010b8       0x48 obj_cooja/mtype891.a(rs232.o)
 .debug_ranges  0x0000000000001100       0x30 obj_cooja/mtype891.a(vib-sensor.o)
 .debug_ranges  0x0000000000001130       0x38 obj_cooja/mtype891.a(clock.o)
 .debug_ranges  0x0000000000001168       0x50 obj_cooja/mtype891.a(log.o)
 .debug_ranges  0x00000000000011b8       0x60 obj_cooja/mtype891.a(cfs-cooja.o)
 .debug_ranges  0x0000000000001218       0x90 obj_cooja/mtype891.a(cooja-radio.o)
 .debug_ranges  0x00000000000012a8       0x38 obj_cooja/mtype891.a(sensors.o)
 .debug_ranges  0x00000000000012e0       0x30 obj_cooja/mtype891.a(frame802154.o)
 .debug_ranges  0x0000000000001310       0x40 obj_cooja/mtype891.a(rpl.o)
 .debug_ranges  0x0000000000001350       0x40 obj_cooja/mtype891.a(rpl-ext-header.)
 .debug_ranges  0x0000000000001390       0x30 obj_cooja/mtype891.a(timer.o)
 .debug_ranges  0x00000000000013c0       0x20 obj_cooja/mtype891.a(rtimer.o)

.gnu.attributes
 *(.gnu.attributes)

/DISCARD/
 *(.note.GNU-stack)
 *(.gnu_debuglink)
 *(.gnu.lto_*)
OUTPUT(obj_cooja/mtype891.cooja elf32-i386)
