Archive member included because of file (symbol)

obj_cooja/mtype74.a(rimeaddr.o)
                              obj_cooja/mtype74.o (rimeaddr_node_addr)
obj_cooja/mtype74.a(nullmac.o)
                              obj_cooja/mtype74.o (nullmac_driver)
obj_cooja/mtype74.a(nullrdc.o)
                              obj_cooja/mtype74.o (nullrdc_driver)
obj_cooja/mtype74.a(mac.o)    obj_cooja/mtype74.a(nullrdc.o) (mac_call_sent_callback)
obj_cooja/mtype74.a(framer-802154.o)
                              obj_cooja/mtype74.a(nullrdc.o) (framer_802154)
obj_cooja/mtype74.a(rpl-dag.o)
                              server.co (rpl_set_root)
obj_cooja/mtype74.a(rpl-icmp6.o)
                              obj_cooja/mtype74.a(rpl-dag.o) (dao_output)
obj_cooja/mtype74.a(rpl-timers.o)
                              obj_cooja/mtype74.a(rpl-dag.o) (rpl_reset_dio_timer)
obj_cooja/mtype74.a(rpl-mrhof.o)
                              obj_cooja/mtype74.a(rpl-dag.o) (rpl_mrhof)
obj_cooja/mtype74.a(process.o)
                              obj_cooja/mtype74.o (process_start)
obj_cooja/mtype74.a(autostart.o)
                              obj_cooja/mtype74.o (autostart_start)
obj_cooja/mtype74.a(serial-line.o)
                              obj_cooja/mtype74.o (serial_line_init)
obj_cooja/mtype74.a(list.o)   obj_cooja/mtype74.a(rpl-dag.o) (list_add)
obj_cooja/mtype74.a(etimer.o)
                              obj_cooja/mtype74.o (etimer_process)
obj_cooja/mtype74.a(ctimer.o)
                              obj_cooja/mtype74.o (ctimer_init)
obj_cooja/mtype74.a(stimer.o)
                              obj_cooja/mtype74.a(rpl-icmp6.o) (stimer_set)
obj_cooja/mtype74.a(random.o)
                              obj_cooja/mtype74.a(framer-802154.o) (random_rand)
obj_cooja/mtype74.a(ringbuf.o)
                              obj_cooja/mtype74.a(serial-line.o) (ringbuf_init)
obj_cooja/mtype74.a(nbr-table.o)
                              obj_cooja/mtype74.a(rpl-dag.o) (nbr_table_register)
obj_cooja/mtype74.a(netstack.o)
                              obj_cooja/mtype74.o (netstack_init)
obj_cooja/mtype74.a(packetbuf.o)
                              obj_cooja/mtype74.a(nullrdc.o) (packetbuf_attrs)
obj_cooja/mtype74.a(queuebuf.o)
                              obj_cooja/mtype74.o (queuebuf_init)
obj_cooja/mtype74.a(sicslowpan.o)
                              obj_cooja/mtype74.o (sicslowpan_driver)
obj_cooja/mtype74.a(simple-udp.o)
                              server.co (simple_udp_sendto)
obj_cooja/mtype74.a(tcpip.o)  obj_cooja/mtype74.a(simple-udp.o) (tcpip_event)
obj_cooja/mtype74.a(uip-debug.o)
                              server.co (uip_debug_ipaddr_print)
obj_cooja/mtype74.a(uip-ds6-route.o)
                              obj_cooja/mtype74.a(rpl-icmp6.o) (uip_ds6_route_nexthop)
obj_cooja/mtype74.a(uip-ds6-nbr.o)
                              obj_cooja/mtype74.a(rpl-icmp6.o) (uip_ds6_nbr_add)
obj_cooja/mtype74.a(uip-ds6.o)
                              obj_cooja/mtype74.a(tcpip.o) (uip_ds6_timer_periodic)
obj_cooja/mtype74.a(uip-icmp6.o)
                              obj_cooja/mtype74.a(rpl-icmp6.o) (uip_icmp6_send)
obj_cooja/mtype74.a(uip-nd6.o)
                              obj_cooja/mtype74.a(tcpip.o) (uip_nd6_ns_output)
obj_cooja/mtype74.a(uip-packetqueue)
                              obj_cooja/mtype74.a(uip-ds6-nbr.o) (uip_packetqueue_new)
obj_cooja/mtype74.a(uip-udp-packet.)
                              obj_cooja/mtype74.a(simple-udp.o) (uip_udp_packet_sendto)
obj_cooja/mtype74.a(uip6.o)   server.co (uip_lladdr)
obj_cooja/mtype74.a(servreg-hack.o)
                              server.co (servreg_hack_init)
obj_cooja/mtype74.a(simEnvChange.o)
                              obj_cooja/mtype74.o (simDontFallAsleep)
obj_cooja/mtype74.a(cooja_mt.o)
                              obj_cooja/mtype74.o (cooja_mt_start)
obj_cooja/mtype74.a(cooja_mtarch.o)
                              obj_cooja/mtype74.a(cooja_mt.o) (cooja_mtarch_init)
obj_cooja/mtype74.a(rtimer-arch.o)
                              obj_cooja/mtype74.o (rtimer_arch_next)
obj_cooja/mtype74.a(watchdog.o)
                              obj_cooja/mtype74.a(nullrdc.o) (watchdog_periodic)
obj_cooja/mtype74.a(beep.o)   obj_cooja/mtype74.o (beep_interface)
obj_cooja/mtype74.a(button-sensor.o)
                              obj_cooja/mtype74.o (button_interface)
obj_cooja/mtype74.a(leds-arch.o)
                              obj_cooja/mtype74.o (leds_interface)
obj_cooja/mtype74.a(moteid.o)
                              obj_cooja/mtype74.o (moteid_interface)
obj_cooja/mtype74.a(pir-sensor.o)
                              obj_cooja/mtype74.o (pir_interface)
obj_cooja/mtype74.a(rs232.o)  obj_cooja/mtype74.o (rs232_interface)
obj_cooja/mtype74.a(vib-sensor.o)
                              obj_cooja/mtype74.o (vib_interface)
obj_cooja/mtype74.a(clock.o)  obj_cooja/mtype74.o (clock_interface)
obj_cooja/mtype74.a(log.o)    obj_cooja/mtype74.o (simlog_interface)
obj_cooja/mtype74.a(cfs-cooja.o)
                              obj_cooja/mtype74.o (cfs_interface)
obj_cooja/mtype74.a(cooja-radio.o)
                              obj_cooja/mtype74.o (radio_interface)
obj_cooja/mtype74.a(sensors.o)
                              obj_cooja/mtype74.o (sensors_process)
obj_cooja/mtype74.a(rimestats.o)
                              obj_cooja/mtype74.a(nullrdc.o) (rimestats)
obj_cooja/mtype74.a(frame802154.o)
                              obj_cooja/mtype74.a(framer-802154.o) (frame802154_hdrlen)
obj_cooja/mtype74.a(rpl.o)    obj_cooja/mtype74.a(rpl-timers.o) (rpl_purge_routes)
obj_cooja/mtype74.a(rpl-ext-header.)
                              obj_cooja/mtype74.a(uip6.o) (rpl_verify_header)
obj_cooja/mtype74.a(memb.o)   obj_cooja/mtype74.a(queuebuf.o) (memb_init)
obj_cooja/mtype74.a(timer.o)  obj_cooja/mtype74.a(etimer.o) (timer_set)
obj_cooja/mtype74.a(rtimer.o)
                              obj_cooja/mtype74.a(rtimer-arch.o) (rtimer_run_next)

Allocating common symbols
Common symbol       size              file

default_instance    0x4               obj_cooja/mtype74.a(rpl-dag.o)
simButtonIsActive   0x1               obj_cooja/mtype74.a(button-sensor.o)
simButtonIsDown     0x1               obj_cooja/mtype74.a(button-sensor.o)
simOutDataBuffer    0x80              obj_cooja/mtype74.a(cooja-radio.o)
uip_ds6_prefix_list
                    0x60              obj_cooja/mtype74.a(uip-ds6.o)
simSerialReceivingFlag
                    0x1               obj_cooja/mtype74.a(rs232.o)
simLoggedLength     0x4               obj_cooja/mtype74.a(log.o)
simSerialReceivingLength
                    0x4               obj_cooja/mtype74.a(rs232.o)
simEtimerPending    0x4               obj_cooja/mtype74.a(simEnvChange.o)
uip_slen            0x2               obj_cooja/mtype74.a(uip6.o)
uip_ds6_timer_periodic
                    0x10              obj_cooja/mtype74.a(uip-ds6.o)
uip_acc32           0x4               obj_cooja/mtype74.a(uip6.o)
uip_conns           0xc0              obj_cooja/mtype74.a(uip6.o)
simVibChanged       0x1               obj_cooja/mtype74.a(vib-sensor.o)
rimestats           0x48              obj_cooja/mtype74.a(rimestats.o)
uip_ds6_netif_addr_list_offset
                    0x1               obj_cooja/mtype74.a(uip-ds6.o)
uip_lladdr          0x8               obj_cooja/mtype74.a(uip6.o)
instance_table      0xf4              obj_cooja/mtype74.a(rpl-dag.o)
simProcessRunValue  0x4               obj_cooja/mtype74.a(simEnvChange.o)
serial_line_event_message
                    0x1               obj_cooja/mtype74.a(serial-line.o)
uip_appdata         0x4               obj_cooja/mtype74.a(uip6.o)
referenceVar        0x4               obj_cooja/mtype74.o
simCurrentTime      0x4               obj_cooja/mtype74.a(clock.o)
simVibIsActive      0x1               obj_cooja/mtype74.a(vib-sensor.o)
simNextExpirationTime
                    0x4               obj_cooja/mtype74.a(simEnvChange.o)
uip_ds6_if          0xf8              obj_cooja/mtype74.a(uip-ds6.o)
uip_flags           0x1               obj_cooja/mtype74.a(uip6.o)
uip_ds6_timer_ra    0x8               obj_cooja/mtype74.a(uip-ds6.o)
simSerialReceivingData
                    0x400             obj_cooja/mtype74.a(rs232.o)
simLoggedFlag       0x1               obj_cooja/mtype74.a(log.o)
packetbuf_attrs     0x30              obj_cooja/mtype74.a(packetbuf.o)
uip_ds6_addr_size   0x1               obj_cooja/mtype74.a(uip-ds6.o)
uip_aligned_buf     0xf0              obj_cooja/mtype74.a(uip6.o)
simRandomSeed       0x4               obj_cooja/mtype74.a(moteid.o)
simLoggedData       0x400             obj_cooja/mtype74.a(log.o)
simLedsValue        0x1               obj_cooja/mtype74.a(leds-arch.o)
uip_listenports     0x10              obj_cooja/mtype74.a(uip6.o)
uip_len             0x2               obj_cooja/mtype74.a(uip6.o)
simButtonChanged    0x1               obj_cooja/mtype74.a(button-sensor.o)
simPirIsActive      0x1               obj_cooja/mtype74.a(pir-sensor.o)
simInDataBuffer     0x80              obj_cooja/mtype74.a(cooja-radio.o)
simPirChanged       0x1               obj_cooja/mtype74.a(pir-sensor.o)
simBeeped           0x1               obj_cooja/mtype74.a(beep.o)
tcpip_event         0x1               obj_cooja/mtype74.a(tcpip.o)
uip_sappdata        0x4               obj_cooja/mtype74.a(uip6.o)
sensors_event       0x1               obj_cooja/mtype74.a(sensors.o)
uip_udp_conns       0x180             obj_cooja/mtype74.a(uip6.o)
rimeaddr_node_addr  0x8               obj_cooja/mtype74.a(rimeaddr.o)
frag_sender         0x8               obj_cooja/mtype74.a(sicslowpan.o)
packetbuf_addrs     0x20              obj_cooja/mtype74.a(packetbuf.o)
uip_udp_conn        0x4               obj_cooja/mtype74.a(uip6.o)
simMoteIDChanged    0x1               obj_cooja/mtype74.a(moteid.o)
sensors_flags       0x4               obj_cooja/mtype74.o
uip_next_hdr        0x4               obj_cooja/mtype74.a(uip6.o)
simMoteID           0x4               obj_cooja/mtype74.a(moteid.o)
uip_conn            0x4               obj_cooja/mtype74.a(uip6.o)

Discarded input sections

 .note.GNU-stack
                0x0000000000000000        0x0 /usr/lib/gcc/i686-linux-gnu/4.6/../../../i386-linux-gnu/crti.o
 .gnu_debuglink
                0x0000000000000000        0xc /usr/lib/gcc/i686-linux-gnu/4.6/../../../i386-linux-gnu/crti.o
 .group         0x0000000000000000        0x8 /usr/lib/gcc/i686-linux-gnu/4.6/crtbeginS.o
 .note.GNU-stack
                0x0000000000000000        0x0 /usr/lib/gcc/i686-linux-gnu/4.6/crtbeginS.o
 .note.GNU-stack
                0x0000000000000000        0x0 server.co
 .note.GNU-stack
                0x0000000000000000        0x0 obj_cooja/mtype74.o
 .note.GNU-stack
                0x0000000000000000        0x0 obj_cooja/mtype74.a(rimeaddr.o)
 .note.GNU-stack
                0x0000000000000000        0x0 obj_cooja/mtype74.a(nullmac.o)
 .note.GNU-stack
                0x0000000000000000        0x0 obj_cooja/mtype74.a(nullrdc.o)
 .note.GNU-stack
                0x0000000000000000        0x0 obj_cooja/mtype74.a(mac.o)
 .note.GNU-stack
                0x0000000000000000        0x0 obj_cooja/mtype74.a(framer-802154.o)
 .note.GNU-stack
                0x0000000000000000        0x0 obj_cooja/mtype74.a(rpl-dag.o)
 .note.GNU-stack
                0x0000000000000000        0x0 obj_cooja/mtype74.a(rpl-icmp6.o)
 .note.GNU-stack
                0x0000000000000000        0x0 obj_cooja/mtype74.a(rpl-timers.o)
 .note.GNU-stack
                0x0000000000000000        0x0 obj_cooja/mtype74.a(rpl-mrhof.o)
 .note.GNU-stack
                0x0000000000000000        0x0 obj_cooja/mtype74.a(process.o)
 .note.GNU-stack
                0x0000000000000000        0x0 obj_cooja/mtype74.a(autostart.o)
 .note.GNU-stack
                0x0000000000000000        0x0 obj_cooja/mtype74.a(serial-line.o)
 .note.GNU-stack
                0x0000000000000000        0x0 obj_cooja/mtype74.a(list.o)
 .note.GNU-stack
                0x0000000000000000        0x0 obj_cooja/mtype74.a(etimer.o)
 .note.GNU-stack
                0x0000000000000000        0x0 obj_cooja/mtype74.a(ctimer.o)
 .note.GNU-stack
                0x0000000000000000        0x0 obj_cooja/mtype74.a(stimer.o)
 .note.GNU-stack
                0x0000000000000000        0x0 obj_cooja/mtype74.a(random.o)
 .note.GNU-stack
                0x0000000000000000        0x0 obj_cooja/mtype74.a(ringbuf.o)
 .note.GNU-stack
                0x0000000000000000        0x0 obj_cooja/mtype74.a(nbr-table.o)
 .note.GNU-stack
                0x0000000000000000        0x0 obj_cooja/mtype74.a(netstack.o)
 .note.GNU-stack
                0x0000000000000000        0x0 obj_cooja/mtype74.a(packetbuf.o)
 .note.GNU-stack
                0x0000000000000000        0x0 obj_cooja/mtype74.a(queuebuf.o)
 .note.GNU-stack
                0x0000000000000000        0x0 obj_cooja/mtype74.a(sicslowpan.o)
 .note.GNU-stack
                0x0000000000000000        0x0 obj_cooja/mtype74.a(simple-udp.o)
 .note.GNU-stack
                0x0000000000000000        0x0 obj_cooja/mtype74.a(tcpip.o)
 .note.GNU-stack
                0x0000000000000000        0x0 obj_cooja/mtype74.a(uip-debug.o)
 .note.GNU-stack
                0x0000000000000000        0x0 obj_cooja/mtype74.a(uip-ds6-route.o)
 .note.GNU-stack
                0x0000000000000000        0x0 obj_cooja/mtype74.a(uip-ds6-nbr.o)
 .note.GNU-stack
                0x0000000000000000        0x0 obj_cooja/mtype74.a(uip-ds6.o)
 .note.GNU-stack
                0x0000000000000000        0x0 obj_cooja/mtype74.a(uip-icmp6.o)
 .note.GNU-stack
                0x0000000000000000        0x0 obj_cooja/mtype74.a(uip-nd6.o)
 .note.GNU-stack
                0x0000000000000000        0x0 obj_cooja/mtype74.a(uip-packetqueue)
 .note.GNU-stack
                0x0000000000000000        0x0 obj_cooja/mtype74.a(uip-udp-packet.)
 .note.GNU-stack
                0x0000000000000000        0x0 obj_cooja/mtype74.a(uip6.o)
 .note.GNU-stack
                0x0000000000000000        0x0 obj_cooja/mtype74.a(servreg-hack.o)
 .note.GNU-stack
                0x0000000000000000        0x0 obj_cooja/mtype74.a(simEnvChange.o)
 .note.GNU-stack
                0x0000000000000000        0x0 obj_cooja/mtype74.a(cooja_mt.o)
 .note.GNU-stack
                0x0000000000000000        0x0 obj_cooja/mtype74.a(cooja_mtarch.o)
 .note.GNU-stack
                0x0000000000000000        0x0 obj_cooja/mtype74.a(rtimer-arch.o)
 .note.GNU-stack
                0x0000000000000000        0x0 obj_cooja/mtype74.a(watchdog.o)
 .note.GNU-stack
                0x0000000000000000        0x0 obj_cooja/mtype74.a(beep.o)
 .note.GNU-stack
                0x0000000000000000        0x0 obj_cooja/mtype74.a(button-sensor.o)
 .note.GNU-stack
                0x0000000000000000        0x0 obj_cooja/mtype74.a(leds-arch.o)
 .note.GNU-stack
                0x0000000000000000        0x0 obj_cooja/mtype74.a(moteid.o)
 .note.GNU-stack
                0x0000000000000000        0x0 obj_cooja/mtype74.a(pir-sensor.o)
 .note.GNU-stack
                0x0000000000000000        0x0 obj_cooja/mtype74.a(rs232.o)
 .note.GNU-stack
                0x0000000000000000        0x0 obj_cooja/mtype74.a(vib-sensor.o)
 .note.GNU-stack
                0x0000000000000000        0x0 obj_cooja/mtype74.a(clock.o)
 .note.GNU-stack
                0x0000000000000000        0x0 obj_cooja/mtype74.a(log.o)
 .note.GNU-stack
                0x0000000000000000        0x0 obj_cooja/mtype74.a(cfs-cooja.o)
 .note.GNU-stack
                0x0000000000000000        0x0 obj_cooja/mtype74.a(cooja-radio.o)
 .note.GNU-stack
                0x0000000000000000        0x0 obj_cooja/mtype74.a(sensors.o)
 .note.GNU-stack
                0x0000000000000000        0x0 obj_cooja/mtype74.a(rimestats.o)
 .note.GNU-stack
                0x0000000000000000        0x0 obj_cooja/mtype74.a(frame802154.o)
 .note.GNU-stack
                0x0000000000000000        0x0 obj_cooja/mtype74.a(rpl.o)
 .note.GNU-stack
                0x0000000000000000        0x0 obj_cooja/mtype74.a(rpl-ext-header.)
 .note.GNU-stack
                0x0000000000000000        0x0 obj_cooja/mtype74.a(memb.o)
 .note.GNU-stack
                0x0000000000000000        0x0 obj_cooja/mtype74.a(timer.o)
 .note.GNU-stack
                0x0000000000000000        0x0 obj_cooja/mtype74.a(rtimer.o)
 .group         0x0000000000000000        0x8 /usr/lib/gcc/i686-linux-gnu/4.6/crtendS.o
 .text.__i686.get_pc_thunk.bx
                0x0000000000000000        0x4 /usr/lib/gcc/i686-linux-gnu/4.6/crtendS.o
 .note.GNU-stack
                0x0000000000000000        0x0 /usr/lib/gcc/i686-linux-gnu/4.6/crtendS.o
 .note.GNU-stack
                0x0000000000000000        0x0 /usr/lib/gcc/i686-linux-gnu/4.6/../../../i386-linux-gnu/crtn.o
 .gnu_debuglink
                0x0000000000000000        0xc /usr/lib/gcc/i686-linux-gnu/4.6/../../../i386-linux-gnu/crtn.o

Memory Configuration

Name             Origin             Length             Attributes
*default*        0x0000000000000000 0xffffffffffffffff

Linker script and memory map

LOAD /usr/lib/gcc/i686-linux-gnu/4.6/../../../i386-linux-gnu/crti.o
LOAD /usr/lib/gcc/i686-linux-gnu/4.6/crtbeginS.o
LOAD server.co
LOAD obj_cooja/mtype74.o
LOAD obj_cooja/mtype74.a
LOAD /usr/lib/gcc/i686-linux-gnu/4.6/libgcc.a
LOAD /usr/lib/gcc/i686-linux-gnu/4.6/libgcc_s.so
LOAD /usr/lib/gcc/i686-linux-gnu/4.6/../../../i386-linux-gnu/libc.so
START GROUP
LOAD /lib/i386-linux-gnu/libc.so.6
LOAD /usr/lib/i386-linux-gnu/libc_nonshared.a
LOAD /lib/i386-linux-gnu/ld-linux.so.2
END GROUP
LOAD /usr/lib/gcc/i686-linux-gnu/4.6/libgcc.a
LOAD /usr/lib/gcc/i686-linux-gnu/4.6/libgcc_s.so
LOAD /usr/lib/gcc/i686-linux-gnu/4.6/crtendS.o
LOAD /usr/lib/gcc/i686-linux-gnu/4.6/../../../i386-linux-gnu/crtn.o
                0x0000000000000114                . = (0x0 + SIZEOF_HEADERS)

.note.gnu.build-id
                0x0000000000000114       0x24
 *(.note.gnu.build-id)
 .note.gnu.build-id
                0x0000000000000114       0x24 /usr/lib/gcc/i686-linux-gnu/4.6/../../../i386-linux-gnu/crti.o

.hash
 *(.hash)

.gnu.hash       0x0000000000000138      0xda0
 *(.gnu.hash)
 .gnu.hash      0x0000000000000138      0xda0 /usr/lib/gcc/i686-linux-gnu/4.6/../../../i386-linux-gnu/crti.o

.dynsym         0x0000000000000ed8     0x1ee0
 *(.dynsym)
 .dynsym        0x0000000000000ed8     0x1ee0 /usr/lib/gcc/i686-linux-gnu/4.6/../../../i386-linux-gnu/crti.o

.dynstr         0x0000000000002db8     0x1f2e
 *(.dynstr)
 .dynstr        0x0000000000002db8     0x1f2e /usr/lib/gcc/i686-linux-gnu/4.6/../../../i386-linux-gnu/crti.o

.gnu.version    0x0000000000004ce6      0x3dc
 *(.gnu.version)
 .gnu.version   0x0000000000004ce6      0x3dc /usr/lib/gcc/i686-linux-gnu/4.6/../../../i386-linux-gnu/crti.o

.gnu.version_d  0x00000000000050c4        0x0
 *(.gnu.version_d)
 .gnu.version_d
                0x0000000000000000        0x0 /usr/lib/gcc/i686-linux-gnu/4.6/../../../i386-linux-gnu/crti.o

.gnu.version_r  0x00000000000050c4       0x40
 *(.gnu.version_r)
 .gnu.version_r
                0x00000000000050c4       0x40 /usr/lib/gcc/i686-linux-gnu/4.6/../../../i386-linux-gnu/crti.o

.rel.dyn        0x0000000000005104     0x8160
 *(.rel.init)
 *(.rel.text .rel.text.* .rel.gnu.linkonce.t.*)
 .rel.text      0x0000000000000000        0x0 /usr/lib/gcc/i686-linux-gnu/4.6/../../../i386-linux-gnu/crti.o
 .rel.text.receiver
                0x0000000000005104      0x188 /usr/lib/gcc/i686-linux-gnu/4.6/../../../i386-linux-gnu/crti.o
 .rel.text.set_global_address
                0x000000000000528c       0xb0 /usr/lib/gcc/i686-linux-gnu/4.6/../../../i386-linux-gnu/crti.o
 .rel.text.create_rpl_dag
                0x000000000000533c       0x28 /usr/lib/gcc/i686-linux-gnu/4.6/../../../i386-linux-gnu/crti.o
 .rel.text.process_thread_server_process
                0x0000000000005364       0x28 /usr/lib/gcc/i686-linux-gnu/4.6/../../../i386-linux-gnu/crti.o
 .rel.text.process_thread_broadcast_process
                0x000000000000538c       0xd8 /usr/lib/gcc/i686-linux-gnu/4.6/../../../i386-linux-gnu/crti.o
 .rel.text.print_processes
                0x0000000000005464       0x28 /usr/lib/gcc/i686-linux-gnu/4.6/../../../i386-linux-gnu/crti.o
 .rel.text.rtimer_thread_loop
                0x000000000000548c       0x10 /usr/lib/gcc/i686-linux-gnu/4.6/../../../i386-linux-gnu/crti.o
 .rel.text.set_rime_addr
                0x000000000000549c       0x50 /usr/lib/gcc/i686-linux-gnu/4.6/../../../i386-linux-gnu/crti.o
 .rel.text.contiki_init
                0x00000000000054ec      0x1d0 /usr/lib/gcc/i686-linux-gnu/4.6/../../../i386-linux-gnu/crti.o
 .rel.text.process_run_thread_loop
                0x00000000000056bc       0x70 /usr/lib/gcc/i686-linux-gnu/4.6/../../../i386-linux-gnu/crti.o
 .rel.text.Java_se_sics_cooja_corecomm_Lib356_init
                0x000000000000572c       0x30 /usr/lib/gcc/i686-linux-gnu/4.6/../../../i386-linux-gnu/crti.o
 .rel.text.Java_se_sics_cooja_corecomm_Lib356_getMemory
                0x000000000000575c        0x8 /usr/lib/gcc/i686-linux-gnu/4.6/../../../i386-linux-gnu/crti.o
 .rel.text.Java_se_sics_cooja_corecomm_Lib356_setMemory
                0x0000000000005764       0x10 /usr/lib/gcc/i686-linux-gnu/4.6/../../../i386-linux-gnu/crti.o
 .rel.text.Java_se_sics_cooja_corecomm_Lib356_tick
                0x0000000000005774       0xc8 /usr/lib/gcc/i686-linux-gnu/4.6/../../../i386-linux-gnu/crti.o
 .rel.text.Java_se_sics_cooja_corecomm_Lib356_setReferenceAddress
                0x000000000000583c       0x10 /usr/lib/gcc/i686-linux-gnu/4.6/../../../i386-linux-gnu/crti.o
 .rel.text.rimeaddr_cmp
                0x000000000000584c        0x8 /usr/lib/gcc/i686-linux-gnu/4.6/../../../i386-linux-gnu/crti.o
 .rel.text.rimeaddr_set_node_addr
                0x0000000000005854       0x10 /usr/lib/gcc/i686-linux-gnu/4.6/../../../i386-linux-gnu/crti.o
 .rel.text.send_packet
                0x0000000000005864       0x20 /usr/lib/gcc/i686-linux-gnu/4.6/../../../i386-linux-gnu/crti.o
 .rel.text.packet_input
                0x0000000000005884       0xd8 /usr/lib/gcc/i686-linux-gnu/4.6/../../../i386-linux-gnu/crti.o
 .rel.text.on   0x000000000000595c       0x10 /usr/lib/gcc/i686-linux-gnu/4.6/../../../i386-linux-gnu/crti.o
 .rel.text.off  0x000000000000596c       0x18 /usr/lib/gcc/i686-linux-gnu/4.6/../../../i386-linux-gnu/crti.o
 .rel.text.packetbuf_set_attr
                0x0000000000005984       0x18 /usr/lib/gcc/i686-linux-gnu/4.6/../../../i386-linux-gnu/crti.o
 .rel.text.packetbuf_attr
                0x000000000000599c       0x10 /usr/lib/gcc/i686-linux-gnu/4.6/../../../i386-linux-gnu/crti.o
 .rel.text.packetbuf_set_addr
                0x00000000000059ac       0x30 /usr/lib/gcc/i686-linux-gnu/4.6/../../../i386-linux-gnu/crti.o
 .rel.text.packetbuf_addr
                0x00000000000059dc       0x28 /usr/lib/gcc/i686-linux-gnu/4.6/../../../i386-linux-gnu/crti.o
 .rel.text.send_one_packet
                0x0000000000005a04       0xd8 /usr/lib/gcc/i686-linux-gnu/4.6/../../../i386-linux-gnu/crti.o
 .rel.text.send_list
                0x0000000000005adc        0x8 /usr/lib/gcc/i686-linux-gnu/4.6/../../../i386-linux-gnu/crti.o
 .rel.text.create
                0x0000000000005ae4       0xb0 /usr/lib/gcc/i686-linux-gnu/4.6/../../../i386-linux-gnu/crti.o
 .rel.text.parse
                0x0000000000005b94       0x30 /usr/lib/gcc/i686-linux-gnu/4.6/../../../i386-linux-gnu/crti.o
 .rel.text.rpl_dag_init
                0x0000000000005bc4       0x18 /usr/lib/gcc/i686-linux-gnu/4.6/../../../i386-linux-gnu/crti.o
 .rel.text.rpl_get_parent_rank
                0x0000000000005bdc       0x10 /usr/lib/gcc/i686-linux-gnu/4.6/../../../i386-linux-gnu/crti.o
 .rel.text.rpl_get_parent_link_metric
                0x0000000000005bec       0x10 /usr/lib/gcc/i686-linux-gnu/4.6/../../../i386-linux-gnu/crti.o
 .rel.text.rpl_get_parent_ipaddr
                0x0000000000005bfc       0x18 /usr/lib/gcc/i686-linux-gnu/4.6/../../../i386-linux-gnu/crti.o
 .rel.text.rpl_set_preferred_parent
                0x0000000000005c14       0x20 /usr/lib/gcc/i686-linux-gnu/4.6/../../../i386-linux-gnu/crti.o
 .rel.text.remove_parents
                0x0000000000005c34       0x28 /usr/lib/gcc/i686-linux-gnu/4.6/../../../i386-linux-gnu/crti.o
 .rel.text.nullify_parents
                0x0000000000005c5c       0x28 /usr/lib/gcc/i686-linux-gnu/4.6/../../../i386-linux-gnu/crti.o
 .rel.text.get_dag
                0x0000000000005c84       0x10 /usr/lib/gcc/i686-linux-gnu/4.6/../../../i386-linux-gnu/crti.o
 .rel.text.rpl_set_root
                0x0000000000005c94       0x30 /usr/lib/gcc/i686-linux-gnu/4.6/../../../i386-linux-gnu/crti.o
 .rel.text.rpl_repair_root
                0x0000000000005cc4       0x10 /usr/lib/gcc/i686-linux-gnu/4.6/../../../i386-linux-gnu/crti.o
 .rel.text.set_ip_from_prefix
                0x0000000000005cd4       0x18 /usr/lib/gcc/i686-linux-gnu/4.6/../../../i386-linux-gnu/crti.o
 .rel.text.check_prefix
                0x0000000000005cec       0x30 /usr/lib/gcc/i686-linux-gnu/4.6/../../../i386-linux-gnu/crti.o
 .rel.text.rpl_set_prefix
                0x0000000000005d1c       0x10 /usr/lib/gcc/i686-linux-gnu/4.6/../../../i386-linux-gnu/crti.o
 .rel.text.rpl_set_default_route
                0x0000000000005d2c       0x18 /usr/lib/gcc/i686-linux-gnu/4.6/../../../i386-linux-gnu/crti.o
 .rel.text.rpl_alloc_instance
                0x0000000000005d44        0x8 /usr/lib/gcc/i686-linux-gnu/4.6/../../../i386-linux-gnu/crti.o
 .rel.text.rpl_alloc_dag
                0x0000000000005d4c       0x18 /usr/lib/gcc/i686-linux-gnu/4.6/../../../i386-linux-gnu/crti.o
 .rel.text.rpl_set_default_instance
                0x0000000000005d64        0x8 /usr/lib/gcc/i686-linux-gnu/4.6/../../../i386-linux-gnu/crti.o
 .rel.text.rpl_free_instance
                0x0000000000005d6c       0x30 /usr/lib/gcc/i686-linux-gnu/4.6/../../../i386-linux-gnu/crti.o
 .rel.text.rpl_free_dag
                0x0000000000005d9c        0x8 /usr/lib/gcc/i686-linux-gnu/4.6/../../../i386-linux-gnu/crti.o
 .rel.text.rpl_add_parent
                0x0000000000005da4       0x18 /usr/lib/gcc/i686-linux-gnu/4.6/../../../i386-linux-gnu/crti.o
 .rel.text.find_parent_any_dag_any_instance
                0x0000000000005dbc       0x20 /usr/lib/gcc/i686-linux-gnu/4.6/../../../i386-linux-gnu/crti.o
 .rel.text.rpl_select_dag
                0x0000000000005ddc       0x40 /usr/lib/gcc/i686-linux-gnu/4.6/../../../i386-linux-gnu/crti.o
 .rel.text.rpl_select_parent
                0x0000000000005e1c       0x20 /usr/lib/gcc/i686-linux-gnu/4.6/../../../i386-linux-gnu/crti.o
 .rel.text.rpl_remove_parent
                0x0000000000005e3c       0x18 /usr/lib/gcc/i686-linux-gnu/4.6/../../../i386-linux-gnu/crti.o
 .rel.text.rpl_nullify_parent
                0x0000000000005e54       0x10 /usr/lib/gcc/i686-linux-gnu/4.6/../../../i386-linux-gnu/crti.o
 .rel.text.rpl_move_parent
                0x0000000000005e64       0x28 /usr/lib/gcc/i686-linux-gnu/4.6/../../../i386-linux-gnu/crti.o
 .rel.text.rpl_get_any_dag
                0x0000000000005e8c       0x18 /usr/lib/gcc/i686-linux-gnu/4.6/../../../i386-linux-gnu/crti.o
 .rel.text.rpl_get_instance
                0x0000000000005ea4       0x18 /usr/lib/gcc/i686-linux-gnu/4.6/../../../i386-linux-gnu/crti.o
 .rel.text.rpl_find_of
                0x0000000000005ebc       0x10 /usr/lib/gcc/i686-linux-gnu/4.6/../../../i386-linux-gnu/crti.o
 .rel.text.rpl_join_instance
                0x0000000000005ecc       0x48 /usr/lib/gcc/i686-linux-gnu/4.6/../../../i386-linux-gnu/crti.o
 .rel.text.rpl_add_dag
                0x0000000000005f14       0x38 /usr/lib/gcc/i686-linux-gnu/4.6/../../../i386-linux-gnu/crti.o
 .rel.text.global_repair
                0x0000000000005f4c       0x10 /usr/lib/gcc/i686-linux-gnu/4.6/../../../i386-linux-gnu/crti.o
 .rel.text.rpl_local_repair
                0x0000000000005f5c        0x8 /usr/lib/gcc/i686-linux-gnu/4.6/../../../i386-linux-gnu/crti.o
 .rel.text.rpl_recalculate_ranks
                0x0000000000005f64       0x28 /usr/lib/gcc/i686-linux-gnu/4.6/../../../i386-linux-gnu/crti.o
 .rel.text.rpl_process_parent_event
                0x0000000000005f8c       0x18 /usr/lib/gcc/i686-linux-gnu/4.6/../../../i386-linux-gnu/crti.o
 .rel.text.rpl_process_dio
                0x0000000000005fa4       0x78 /usr/lib/gcc/i686-linux-gnu/4.6/../../../i386-linux-gnu/crti.o
 .rel.text.get_global_addr
                0x000000000000601c       0x28 /usr/lib/gcc/i686-linux-gnu/4.6/../../../i386-linux-gnu/crti.o
 .rel.text.dis_input
                0x0000000000006044       0x28 /usr/lib/gcc/i686-linux-gnu/4.6/../../../i386-linux-gnu/crti.o
 .rel.text.dis_output
                0x000000000000606c       0x20 /usr/lib/gcc/i686-linux-gnu/4.6/../../../i386-linux-gnu/crti.o
 .rel.text.dio_input
                0x000000000000608c       0x60 /usr/lib/gcc/i686-linux-gnu/4.6/../../../i386-linux-gnu/crti.o
 .rel.text.dio_output
                0x00000000000060ec       0x28 /usr/lib/gcc/i686-linux-gnu/4.6/../../../i386-linux-gnu/crti.o
 .rel.text.dao_input
                0x0000000000006114       0x98 /usr/lib/gcc/i686-linux-gnu/4.6/../../../i386-linux-gnu/crti.o
 .rel.text.dao_output
                0x00000000000061ac       0x10 /usr/lib/gcc/i686-linux-gnu/4.6/../../../i386-linux-gnu/crti.o
 .rel.text.dao_output_target
                0x00000000000061bc       0x60 /usr/lib/gcc/i686-linux-gnu/4.6/../../../i386-linux-gnu/crti.o
 .rel.text.dao_ack_output
                0x000000000000621c       0x18 /usr/lib/gcc/i686-linux-gnu/4.6/../../../i386-linux-gnu/crti.o
 .rel.text.uip_rpl_input
                0x0000000000006234       0x18 /usr/lib/gcc/i686-linux-gnu/4.6/../../../i386-linux-gnu/crti.o
 .rel.text.handle_periodic_timer
                0x000000000000624c       0x50 /usr/lib/gcc/i686-linux-gnu/4.6/../../../i386-linux-gnu/crti.o
 .rel.text.new_dio_interval
                0x000000000000629c       0x18 /usr/lib/gcc/i686-linux-gnu/4.6/../../../i386-linux-gnu/crti.o
 .rel.text.handle_dio_timer
                0x00000000000062b4       0x40 /usr/lib/gcc/i686-linux-gnu/4.6/../../../i386-linux-gnu/crti.o
 .rel.text.rpl_reset_periodic_timer
                0x00000000000062f4       0x28 /usr/lib/gcc/i686-linux-gnu/4.6/../../../i386-linux-gnu/crti.o
 .rel.text.handle_dao_timer
                0x000000000000631c       0x30 /usr/lib/gcc/i686-linux-gnu/4.6/../../../i386-linux-gnu/crti.o
 .rel.text.rpl_schedule_dao
                0x000000000000634c       0x28 /usr/lib/gcc/i686-linux-gnu/4.6/../../../i386-linux-gnu/crti.o
 .rel.text.process_alloc_event
                0x0000000000006374       0x10 /usr/lib/gcc/i686-linux-gnu/4.6/../../../i386-linux-gnu/crti.o
 .rel.text.process_start
                0x0000000000006384       0x20 /usr/lib/gcc/i686-linux-gnu/4.6/../../../i386-linux-gnu/crti.o
 .rel.text.exit_process
                0x00000000000063a4       0x50 /usr/lib/gcc/i686-linux-gnu/4.6/../../../i386-linux-gnu/crti.o
 .rel.text.call_process
                0x00000000000063f4        0x8 /usr/lib/gcc/i686-linux-gnu/4.6/../../../i386-linux-gnu/crti.o
 .rel.text.process_exit
                0x00000000000063fc        0x8 /usr/lib/gcc/i686-linux-gnu/4.6/../../../i386-linux-gnu/crti.o
 .rel.text.process_init
                0x0000000000006404       0x38 /usr/lib/gcc/i686-linux-gnu/4.6/../../../i386-linux-gnu/crti.o
 .rel.text.do_poll
                0x000000000000643c       0x10 /usr/lib/gcc/i686-linux-gnu/4.6/../../../i386-linux-gnu/crti.o
 .rel.text.do_event
                0x000000000000644c       0xe8 /usr/lib/gcc/i686-linux-gnu/4.6/../../../i386-linux-gnu/crti.o
 .rel.text.process_run
                0x0000000000006534       0x18 /usr/lib/gcc/i686-linux-gnu/4.6/../../../i386-linux-gnu/crti.o
 .rel.text.process_nevents
                0x000000000000654c       0x10 /usr/lib/gcc/i686-linux-gnu/4.6/../../../i386-linux-gnu/crti.o
 .rel.text.process_post
                0x000000000000655c       0x60 /usr/lib/gcc/i686-linux-gnu/4.6/../../../i386-linux-gnu/crti.o
 .rel.text.process_post_synch
                0x00000000000065bc       0x10 /usr/lib/gcc/i686-linux-gnu/4.6/../../../i386-linux-gnu/crti.o
 .rel.text.process_poll
                0x00000000000065cc        0x8 /usr/lib/gcc/i686-linux-gnu/4.6/../../../i386-linux-gnu/crti.o
 .rel.text.autostart_start
                0x00000000000065d4        0x8 /usr/lib/gcc/i686-linux-gnu/4.6/../../../i386-linux-gnu/crti.o
 .rel.text.autostart_exit
                0x00000000000065dc        0x8 /usr/lib/gcc/i686-linux-gnu/4.6/../../../i386-linux-gnu/crti.o
 .rel.text.serial_line_input_byte
                0x00000000000065e4       0x48 /usr/lib/gcc/i686-linux-gnu/4.6/../../../i386-linux-gnu/crti.o
 .rel.text.process_thread_serial_line_process
                0x000000000000662c       0x90 /usr/lib/gcc/i686-linux-gnu/4.6/../../../i386-linux-gnu/crti.o
 .rel.text.serial_line_init
                0x00000000000066bc       0x28 /usr/lib/gcc/i686-linux-gnu/4.6/../../../i386-linux-gnu/crti.o
 .rel.text.list_add
                0x00000000000066e4       0x10 /usr/lib/gcc/i686-linux-gnu/4.6/../../../i386-linux-gnu/crti.o
 .rel.text.list_push
                0x00000000000066f4        0x8 /usr/lib/gcc/i686-linux-gnu/4.6/../../../i386-linux-gnu/crti.o
 .rel.text.list_insert
                0x00000000000066fc        0x8 /usr/lib/gcc/i686-linux-gnu/4.6/../../../i386-linux-gnu/crti.o
 .rel.text.update_time
                0x0000000000006704       0x28 /usr/lib/gcc/i686-linux-gnu/4.6/../../../i386-linux-gnu/crti.o
 .rel.text.process_thread_etimer_process
                0x000000000000672c       0x60 /usr/lib/gcc/i686-linux-gnu/4.6/../../../i386-linux-gnu/crti.o
 .rel.text.etimer_request_poll
                0x000000000000678c       0x10 /usr/lib/gcc/i686-linux-gnu/4.6/../../../i386-linux-gnu/crti.o
 .rel.text.add_timer
                0x000000000000679c       0x30 /usr/lib/gcc/i686-linux-gnu/4.6/../../../i386-linux-gnu/crti.o
 .rel.text.etimer_set
                0x00000000000067cc        0x8 /usr/lib/gcc/i686-linux-gnu/4.6/../../../i386-linux-gnu/crti.o
 .rel.text.etimer_reset
                0x00000000000067d4        0x8 /usr/lib/gcc/i686-linux-gnu/4.6/../../../i386-linux-gnu/crti.o
 .rel.text.etimer_restart
                0x00000000000067dc        0x8 /usr/lib/gcc/i686-linux-gnu/4.6/../../../i386-linux-gnu/crti.o
 .rel.text.etimer_pending
                0x00000000000067e4        0x8 /usr/lib/gcc/i686-linux-gnu/4.6/../../../i386-linux-gnu/crti.o
 .rel.text.etimer_next_expiration_time
                0x00000000000067ec       0x10 /usr/lib/gcc/i686-linux-gnu/4.6/../../../i386-linux-gnu/crti.o
 .rel.text.etimer_stop
                0x00000000000067fc       0x20 /usr/lib/gcc/i686-linux-gnu/4.6/../../../i386-linux-gnu/crti.o
 .rel.text.process_thread_ctimer_process
                0x000000000000681c       0x58 /usr/lib/gcc/i686-linux-gnu/4.6/../../../i386-linux-gnu/crti.o
 .rel.text.ctimer_init
                0x0000000000006874       0x28 /usr/lib/gcc/i686-linux-gnu/4.6/../../../i386-linux-gnu/crti.o
 .rel.text.ctimer_set
                0x000000000000689c       0x58 /usr/lib/gcc/i686-linux-gnu/4.6/../../../i386-linux-gnu/crti.o
 .rel.text.ctimer_reset
                0x00000000000068f4       0x50 /usr/lib/gcc/i686-linux-gnu/4.6/../../../i386-linux-gnu/crti.o
 .rel.text.ctimer_restart
                0x0000000000006944       0x50 /usr/lib/gcc/i686-linux-gnu/4.6/../../../i386-linux-gnu/crti.o
 .rel.text.ctimer_stop
                0x0000000000006994       0x20 /usr/lib/gcc/i686-linux-gnu/4.6/../../../i386-linux-gnu/crti.o
 .rel.text.ctimer_expired
                0x00000000000069b4       0x20 /usr/lib/gcc/i686-linux-gnu/4.6/../../../i386-linux-gnu/crti.o
 .rel.text.stimer_set
                0x00000000000069d4        0x8 /usr/lib/gcc/i686-linux-gnu/4.6/../../../i386-linux-gnu/crti.o
 .rel.text.stimer_restart
                0x00000000000069dc        0x8 /usr/lib/gcc/i686-linux-gnu/4.6/../../../i386-linux-gnu/crti.o
 .rel.text.stimer_expired
                0x00000000000069e4        0x8 /usr/lib/gcc/i686-linux-gnu/4.6/../../../i386-linux-gnu/crti.o
 .rel.text.stimer_remaining
                0x00000000000069ec        0x8 /usr/lib/gcc/i686-linux-gnu/4.6/../../../i386-linux-gnu/crti.o
 .rel.text.stimer_elapsed
                0x00000000000069f4        0x8 /usr/lib/gcc/i686-linux-gnu/4.6/../../../i386-linux-gnu/crti.o
 .rel.text.random_init
                0x00000000000069fc        0x8 /usr/lib/gcc/i686-linux-gnu/4.6/../../../i386-linux-gnu/crti.o
 .rel.text.random_rand
                0x0000000000006a04        0x8 /usr/lib/gcc/i686-linux-gnu/4.6/../../../i386-linux-gnu/crti.o
 .rel.text.key_from_index
                0x0000000000006a0c        0x8 /usr/lib/gcc/i686-linux-gnu/4.6/../../../i386-linux-gnu/crti.o
 .rel.text.index_from_key
                0x0000000000006a14        0x8 /usr/lib/gcc/i686-linux-gnu/4.6/../../../i386-linux-gnu/crti.o
 .rel.text.index_from_lladdr
                0x0000000000006a1c       0x28 /usr/lib/gcc/i686-linux-gnu/4.6/../../../i386-linux-gnu/crti.o
 .rel.text.nbr_table_allocate
                0x0000000000006a44       0x80 /usr/lib/gcc/i686-linux-gnu/4.6/../../../i386-linux-gnu/crti.o
 .rel.text.nbr_table_register
                0x0000000000006ac4       0x20 /usr/lib/gcc/i686-linux-gnu/4.6/../../../i386-linux-gnu/crti.o
 .rel.text.nbr_table_head
                0x0000000000006ae4       0x20 /usr/lib/gcc/i686-linux-gnu/4.6/../../../i386-linux-gnu/crti.o
 .rel.text.nbr_table_next
                0x0000000000006b04       0x10 /usr/lib/gcc/i686-linux-gnu/4.6/../../../i386-linux-gnu/crti.o
 .rel.text.nbr_table_add_lladdr
                0x0000000000006b14       0x30 /usr/lib/gcc/i686-linux-gnu/4.6/../../../i386-linux-gnu/crti.o
 .rel.text.nbr_table_get_from_lladdr
                0x0000000000006b44        0x8 /usr/lib/gcc/i686-linux-gnu/4.6/../../../i386-linux-gnu/crti.o
 .rel.text.nbr_table_remove
                0x0000000000006b4c       0x10 /usr/lib/gcc/i686-linux-gnu/4.6/../../../i386-linux-gnu/crti.o
 .rel.text.nbr_table_lock
                0x0000000000006b5c        0x8 /usr/lib/gcc/i686-linux-gnu/4.6/../../../i386-linux-gnu/crti.o
 .rel.text.nbr_table_unlock
                0x0000000000006b64        0x8 /usr/lib/gcc/i686-linux-gnu/4.6/../../../i386-linux-gnu/crti.o
 .rel.text.netstack_init
                0x0000000000006b6c       0x20 /usr/lib/gcc/i686-linux-gnu/4.6/../../../i386-linux-gnu/crti.o
 .rel.text.packetbuf_clear
                0x0000000000006b8c       0x38 /usr/lib/gcc/i686-linux-gnu/4.6/../../../i386-linux-gnu/crti.o
 .rel.text.packetbuf_clear_hdr
                0x0000000000006bc4        0x8 /usr/lib/gcc/i686-linux-gnu/4.6/../../../i386-linux-gnu/crti.o
 .rel.text.packetbuf_copyfrom
                0x0000000000006bcc       0x20 /usr/lib/gcc/i686-linux-gnu/4.6/../../../i386-linux-gnu/crti.o
 .rel.text.packetbuf_compact
                0x0000000000006bec       0x58 /usr/lib/gcc/i686-linux-gnu/4.6/../../../i386-linux-gnu/crti.o
 .rel.text.packetbuf_copyto_hdr
                0x0000000000006c44       0x28 /usr/lib/gcc/i686-linux-gnu/4.6/../../../i386-linux-gnu/crti.o
 .rel.text.packetbuf_copyto
                0x0000000000006c6c       0x68 /usr/lib/gcc/i686-linux-gnu/4.6/../../../i386-linux-gnu/crti.o
 .rel.text.packetbuf_hdralloc
                0x0000000000006cd4       0x20 /usr/lib/gcc/i686-linux-gnu/4.6/../../../i386-linux-gnu/crti.o
 .rel.text.packetbuf_hdr_remove
                0x0000000000006cf4       0x10 /usr/lib/gcc/i686-linux-gnu/4.6/../../../i386-linux-gnu/crti.o
 .rel.text.packetbuf_hdrreduce
                0x0000000000006d04       0x28 /usr/lib/gcc/i686-linux-gnu/4.6/../../../i386-linux-gnu/crti.o
 .rel.text.packetbuf_set_datalen
                0x0000000000006d2c        0x8 /usr/lib/gcc/i686-linux-gnu/4.6/../../../i386-linux-gnu/crti.o
 .rel.text.packetbuf_dataptr
                0x0000000000006d34       0x10 /usr/lib/gcc/i686-linux-gnu/4.6/../../../i386-linux-gnu/crti.o
 .rel.text.packetbuf_hdrptr
                0x0000000000006d44       0x10 /usr/lib/gcc/i686-linux-gnu/4.6/../../../i386-linux-gnu/crti.o
 .rel.text.packetbuf_reference
                0x0000000000006d54       0x18 /usr/lib/gcc/i686-linux-gnu/4.6/../../../i386-linux-gnu/crti.o
 .rel.text.packetbuf_is_reference
                0x0000000000006d6c       0x10 /usr/lib/gcc/i686-linux-gnu/4.6/../../../i386-linux-gnu/crti.o
 .rel.text.packetbuf_reference_ptr
                0x0000000000006d7c        0x8 /usr/lib/gcc/i686-linux-gnu/4.6/../../../i386-linux-gnu/crti.o
 .rel.text.packetbuf_datalen
                0x0000000000006d84        0x8 /usr/lib/gcc/i686-linux-gnu/4.6/../../../i386-linux-gnu/crti.o
 .rel.text.packetbuf_hdrlen
                0x0000000000006d8c        0x8 /usr/lib/gcc/i686-linux-gnu/4.6/../../../i386-linux-gnu/crti.o
 .rel.text.packetbuf_totlen
                0x0000000000006d94       0x10 /usr/lib/gcc/i686-linux-gnu/4.6/../../../i386-linux-gnu/crti.o
 .rel.text.packetbuf_attr_clear
                0x0000000000006da4       0x20 /usr/lib/gcc/i686-linux-gnu/4.6/../../../i386-linux-gnu/crti.o
 .rel.text.packetbuf_attr_copyto
                0x0000000000006dc4       0x48 /usr/lib/gcc/i686-linux-gnu/4.6/../../../i386-linux-gnu/crti.o
 .rel.text.packetbuf_attr_copyfrom
                0x0000000000006e0c       0x48 /usr/lib/gcc/i686-linux-gnu/4.6/../../../i386-linux-gnu/crti.o
 .rel.text.queuebuf_init
                0x0000000000006e54       0x30 /usr/lib/gcc/i686-linux-gnu/4.6/../../../i386-linux-gnu/crti.o
 .rel.text.queuebuf_new_from_packetbuf
                0x0000000000006e84       0x60 /usr/lib/gcc/i686-linux-gnu/4.6/../../../i386-linux-gnu/crti.o
 .rel.text.queuebuf_update_attr_from_packetbuf
                0x0000000000006ee4        0x8 /usr/lib/gcc/i686-linux-gnu/4.6/../../../i386-linux-gnu/crti.o
 .rel.text.queuebuf_free
                0x0000000000006eec       0x50 /usr/lib/gcc/i686-linux-gnu/4.6/../../../i386-linux-gnu/crti.o
 .rel.text.queuebuf_to_packetbuf
                0x0000000000006f3c       0x58 /usr/lib/gcc/i686-linux-gnu/4.6/../../../i386-linux-gnu/crti.o
 .rel.text.queuebuf_dataptr
                0x0000000000006f94       0x20 /usr/lib/gcc/i686-linux-gnu/4.6/../../../i386-linux-gnu/crti.o
 .rel.text.rime_sniffer_add
                0x0000000000006fb4        0x8 /usr/lib/gcc/i686-linux-gnu/4.6/../../../i386-linux-gnu/crti.o
 .rel.text.rime_sniffer_remove
                0x0000000000006fbc        0x8 /usr/lib/gcc/i686-linux-gnu/4.6/../../../i386-linux-gnu/crti.o
 .rel.text.set_packet_attrs
                0x0000000000006fc4       0x60 /usr/lib/gcc/i686-linux-gnu/4.6/../../../i386-linux-gnu/crti.o
 .rel.text.addr_context_lookup_by_prefix
                0x0000000000007024       0x20 /usr/lib/gcc/i686-linux-gnu/4.6/../../../i386-linux-gnu/crti.o
 .rel.text.addr_context_lookup_by_number
                0x0000000000007044       0x18 /usr/lib/gcc/i686-linux-gnu/4.6/../../../i386-linux-gnu/crti.o
 .rel.text.compress_addr_64
                0x000000000000705c       0x30 /usr/lib/gcc/i686-linux-gnu/4.6/../../../i386-linux-gnu/crti.o
 .rel.text.uncompress_addr
                0x000000000000708c       0x38 /usr/lib/gcc/i686-linux-gnu/4.6/../../../i386-linux-gnu/crti.o
 .rel.text.compress_hdr_hc06
                0x00000000000070c4      0x5a0 /usr/lib/gcc/i686-linux-gnu/4.6/../../../i386-linux-gnu/crti.o
 .rel.text.uncompress_hdr_hc06
                0x0000000000007664      0x3e0 /usr/lib/gcc/i686-linux-gnu/4.6/../../../i386-linux-gnu/crti.o
 .rel.text.compress_hdr_ipv6
                0x0000000000007a44       0x50 /usr/lib/gcc/i686-linux-gnu/4.6/../../../i386-linux-gnu/crti.o
 .rel.text.packet_sent
                0x0000000000007a94       0x20 /usr/lib/gcc/i686-linux-gnu/4.6/../../../i386-linux-gnu/crti.o
 .rel.text.output
                0x0000000000007ab4      0x2f8 /usr/lib/gcc/i686-linux-gnu/4.6/../../../i386-linux-gnu/crti.o
 .rel.text.input
                0x0000000000007dac      0x2e8 /usr/lib/gcc/i686-linux-gnu/4.6/../../../i386-linux-gnu/crti.o
 .rel.text.sicslowpan_init
                0x0000000000008094       0x38 /usr/lib/gcc/i686-linux-gnu/4.6/../../../i386-linux-gnu/crti.o
 .rel.text.init_simple_udp
                0x00000000000080cc       0x20 /usr/lib/gcc/i686-linux-gnu/4.6/../../../i386-linux-gnu/crti.o
 .rel.text.simple_udp_send
                0x00000000000080ec        0x8 /usr/lib/gcc/i686-linux-gnu/4.6/../../../i386-linux-gnu/crti.o
 .rel.text.simple_udp_sendto
                0x00000000000080f4        0x8 /usr/lib/gcc/i686-linux-gnu/4.6/../../../i386-linux-gnu/crti.o
 .rel.text.simple_udp_sendto_port
                0x00000000000080fc        0x8 /usr/lib/gcc/i686-linux-gnu/4.6/../../../i386-linux-gnu/crti.o
 .rel.text.simple_udp_register
                0x0000000000008104       0x28 /usr/lib/gcc/i686-linux-gnu/4.6/../../../i386-linux-gnu/crti.o
 .rel.text.process_thread_simple_udp_process
                0x000000000000812c       0x88 /usr/lib/gcc/i686-linux-gnu/4.6/../../../i386-linux-gnu/crti.o
 .rel.text.tcpip_output
                0x00000000000081b4       0x10 /usr/lib/gcc/i686-linux-gnu/4.6/../../../i386-linux-gnu/crti.o
 .rel.text.tcpip_set_outputfunc
                0x00000000000081c4        0x8 /usr/lib/gcc/i686-linux-gnu/4.6/../../../i386-linux-gnu/crti.o
 .rel.text.start_periodic_tcp_timer
                0x00000000000081cc       0x20 /usr/lib/gcc/i686-linux-gnu/4.6/../../../i386-linux-gnu/crti.o
 .rel.text.check_for_tcp_syn
                0x00000000000081ec       0x10 /usr/lib/gcc/i686-linux-gnu/4.6/../../../i386-linux-gnu/crti.o
 .rel.text.tcp_connect
                0x00000000000081fc       0x18 /usr/lib/gcc/i686-linux-gnu/4.6/../../../i386-linux-gnu/crti.o
 .rel.text.tcp_unlisten
                0x0000000000008214       0x38 /usr/lib/gcc/i686-linux-gnu/4.6/../../../i386-linux-gnu/crti.o
 .rel.text.tcp_listen
                0x000000000000824c       0x38 /usr/lib/gcc/i686-linux-gnu/4.6/../../../i386-linux-gnu/crti.o
 .rel.text.tcp_attach
                0x0000000000008284        0x8 /usr/lib/gcc/i686-linux-gnu/4.6/../../../i386-linux-gnu/crti.o
 .rel.text.udp_attach
                0x000000000000828c        0x8 /usr/lib/gcc/i686-linux-gnu/4.6/../../../i386-linux-gnu/crti.o
 .rel.text.udp_new
                0x0000000000008294       0x10 /usr/lib/gcc/i686-linux-gnu/4.6/../../../i386-linux-gnu/crti.o
 .rel.text.udp_broadcast_new
                0x00000000000082a4       0x10 /usr/lib/gcc/i686-linux-gnu/4.6/../../../i386-linux-gnu/crti.o
 .rel.text.eventhandler
                0x00000000000082b4      0x128 /usr/lib/gcc/i686-linux-gnu/4.6/../../../i386-linux-gnu/crti.o
 .rel.text.tcpip_input
                0x00000000000083dc       0x20 /usr/lib/gcc/i686-linux-gnu/4.6/../../../i386-linux-gnu/crti.o
 .rel.text.tcpip_ipv6_output
                0x00000000000083fc      0x258 /usr/lib/gcc/i686-linux-gnu/4.6/../../../i386-linux-gnu/crti.o
 .rel.text.tcpip_poll_udp
                0x0000000000008654       0x10 /usr/lib/gcc/i686-linux-gnu/4.6/../../../i386-linux-gnu/crti.o
 .rel.text.tcpip_poll_tcp
                0x0000000000008664       0x10 /usr/lib/gcc/i686-linux-gnu/4.6/../../../i386-linux-gnu/crti.o
 .rel.text.tcpip_uipcall
                0x0000000000008674       0x60 /usr/lib/gcc/i686-linux-gnu/4.6/../../../i386-linux-gnu/crti.o
 .rel.text.process_thread_tcpip_process
                0x00000000000086d4       0x70 /usr/lib/gcc/i686-linux-gnu/4.6/../../../i386-linux-gnu/crti.o
 .rel.text.uip_debug_ipaddr_print
                0x0000000000008744       0x40 /usr/lib/gcc/i686-linux-gnu/4.6/../../../i386-linux-gnu/crti.o
 .rel.text.uip_debug_lladdr_print
                0x0000000000008784       0x20 /usr/lib/gcc/i686-linux-gnu/4.6/../../../i386-linux-gnu/crti.o
 .rel.text.call_route_callback
                0x00000000000087a4       0x30 /usr/lib/gcc/i686-linux-gnu/4.6/../../../i386-linux-gnu/crti.o
 .rel.text.uip_ds6_notification_add
                0x00000000000087d4       0x10 /usr/lib/gcc/i686-linux-gnu/4.6/../../../i386-linux-gnu/crti.o
 .rel.text.uip_ds6_notification_rm
                0x00000000000087e4       0x10 /usr/lib/gcc/i686-linux-gnu/4.6/../../../i386-linux-gnu/crti.o
 .rel.text.uip_ds6_route_init
                0x00000000000087f4       0x58 /usr/lib/gcc/i686-linux-gnu/4.6/../../../i386-linux-gnu/crti.o
 .rel.text.uip_ds6_route_nexthop_lladdr
                0x000000000000884c       0x10 /usr/lib/gcc/i686-linux-gnu/4.6/../../../i386-linux-gnu/crti.o
 .rel.text.uip_ds6_route_nexthop
                0x000000000000885c        0x8 /usr/lib/gcc/i686-linux-gnu/4.6/../../../i386-linux-gnu/crti.o
 .rel.text.uip_ds6_route_head
                0x0000000000008864       0x20 /usr/lib/gcc/i686-linux-gnu/4.6/../../../i386-linux-gnu/crti.o
 .rel.text.uip_ds6_route_next
                0x0000000000008884       0x20 /usr/lib/gcc/i686-linux-gnu/4.6/../../../i386-linux-gnu/crti.o
 .rel.text.uip_ds6_route_num_routes
                0x00000000000088a4        0x8 /usr/lib/gcc/i686-linux-gnu/4.6/../../../i386-linux-gnu/crti.o
 .rel.text.uip_ds6_route_lookup
                0x00000000000088ac       0x18 /usr/lib/gcc/i686-linux-gnu/4.6/../../../i386-linux-gnu/crti.o
 .rel.text.uip_ds6_route_add
                0x00000000000088c4       0x60 /usr/lib/gcc/i686-linux-gnu/4.6/../../../i386-linux-gnu/crti.o
 .rel.text.uip_ds6_route_rm
                0x0000000000008924       0x48 /usr/lib/gcc/i686-linux-gnu/4.6/../../../i386-linux-gnu/crti.o
 .rel.text.rm_routelist
                0x000000000000896c       0x28 /usr/lib/gcc/i686-linux-gnu/4.6/../../../i386-linux-gnu/crti.o
 .rel.text.uip_ds6_route_rm_by_nexthop
                0x0000000000008994       0x18 /usr/lib/gcc/i686-linux-gnu/4.6/../../../i386-linux-gnu/crti.o
 .rel.text.uip_ds6_defrt_add
                0x00000000000089ac       0x30 /usr/lib/gcc/i686-linux-gnu/4.6/../../../i386-linux-gnu/crti.o
 .rel.text.uip_ds6_defrt_rm
                0x00000000000089dc       0x38 /usr/lib/gcc/i686-linux-gnu/4.6/../../../i386-linux-gnu/crti.o
 .rel.text.uip_ds6_defrt_lookup
                0x0000000000008a14       0x20 /usr/lib/gcc/i686-linux-gnu/4.6/../../../i386-linux-gnu/crti.o
 .rel.text.uip_ds6_defrt_choose
                0x0000000000008a34       0x20 /usr/lib/gcc/i686-linux-gnu/4.6/../../../i386-linux-gnu/crti.o
 .rel.text.uip_ds6_defrt_periodic
                0x0000000000008a54       0x38 /usr/lib/gcc/i686-linux-gnu/4.6/../../../i386-linux-gnu/crti.o
 .rel.text.uip_ds6_neighbors_init
                0x0000000000008a8c       0x18 /usr/lib/gcc/i686-linux-gnu/4.6/../../../i386-linux-gnu/crti.o
 .rel.text.uip_ds6_nbr_add
                0x0000000000008aa4       0x30 /usr/lib/gcc/i686-linux-gnu/4.6/../../../i386-linux-gnu/crti.o
 .rel.text.uip_ds6_nbr_rm
                0x0000000000008ad4       0x20 /usr/lib/gcc/i686-linux-gnu/4.6/../../../i386-linux-gnu/crti.o
 .rel.text.uip_ds6_nbr_get_ll
                0x0000000000008af4       0x10 /usr/lib/gcc/i686-linux-gnu/4.6/../../../i386-linux-gnu/crti.o
 .rel.text.uip_ds6_nbr_num
                0x0000000000008b04       0x20 /usr/lib/gcc/i686-linux-gnu/4.6/../../../i386-linux-gnu/crti.o
 .rel.text.uip_ds6_nbr_lookup
                0x0000000000008b24       0x28 /usr/lib/gcc/i686-linux-gnu/4.6/../../../i386-linux-gnu/crti.o
 .rel.text.uip_ds6_nbr_ll_lookup
                0x0000000000008b4c       0x10 /usr/lib/gcc/i686-linux-gnu/4.6/../../../i386-linux-gnu/crti.o
 .rel.text.uip_ds6_nbr_ipaddr_from_lladdr
                0x0000000000008b5c        0x8 /usr/lib/gcc/i686-linux-gnu/4.6/../../../i386-linux-gnu/crti.o
 .rel.text.uip_ds6_nbr_lladdr_from_ipaddr
                0x0000000000008b64       0x10 /usr/lib/gcc/i686-linux-gnu/4.6/../../../i386-linux-gnu/crti.o
 .rel.text.uip_ds6_link_neighbor_callback
                0x0000000000008b74       0x18 /usr/lib/gcc/i686-linux-gnu/4.6/../../../i386-linux-gnu/crti.o
 .rel.text.uip_ds6_neighbor_periodic
                0x0000000000008b8c       0xa8 /usr/lib/gcc/i686-linux-gnu/4.6/../../../i386-linux-gnu/crti.o
 .rel.text.uip_ds6_get_least_lifetime_neighbor
                0x0000000000008c34       0x30 /usr/lib/gcc/i686-linux-gnu/4.6/../../../i386-linux-gnu/crti.o
 .rel.text.uip_ds6_init
                0x0000000000008c64      0x170 /usr/lib/gcc/i686-linux-gnu/4.6/../../../i386-linux-gnu/crti.o
 .rel.text.uip_ds6_periodic
                0x0000000000008dd4       0x80 /usr/lib/gcc/i686-linux-gnu/4.6/../../../i386-linux-gnu/crti.o
 .rel.text.uip_ds6_list_loop
                0x0000000000008e54        0x8 /usr/lib/gcc/i686-linux-gnu/4.6/../../../i386-linux-gnu/crti.o
 .rel.text.uip_ds6_prefix_add
                0x0000000000008e5c       0x58 /usr/lib/gcc/i686-linux-gnu/4.6/../../../i386-linux-gnu/crti.o
 .rel.text.uip_ds6_prefix_lookup
                0x0000000000008eb4       0x20 /usr/lib/gcc/i686-linux-gnu/4.6/../../../i386-linux-gnu/crti.o
 .rel.text.uip_ds6_is_addr_onlink
                0x0000000000008ed4       0x50 /usr/lib/gcc/i686-linux-gnu/4.6/../../../i386-linux-gnu/crti.o
 .rel.text.uip_ds6_addr_add
                0x0000000000008f24       0xc8 /usr/lib/gcc/i686-linux-gnu/4.6/../../../i386-linux-gnu/crti.o
 .rel.text.uip_ds6_addr_rm
                0x0000000000008fec       0x88 /usr/lib/gcc/i686-linux-gnu/4.6/../../../i386-linux-gnu/crti.o
 .rel.text.uip_ds6_addr_lookup
                0x0000000000009074       0x20 /usr/lib/gcc/i686-linux-gnu/4.6/../../../i386-linux-gnu/crti.o
 .rel.text.uip_ds6_get_link_local
                0x0000000000009094       0x58 /usr/lib/gcc/i686-linux-gnu/4.6/../../../i386-linux-gnu/crti.o
 .rel.text.uip_ds6_get_global
                0x00000000000090ec       0x58 /usr/lib/gcc/i686-linux-gnu/4.6/../../../i386-linux-gnu/crti.o
 .rel.text.uip_ds6_maddr_add
                0x0000000000009144       0x30 /usr/lib/gcc/i686-linux-gnu/4.6/../../../i386-linux-gnu/crti.o
 .rel.text.uip_ds6_maddr_lookup
                0x0000000000009174       0x20 /usr/lib/gcc/i686-linux-gnu/4.6/../../../i386-linux-gnu/crti.o
 .rel.text.uip_ds6_aaddr_add
                0x0000000000009194       0x30 /usr/lib/gcc/i686-linux-gnu/4.6/../../../i386-linux-gnu/crti.o
 .rel.text.uip_ds6_aaddr_lookup
                0x00000000000091c4       0x20 /usr/lib/gcc/i686-linux-gnu/4.6/../../../i386-linux-gnu/crti.o
 .rel.text.uip_ds6_select_src
                0x00000000000091e4       0x70 /usr/lib/gcc/i686-linux-gnu/4.6/../../../i386-linux-gnu/crti.o
 .rel.text.uip_ds6_compute_reachable_time
                0x0000000000009254       0x30 /usr/lib/gcc/i686-linux-gnu/4.6/../../../i386-linux-gnu/crti.o
 .rel.text.uip_icmp6_echo_request_input
                0x0000000000009284      0x1f0 /usr/lib/gcc/i686-linux-gnu/4.6/../../../i386-linux-gnu/crti.o
 .rel.text.uip_icmp6_error_output
                0x0000000000009474      0x238 /usr/lib/gcc/i686-linux-gnu/4.6/../../../i386-linux-gnu/crti.o
 .rel.text.uip_icmp6_send
                0x00000000000096ac       0xb8 /usr/lib/gcc/i686-linux-gnu/4.6/../../../i386-linux-gnu/crti.o
 .rel.text.create_llao
                0x0000000000009764       0x10 /usr/lib/gcc/i686-linux-gnu/4.6/../../../i386-linux-gnu/crti.o
 .rel.text.uip_nd6_ns_input
                0x0000000000009774      0x378 /usr/lib/gcc/i686-linux-gnu/4.6/../../../i386-linux-gnu/crti.o
 .rel.text.uip_nd6_ns_output
                0x0000000000009aec      0x1e0 /usr/lib/gcc/i686-linux-gnu/4.6/../../../i386-linux-gnu/crti.o
 .rel.text.uip_nd6_na_input
                0x0000000000009ccc      0x2d0 /usr/lib/gcc/i686-linux-gnu/4.6/../../../i386-linux-gnu/crti.o
 .rel.text.packet_timedout
                0x0000000000009f9c       0x10 /usr/lib/gcc/i686-linux-gnu/4.6/../../../i386-linux-gnu/crti.o
 .rel.text.uip_packetqueue_alloc
                0x0000000000009fac       0x20 /usr/lib/gcc/i686-linux-gnu/4.6/../../../i386-linux-gnu/crti.o
 .rel.text.uip_packetqueue_free
                0x0000000000009fcc       0x18 /usr/lib/gcc/i686-linux-gnu/4.6/../../../i386-linux-gnu/crti.o
 .rel.text.uip_udp_packet_send
                0x0000000000009fe4       0x38 /usr/lib/gcc/i686-linux-gnu/4.6/../../../i386-linux-gnu/crti.o
 .rel.text.uip_udp_packet_sendto
                0x000000000000a01c       0x10 /usr/lib/gcc/i686-linux-gnu/4.6/../../../i386-linux-gnu/crti.o
 .rel.text.uip_add32
                0x000000000000a02c       0x98 /usr/lib/gcc/i686-linux-gnu/4.6/../../../i386-linux-gnu/crti.o
 .rel.text.uip_chksum
                0x000000000000a0c4        0x8 /usr/lib/gcc/i686-linux-gnu/4.6/../../../i386-linux-gnu/crti.o
 .rel.text.upper_layer_chksum
                0x000000000000a0cc       0x38 /usr/lib/gcc/i686-linux-gnu/4.6/../../../i386-linux-gnu/crti.o
 .rel.text.uip_init
                0x000000000000a104       0xa0 /usr/lib/gcc/i686-linux-gnu/4.6/../../../i386-linux-gnu/crti.o
 .rel.text.uip_connect
                0x000000000000a1a4       0xc0 /usr/lib/gcc/i686-linux-gnu/4.6/../../../i386-linux-gnu/crti.o
 .rel.text.remove_ext_hdr
                0x000000000000a264       0x98 /usr/lib/gcc/i686-linux-gnu/4.6/../../../i386-linux-gnu/crti.o
 .rel.text.uip_udp_new
                0x000000000000a2fc       0xb8 /usr/lib/gcc/i686-linux-gnu/4.6/../../../i386-linux-gnu/crti.o
 .rel.text.uip_unlisten
                0x000000000000a3b4       0x40 /usr/lib/gcc/i686-linux-gnu/4.6/../../../i386-linux-gnu/crti.o
 .rel.text.uip_listen
                0x000000000000a3f4       0x40 /usr/lib/gcc/i686-linux-gnu/4.6/../../../i386-linux-gnu/crti.o
 .rel.text.uip_add_rcv_nxt
                0x000000000000a434       0x50 /usr/lib/gcc/i686-linux-gnu/4.6/../../../i386-linux-gnu/crti.o
 .rel.text.ext_hdr_options_process
                0x000000000000a484      0x108 /usr/lib/gcc/i686-linux-gnu/4.6/../../../i386-linux-gnu/crti.o
 .rel.text.uip_process
                0x000000000000a58c     0x1188 /usr/lib/gcc/i686-linux-gnu/4.6/../../../i386-linux-gnu/crti.o
 .rel.text.uip_send
                0x000000000000b714       0x38 /usr/lib/gcc/i686-linux-gnu/4.6/../../../i386-linux-gnu/crti.o
 .rel.text.purge_registrations
                0x000000000000b74c       0x78 /usr/lib/gcc/i686-linux-gnu/4.6/../../../i386-linux-gnu/crti.o
 .rel.text.servreg_hack_init
                0x000000000000b7c4       0x50 /usr/lib/gcc/i686-linux-gnu/4.6/../../../i386-linux-gnu/crti.o
 .rel.text.servreg_hack_register
                0x000000000000b814       0x98 /usr/lib/gcc/i686-linux-gnu/4.6/../../../i386-linux-gnu/crti.o
 .rel.text.servreg_hack_list_head
                0x000000000000b8ac       0x10 /usr/lib/gcc/i686-linux-gnu/4.6/../../../i386-linux-gnu/crti.o
 .rel.text.servreg_hack_lookup
                0x000000000000b8bc       0x28 /usr/lib/gcc/i686-linux-gnu/4.6/../../../i386-linux-gnu/crti.o
 .rel.text.handle_incoming_reg
                0x000000000000b8e4       0x78 /usr/lib/gcc/i686-linux-gnu/4.6/../../../i386-linux-gnu/crti.o
 .rel.text.send_udp_packet
                0x000000000000b95c       0x58 /usr/lib/gcc/i686-linux-gnu/4.6/../../../i386-linux-gnu/crti.o
 .rel.text.process_thread_servreg_hack_process
                0x000000000000b9b4       0xb0 /usr/lib/gcc/i686-linux-gnu/4.6/../../../i386-linux-gnu/crti.o
 .rel.text.doActionsBeforeTick
                0x000000000000ba64       0x10 /usr/lib/gcc/i686-linux-gnu/4.6/../../../i386-linux-gnu/crti.o
 .rel.text.doActionsAfterTick
                0x000000000000ba74       0x10 /usr/lib/gcc/i686-linux-gnu/4.6/../../../i386-linux-gnu/crti.o
 .rel.text.cooja_mt_init
                0x000000000000ba84        0x8 /usr/lib/gcc/i686-linux-gnu/4.6/../../../i386-linux-gnu/crti.o
 .rel.text.cooja_mt_remove
                0x000000000000ba8c        0x8 /usr/lib/gcc/i686-linux-gnu/4.6/../../../i386-linux-gnu/crti.o
 .rel.text.cooja_mt_start
                0x000000000000ba94        0x8 /usr/lib/gcc/i686-linux-gnu/4.6/../../../i386-linux-gnu/crti.o
 .rel.text.cooja_mt_exec
                0x000000000000ba9c       0x10 /usr/lib/gcc/i686-linux-gnu/4.6/../../../i386-linux-gnu/crti.o
 .rel.text.cooja_mt_exit
                0x000000000000baac       0x18 /usr/lib/gcc/i686-linux-gnu/4.6/../../../i386-linux-gnu/crti.o
 .rel.text.cooja_mt_yield
                0x000000000000bac4       0x18 /usr/lib/gcc/i686-linux-gnu/4.6/../../../i386-linux-gnu/crti.o
 .rel.text.cooja_sw
                0x000000000000badc        0x8 /usr/lib/gcc/i686-linux-gnu/4.6/../../../i386-linux-gnu/crti.o
 .rel.text.cooja_mtarch_exec
                0x000000000000bae4       0x18 /usr/lib/gcc/i686-linux-gnu/4.6/../../../i386-linux-gnu/crti.o
 .rel.text.cooja_mtarch_yield
                0x000000000000bafc        0x8 /usr/lib/gcc/i686-linux-gnu/4.6/../../../i386-linux-gnu/crti.o
 .rel.text.rtimer_arch_init
                0x000000000000bb04       0x18 /usr/lib/gcc/i686-linux-gnu/4.6/../../../i386-linux-gnu/crti.o
 .rel.text.rtimer_arch_schedule
                0x000000000000bb1c       0x10 /usr/lib/gcc/i686-linux-gnu/4.6/../../../i386-linux-gnu/crti.o
 .rel.text.rtimer_arch_next
                0x000000000000bb2c        0x8 /usr/lib/gcc/i686-linux-gnu/4.6/../../../i386-linux-gnu/crti.o
 .rel.text.rtimer_arch_pending
                0x000000000000bb34        0x8 /usr/lib/gcc/i686-linux-gnu/4.6/../../../i386-linux-gnu/crti.o
 .rel.text.rtimer_arch_check
                0x000000000000bb3c       0x20 /usr/lib/gcc/i686-linux-gnu/4.6/../../../i386-linux-gnu/crti.o
 .rel.text.rtimer_arch_now
                0x000000000000bb5c       0x48 /usr/lib/gcc/i686-linux-gnu/4.6/../../../i386-linux-gnu/crti.o
 .rel.text.beep_alarm
                0x000000000000bba4        0x8 /usr/lib/gcc/i686-linux-gnu/4.6/../../../i386-linux-gnu/crti.o
 .rel.text.beep_beep
                0x000000000000bbac        0x8 /usr/lib/gcc/i686-linux-gnu/4.6/../../../i386-linux-gnu/crti.o
 .rel.text.beep
                0x000000000000bbb4        0x8 /usr/lib/gcc/i686-linux-gnu/4.6/../../../i386-linux-gnu/crti.o
 .rel.text.beep_down
                0x000000000000bbbc        0x8 /usr/lib/gcc/i686-linux-gnu/4.6/../../../i386-linux-gnu/crti.o
 .rel.text.beep_on
                0x000000000000bbc4        0x8 /usr/lib/gcc/i686-linux-gnu/4.6/../../../i386-linux-gnu/crti.o
 .rel.text.beep_off
                0x000000000000bbcc        0x8 /usr/lib/gcc/i686-linux-gnu/4.6/../../../i386-linux-gnu/crti.o
 .rel.text.beep_spinup
                0x000000000000bbd4        0x8 /usr/lib/gcc/i686-linux-gnu/4.6/../../../i386-linux-gnu/crti.o
 .rel.text.beep_quick
                0x000000000000bbdc        0x8 /usr/lib/gcc/i686-linux-gnu/4.6/../../../i386-linux-gnu/crti.o
 .rel.text.beep_long
                0x000000000000bbe4        0x8 /usr/lib/gcc/i686-linux-gnu/4.6/../../../i386-linux-gnu/crti.o
 .rel.text.value
                0x000000000000bbec       0x28 /usr/lib/gcc/i686-linux-gnu/4.6/../../../i386-linux-gnu/crti.o
 .rel.text.configure
                0x000000000000bc14       0x40 /usr/lib/gcc/i686-linux-gnu/4.6/../../../i386-linux-gnu/crti.o
 .rel.text.status
                0x000000000000bc54       0x18 /usr/lib/gcc/i686-linux-gnu/4.6/../../../i386-linux-gnu/crti.o
 .rel.text.doInterfaceActionsBeforeTick
                0x000000000000bc6c      0x188 /usr/lib/gcc/i686-linux-gnu/4.6/../../../i386-linux-gnu/crti.o
 .rel.text.leds_arch_init
                0x000000000000bdf4        0x8 /usr/lib/gcc/i686-linux-gnu/4.6/../../../i386-linux-gnu/crti.o
 .rel.text.leds_arch_get
                0x000000000000bdfc        0x8 /usr/lib/gcc/i686-linux-gnu/4.6/../../../i386-linux-gnu/crti.o
 .rel.text.leds_arch_set
                0x000000000000be04       0x10 /usr/lib/gcc/i686-linux-gnu/4.6/../../../i386-linux-gnu/crti.o
 .rel.text.rs232_set_input
                0x000000000000be14        0x8 /usr/lib/gcc/i686-linux-gnu/4.6/../../../i386-linux-gnu/crti.o
 .rel.text.rs232_send
                0x000000000000be1c       0x10 /usr/lib/gcc/i686-linux-gnu/4.6/../../../i386-linux-gnu/crti.o
 .rel.text.rs232_print
                0x000000000000be2c       0x10 /usr/lib/gcc/i686-linux-gnu/4.6/../../../i386-linux-gnu/crti.o
 .rel.text.slip_arch_writeb
                0x000000000000be3c        0x8 /usr/lib/gcc/i686-linux-gnu/4.6/../../../i386-linux-gnu/crti.o
 .rel.text.clock_time
                0x000000000000be44        0x8 /usr/lib/gcc/i686-linux-gnu/4.6/../../../i386-linux-gnu/crti.o
 .rel.text.clock_seconds
                0x000000000000be4c        0x8 /usr/lib/gcc/i686-linux-gnu/4.6/../../../i386-linux-gnu/crti.o
 .rel.text.simlog_char
                0x000000000000be54       0x30 /usr/lib/gcc/i686-linux-gnu/4.6/../../../i386-linux-gnu/crti.o
 .rel.text.simlog
                0x000000000000be84       0x38 /usr/lib/gcc/i686-linux-gnu/4.6/../../../i386-linux-gnu/crti.o
 .rel.text.log_message
                0x000000000000bebc       0x10 /usr/lib/gcc/i686-linux-gnu/4.6/../../../i386-linux-gnu/crti.o
 .rel.text.log_set_putchar_with_slip
                0x000000000000becc        0x8 /usr/lib/gcc/i686-linux-gnu/4.6/../../../i386-linux-gnu/crti.o
 .rel.text.putchar
                0x000000000000bed4       0x50 /usr/lib/gcc/i686-linux-gnu/4.6/../../../i386-linux-gnu/crti.o
 .rel.text.puts
                0x000000000000bf24       0x10 /usr/lib/gcc/i686-linux-gnu/4.6/../../../i386-linux-gnu/crti.o
 .rel.text.printf
                0x000000000000bf34       0x20 /usr/lib/gcc/i686-linux-gnu/4.6/../../../i386-linux-gnu/crti.o
 .rel.text.cfs_open
                0x000000000000bf54       0x30 /usr/lib/gcc/i686-linux-gnu/4.6/../../../i386-linux-gnu/crti.o
 .rel.text.cfs_close
                0x000000000000bf84        0x8 /usr/lib/gcc/i686-linux-gnu/4.6/../../../i386-linux-gnu/crti.o
 .rel.text.cfs_read
                0x000000000000bf8c       0x70 /usr/lib/gcc/i686-linux-gnu/4.6/../../../i386-linux-gnu/crti.o
 .rel.text.cfs_write
                0x000000000000bffc       0x90 /usr/lib/gcc/i686-linux-gnu/4.6/../../../i386-linux-gnu/crti.o
 .rel.text.cfs_seek
                0x000000000000c08c       0x68 /usr/lib/gcc/i686-linux-gnu/4.6/../../../i386-linux-gnu/crti.o
 .rel.text.cfs_remove
                0x000000000000c0f4        0x8 /usr/lib/gcc/i686-linux-gnu/4.6/../../../i386-linux-gnu/crti.o
 .rel.text.radio_set_channel
                0x000000000000c0fc        0x8 /usr/lib/gcc/i686-linux-gnu/4.6/../../../i386-linux-gnu/crti.o
 .rel.text.radio_set_txpower
                0x000000000000c104        0x8 /usr/lib/gcc/i686-linux-gnu/4.6/../../../i386-linux-gnu/crti.o
 .rel.text.radio_signal_strength_last
                0x000000000000c10c        0x8 /usr/lib/gcc/i686-linux-gnu/4.6/../../../i386-linux-gnu/crti.o
 .rel.text.radio_signal_strength_current
                0x000000000000c114        0x8 /usr/lib/gcc/i686-linux-gnu/4.6/../../../i386-linux-gnu/crti.o
 .rel.text.radio_on
                0x000000000000c11c        0x8 /usr/lib/gcc/i686-linux-gnu/4.6/../../../i386-linux-gnu/crti.o
 .rel.text.radio_off
                0x000000000000c124        0x8 /usr/lib/gcc/i686-linux-gnu/4.6/../../../i386-linux-gnu/crti.o
 .rel.text.radio_read
                0x000000000000c12c       0x50 /usr/lib/gcc/i686-linux-gnu/4.6/../../../i386-linux-gnu/crti.o
 .rel.text.channel_clear
                0x000000000000c17c        0x8 /usr/lib/gcc/i686-linux-gnu/4.6/../../../i386-linux-gnu/crti.o
 .rel.text.radio_send
                0x000000000000c184       0x70 /usr/lib/gcc/i686-linux-gnu/4.6/../../../i386-linux-gnu/crti.o
 .rel.text.prepare_packet
                0x000000000000c1f4        0x8 /usr/lib/gcc/i686-linux-gnu/4.6/../../../i386-linux-gnu/crti.o
 .rel.text.transmit_packet
                0x000000000000c1fc       0x10 /usr/lib/gcc/i686-linux-gnu/4.6/../../../i386-linux-gnu/crti.o
 .rel.text.receiving_packet
                0x000000000000c20c        0x8 /usr/lib/gcc/i686-linux-gnu/4.6/../../../i386-linux-gnu/crti.o
 .rel.text.pending_packet
                0x000000000000c214       0x10 /usr/lib/gcc/i686-linux-gnu/4.6/../../../i386-linux-gnu/crti.o
 .rel.text.process_thread_cooja_radio_process
                0x000000000000c224       0x20 /usr/lib/gcc/i686-linux-gnu/4.6/../../../i386-linux-gnu/crti.o
 .rel.text.init
                0x000000000000c244       0x10 /usr/lib/gcc/i686-linux-gnu/4.6/../../../i386-linux-gnu/crti.o
 .rel.text.get_sensor_index
                0x000000000000c254       0x10 /usr/lib/gcc/i686-linux-gnu/4.6/../../../i386-linux-gnu/crti.o
 .rel.text.sensors_first
                0x000000000000c264        0x8 /usr/lib/gcc/i686-linux-gnu/4.6/../../../i386-linux-gnu/crti.o
 .rel.text.sensors_next
                0x000000000000c26c        0x8 /usr/lib/gcc/i686-linux-gnu/4.6/../../../i386-linux-gnu/crti.o
 .rel.text.sensors_changed
                0x000000000000c274       0x20 /usr/lib/gcc/i686-linux-gnu/4.6/../../../i386-linux-gnu/crti.o
 .rel.text.sensors_find
                0x000000000000c294       0x20 /usr/lib/gcc/i686-linux-gnu/4.6/../../../i386-linux-gnu/crti.o
 .rel.text.process_thread_sensors_process
                0x000000000000c2b4      0x108 /usr/lib/gcc/i686-linux-gnu/4.6/../../../i386-linux-gnu/crti.o
 .rel.text.frame802154_parse
                0x000000000000c3bc       0x40 /usr/lib/gcc/i686-linux-gnu/4.6/../../../i386-linux-gnu/crti.o
 .rel.text.rpl_purge_routes
                0x000000000000c3fc       0x50 /usr/lib/gcc/i686-linux-gnu/4.6/../../../i386-linux-gnu/crti.o
 .rel.text.rpl_remove_routes
                0x000000000000c44c       0x20 /usr/lib/gcc/i686-linux-gnu/4.6/../../../i386-linux-gnu/crti.o
 .rel.text.rpl_remove_routes_by_nexthop
                0x000000000000c46c       0x30 /usr/lib/gcc/i686-linux-gnu/4.6/../../../i386-linux-gnu/crti.o
 .rel.text.rpl_add_route
                0x000000000000c49c        0x8 /usr/lib/gcc/i686-linux-gnu/4.6/../../../i386-linux-gnu/crti.o
 .rel.text.rpl_link_neighbor_callback
                0x000000000000c4a4       0x20 /usr/lib/gcc/i686-linux-gnu/4.6/../../../i386-linux-gnu/crti.o
 .rel.text.rpl_ipv6_neighbor_callback
                0x000000000000c4c4       0x10 /usr/lib/gcc/i686-linux-gnu/4.6/../../../i386-linux-gnu/crti.o
 .rel.text.rpl_init
                0x000000000000c4d4       0x28 /usr/lib/gcc/i686-linux-gnu/4.6/../../../i386-linux-gnu/crti.o
 .rel.text.rpl_verify_header
                0x000000000000c4fc       0xd0 /usr/lib/gcc/i686-linux-gnu/4.6/../../../i386-linux-gnu/crti.o
 .rel.text.set_rpl_opt
                0x000000000000c5cc      0x108 /usr/lib/gcc/i686-linux-gnu/4.6/../../../i386-linux-gnu/crti.o
 .rel.text.rpl_update_header_empty
                0x000000000000c6d4      0x120 /usr/lib/gcc/i686-linux-gnu/4.6/../../../i386-linux-gnu/crti.o
 .rel.text.rpl_update_header_final
                0x000000000000c7f4       0xc0 /usr/lib/gcc/i686-linux-gnu/4.6/../../../i386-linux-gnu/crti.o
 .rel.text.rpl_remove_header
                0x000000000000c8b4       0xb0 /usr/lib/gcc/i686-linux-gnu/4.6/../../../i386-linux-gnu/crti.o
 .rel.text.rpl_invert_header
                0x000000000000c964       0xa8 /usr/lib/gcc/i686-linux-gnu/4.6/../../../i386-linux-gnu/crti.o
 .rel.text.rpl_insert_header
                0x000000000000ca0c       0x20 /usr/lib/gcc/i686-linux-gnu/4.6/../../../i386-linux-gnu/crti.o
 .rel.text.memb_init
                0x000000000000ca2c       0x10 /usr/lib/gcc/i686-linux-gnu/4.6/../../../i386-linux-gnu/crti.o
 .rel.text.timer_set
                0x000000000000ca3c        0x8 /usr/lib/gcc/i686-linux-gnu/4.6/../../../i386-linux-gnu/crti.o
 .rel.text.timer_restart
                0x000000000000ca44        0x8 /usr/lib/gcc/i686-linux-gnu/4.6/../../../i386-linux-gnu/crti.o
 .rel.text.timer_expired
                0x000000000000ca4c        0x8 /usr/lib/gcc/i686-linux-gnu/4.6/../../../i386-linux-gnu/crti.o
 .rel.text.timer_remaining
                0x000000000000ca54        0x8 /usr/lib/gcc/i686-linux-gnu/4.6/../../../i386-linux-gnu/crti.o
 .rel.text.rtimer_init
                0x000000000000ca5c        0x8 /usr/lib/gcc/i686-linux-gnu/4.6/../../../i386-linux-gnu/crti.o
 .rel.text.rtimer_set
                0x000000000000ca64       0x18 /usr/lib/gcc/i686-linux-gnu/4.6/../../../i386-linux-gnu/crti.o
 .rel.text.rtimer_run_next
                0x000000000000ca7c       0x30 /usr/lib/gcc/i686-linux-gnu/4.6/../../../i386-linux-gnu/crti.o
 *(.rel.fini)
 *(.rel.rodata .rel.rodata.* .rel.gnu.linkonce.r.*)
 .rel.rodata    0x000000000000caac      0x570 /usr/lib/gcc/i686-linux-gnu/4.6/../../../i386-linux-gnu/crti.o
 *(.rel.data.rel.ro* .rel.gnu.linkonce.d.rel.ro.*)
 *(.rel.data .rel.data.* .rel.gnu.linkonce.d.*)
 .rel.data.rel  0x000000000000d01c        0x8 /usr/lib/gcc/i686-linux-gnu/4.6/../../../i386-linux-gnu/crti.o
 .rel.data      0x000000000000d024      0x228 /usr/lib/gcc/i686-linux-gnu/4.6/../../../i386-linux-gnu/crti.o
 *(.rel.tdata .rel.tdata.* .rel.gnu.linkonce.td.*)
 *(.rel.tbss .rel.tbss.* .rel.gnu.linkonce.tb.*)
 *(.rel.ctors)
 *(.rel.dtors)
 *(.rel.got)
 .rel.got       0x000000000000d24c       0x18 /usr/lib/gcc/i686-linux-gnu/4.6/../../../i386-linux-gnu/crti.o
 *(.rel.bss .rel.bss.* .rel.gnu.linkonce.b.*)
 *(.rel.ifunc)
 .rel.ifunc     0x0000000000000000        0x0 /usr/lib/gcc/i686-linux-gnu/4.6/../../../i386-linux-gnu/crti.o

.rel.plt        0x000000000000d264       0x10
 *(.rel.plt)
 .rel.plt       0x000000000000d264       0x10 /usr/lib/gcc/i686-linux-gnu/4.6/../../../i386-linux-gnu/crti.o
 *(.rel.iplt)

.init           0x000000000000d274       0x2e
 *(.init)
 .init          0x000000000000d274       0x1f /usr/lib/gcc/i686-linux-gnu/4.6/../../../i386-linux-gnu/crti.o
                0x000000000000d274                _init
 .init          0x000000000000d293        0x5 /usr/lib/gcc/i686-linux-gnu/4.6/crtbeginS.o
 .init          0x000000000000d298        0x5 /usr/lib/gcc/i686-linux-gnu/4.6/crtendS.o
 .init          0x000000000000d29d        0x5 /usr/lib/gcc/i686-linux-gnu/4.6/../../../i386-linux-gnu/crtn.o

.plt            0x000000000000d2b0       0x30
 *(.plt)
 .plt           0x000000000000d2b0       0x30 /usr/lib/gcc/i686-linux-gnu/4.6/../../../i386-linux-gnu/crti.o
 *(.iplt)

.text           0x000000000000d2e0    0x135a8
 *(.text.unlikely .text.*_unlikely)
 *(.text.exit .text.exit.*)
 *(.text.startup .text.startup.*)
 *(.text.hot .text.hot.*)
 *(.text .stub .text.* .gnu.linkonce.t.*)
 .text          0x000000000000d2e0        0x0 /usr/lib/gcc/i686-linux-gnu/4.6/../../../i386-linux-gnu/crti.o
 .text          0x000000000000d2e0       0xb7 /usr/lib/gcc/i686-linux-gnu/4.6/crtbeginS.o
 .text.__i686.get_pc_thunk.bx
                0x000000000000d397        0x4 /usr/lib/gcc/i686-linux-gnu/4.6/crtbeginS.o
                0x000000000000d397                __i686.get_pc_thunk.bx
 *fill*         0x000000000000d39b        0x1 90909090
 .text          0x000000000000d39c        0x0 server.co
 .text.receiver
                0x000000000000d39c      0x4bb server.co
 .text.set_global_address
                0x000000000000d857       0xff server.co
 .text.create_rpl_dag
                0x000000000000d956       0xa3 server.co
 .text.process_thread_server_process
                0x000000000000d9f9       0xac server.co
 .text.process_thread_broadcast_process
                0x000000000000daa5      0x224 server.co
 *fill*         0x000000000000dcc9        0x3 90909090
 .text          0x000000000000dccc        0x0 obj_cooja/mtype74.o
 .text.print_processes
                0x000000000000dccc       0x49 obj_cooja/mtype74.o
 .text.rtimer_thread_loop
                0x000000000000dd15       0x12 obj_cooja/mtype74.o
 .text.set_rime_addr
                0x000000000000dd27       0xd1 obj_cooja/mtype74.o
 .text.contiki_init
                0x000000000000ddf8      0x3b0 obj_cooja/mtype74.o
                0x000000000000ddf8                contiki_init
 .text.process_run_thread_loop
                0x000000000000e1a8       0x6e obj_cooja/mtype74.o
 .text.Java_se_sics_cooja_corecomm_Lib356_init
                0x000000000000e216       0x40 obj_cooja/mtype74.o
                0x000000000000e216                Java_se_sics_cooja_corecomm_Lib356_init
 .text.Java_se_sics_cooja_corecomm_Lib356_getMemory
                0x000000000000e256       0x3d obj_cooja/mtype74.o
                0x000000000000e256                Java_se_sics_cooja_corecomm_Lib356_getMemory
 .text.Java_se_sics_cooja_corecomm_Lib356_setMemory
                0x000000000000e293       0x74 obj_cooja/mtype74.o
                0x000000000000e293                Java_se_sics_cooja_corecomm_Lib356_setMemory
 .text.Java_se_sics_cooja_corecomm_Lib356_tick
                0x000000000000e307       0xe1 obj_cooja/mtype74.o
                0x000000000000e307                Java_se_sics_cooja_corecomm_Lib356_tick
 .text.Java_se_sics_cooja_corecomm_Lib356_setReferenceAddress
                0x000000000000e3e8       0x12 obj_cooja/mtype74.o
                0x000000000000e3e8                Java_se_sics_cooja_corecomm_Lib356_setReferenceAddress
 *fill*         0x000000000000e3fa        0x2 90909090
 .text          0x000000000000e3fc        0x0 obj_cooja/mtype74.a(rimeaddr.o)
 .text.rimeaddr_copy
                0x000000000000e3fc       0x15 obj_cooja/mtype74.a(rimeaddr.o)
                0x000000000000e3fc                rimeaddr_copy
 .text.rimeaddr_cmp
                0x000000000000e411       0x2a obj_cooja/mtype74.a(rimeaddr.o)
                0x000000000000e411                rimeaddr_cmp
 .text.rimeaddr_set_node_addr
                0x000000000000e43b       0x1b obj_cooja/mtype74.a(rimeaddr.o)
                0x000000000000e43b                rimeaddr_set_node_addr
 *fill*         0x000000000000e456        0x2 90909090
 .text          0x000000000000e458        0x0 obj_cooja/mtype74.a(nullmac.o)
 .text.send_packet
                0x000000000000e458       0x1d obj_cooja/mtype74.a(nullmac.o)
 .text.packet_input
                0x000000000000e475        0xf obj_cooja/mtype74.a(nullmac.o)
 .text.on       0x000000000000e484        0xf obj_cooja/mtype74.a(nullmac.o)
 .text.off      0x000000000000e493       0x16 obj_cooja/mtype74.a(nullmac.o)
 .text.channel_check_interval
                0x000000000000e4a9        0xa obj_cooja/mtype74.a(nullmac.o)
 .text.init     0x000000000000e4b3        0x5 obj_cooja/mtype74.a(nullmac.o)
 .text          0x000000000000e4b8        0x0 obj_cooja/mtype74.a(nullrdc.o)
 .text.packetbuf_set_attr
                0x000000000000e4b8       0x2a obj_cooja/mtype74.a(nullrdc.o)
 .text.packetbuf_attr
                0x000000000000e4e2       0x1a obj_cooja/mtype74.a(nullrdc.o)
 .text.packetbuf_set_addr
                0x000000000000e4fc       0x32 obj_cooja/mtype74.a(nullrdc.o)
 .text.packetbuf_addr
                0x000000000000e52e       0x1d obj_cooja/mtype74.a(nullrdc.o)
 .text.send_one_packet
                0x000000000000e54b      0x1f9 obj_cooja/mtype74.a(nullrdc.o)
 .text.send_packet
                0x000000000000e744       0x1a obj_cooja/mtype74.a(nullrdc.o)
 .text.send_list
                0x000000000000e75e       0x4a obj_cooja/mtype74.a(nullrdc.o)
 .text.packet_input
                0x000000000000e7a8      0x212 obj_cooja/mtype74.a(nullrdc.o)
 .text.on       0x000000000000e9ba        0xf obj_cooja/mtype74.a(nullrdc.o)
 .text.off      0x000000000000e9c9       0x1e obj_cooja/mtype74.a(nullrdc.o)
 .text.channel_check_interval
                0x000000000000e9e7        0xa obj_cooja/mtype74.a(nullrdc.o)
 .text.init     0x000000000000e9f1        0xd obj_cooja/mtype74.a(nullrdc.o)
 *fill*         0x000000000000e9fe        0x2 90909090
 .text          0x000000000000ea00        0x0 obj_cooja/mtype74.a(mac.o)
 .text.mac_call_sent_callback
                0x000000000000ea00       0x3c obj_cooja/mtype74.a(mac.o)
                0x000000000000ea00                mac_call_sent_callback
 .text          0x000000000000ea3c        0x0 obj_cooja/mtype74.a(framer-802154.o)
 .text.packetbuf_set_attr
                0x000000000000ea3c       0x2a obj_cooja/mtype74.a(framer-802154.o)
 .text.packetbuf_attr
                0x000000000000ea66       0x1a obj_cooja/mtype74.a(framer-802154.o)
 .text.packetbuf_set_addr
                0x000000000000ea80       0x32 obj_cooja/mtype74.a(framer-802154.o)
 .text.packetbuf_addr
                0x000000000000eab2       0x1d obj_cooja/mtype74.a(framer-802154.o)
 .text.is_broadcast_addr
                0x000000000000eacf       0x4d obj_cooja/mtype74.a(framer-802154.o)
 .text.create   0x000000000000eb1c      0x1cd obj_cooja/mtype74.a(framer-802154.o)
 .text.parse    0x000000000000ece9      0x12c obj_cooja/mtype74.a(framer-802154.o)
 *fill*         0x000000000000ee15        0x3 90909090
 .text          0x000000000000ee18        0x0 obj_cooja/mtype74.a(rpl-dag.o)
 .text.rpl_dag_init
                0x000000000000ee18       0x1d obj_cooja/mtype74.a(rpl-dag.o)
                0x000000000000ee18                rpl_dag_init
 .text.rpl_get_parent_rank
                0x000000000000ee35       0x33 obj_cooja/mtype74.a(rpl-dag.o)
                0x000000000000ee35                rpl_get_parent_rank
 .text.rpl_get_parent_link_metric
                0x000000000000ee68       0x33 obj_cooja/mtype74.a(rpl-dag.o)
                0x000000000000ee68                rpl_get_parent_link_metric
 .text.rpl_get_parent_ipaddr
                0x000000000000ee9b       0x2a obj_cooja/mtype74.a(rpl-dag.o)
                0x000000000000ee9b                rpl_get_parent_ipaddr
 .text.rpl_set_preferred_parent
                0x000000000000eec5       0x4d obj_cooja/mtype74.a(rpl-dag.o)
 .text.lollipop_greater_than
                0x000000000000ef12       0x65 obj_cooja/mtype74.a(rpl-dag.o)
 .text.remove_parents
                0x000000000000ef77       0x61 obj_cooja/mtype74.a(rpl-dag.o)
 .text.nullify_parents
                0x000000000000efd8       0x61 obj_cooja/mtype74.a(rpl-dag.o)
 .text.should_send_dao
                0x000000000000f039       0x5b obj_cooja/mtype74.a(rpl-dag.o)
 .text.acceptable_rank
                0x000000000000f094       0x98 obj_cooja/mtype74.a(rpl-dag.o)
 .text.get_dag  0x000000000000f12c       0x88 obj_cooja/mtype74.a(rpl-dag.o)
 .text.rpl_set_root
                0x000000000000f1b4      0x1d1 obj_cooja/mtype74.a(rpl-dag.o)
                0x000000000000f1b4                rpl_set_root
 .text.rpl_repair_root
                0x000000000000f385       0xd6 obj_cooja/mtype74.a(rpl-dag.o)
                0x000000000000f385                rpl_repair_root
 .text.set_ip_from_prefix
                0x000000000000f45b       0x6b obj_cooja/mtype74.a(rpl-dag.o)
 .text.check_prefix
                0x000000000000f4c6      0x103 obj_cooja/mtype74.a(rpl-dag.o)
 .text.rpl_set_prefix
                0x000000000000f5c9      0x10e obj_cooja/mtype74.a(rpl-dag.o)
                0x000000000000f5c9                rpl_set_prefix
 .text.rpl_set_default_route
                0x000000000000f6d7       0xa5 obj_cooja/mtype74.a(rpl-dag.o)
                0x000000000000f6d7                rpl_set_default_route
 .text.rpl_alloc_instance
                0x000000000000f77c       0xd9 obj_cooja/mtype74.a(rpl-dag.o)
                0x000000000000f77c                rpl_alloc_instance
 .text.rpl_alloc_dag
                0x000000000000f855      0x112 obj_cooja/mtype74.a(rpl-dag.o)
                0x000000000000f855                rpl_alloc_dag
 .text.rpl_set_default_instance
                0x000000000000f967        0xd obj_cooja/mtype74.a(rpl-dag.o)
                0x000000000000f967                rpl_set_default_instance
 .text.rpl_free_instance
                0x000000000000f974       0x91 obj_cooja/mtype74.a(rpl-dag.o)
                0x000000000000f974                rpl_free_instance
 .text.rpl_free_dag
                0x000000000000fa05       0x66 obj_cooja/mtype74.a(rpl-dag.o)
                0x000000000000fa05                rpl_free_dag
 .text.rpl_add_parent
                0x000000000000fa6b       0x6a obj_cooja/mtype74.a(rpl-dag.o)
                0x000000000000fa6b                rpl_add_parent
 .text.find_parent_any_dag_any_instance
                0x000000000000fad5       0x38 obj_cooja/mtype74.a(rpl-dag.o)
 .text.rpl_find_parent
                0x000000000000fb0d       0x31 obj_cooja/mtype74.a(rpl-dag.o)
                0x000000000000fb0d                rpl_find_parent
 .text.find_parent_dag
                0x000000000000fb3e       0x29 obj_cooja/mtype74.a(rpl-dag.o)
 .text.rpl_find_parent_any_dag
                0x000000000000fb67       0x3e obj_cooja/mtype74.a(rpl-dag.o)
                0x000000000000fb67                rpl_find_parent_any_dag
 .text.rpl_select_dag
                0x000000000000fba5      0x31b obj_cooja/mtype74.a(rpl-dag.o)
                0x000000000000fba5                rpl_select_dag
 .text.rpl_select_parent
                0x000000000000fec0       0x92 obj_cooja/mtype74.a(rpl-dag.o)
                0x000000000000fec0                rpl_select_parent
 .text.rpl_remove_parent
                0x000000000000ff52       0x27 obj_cooja/mtype74.a(rpl-dag.o)
                0x000000000000ff52                rpl_remove_parent
 .text.rpl_nullify_parent
                0x000000000000ff79       0x94 obj_cooja/mtype74.a(rpl-dag.o)
                0x000000000000ff79                rpl_nullify_parent
 .text.rpl_move_parent
                0x000000000001000d       0xc8 obj_cooja/mtype74.a(rpl-dag.o)
                0x000000000001000d                rpl_move_parent
 .text.rpl_get_any_dag
                0x00000000000100d5       0x62 obj_cooja/mtype74.a(rpl-dag.o)
                0x00000000000100d5                rpl_get_any_dag
 .text.rpl_get_instance
                0x0000000000010137       0x63 obj_cooja/mtype74.a(rpl-dag.o)
                0x0000000000010137                rpl_get_instance
 .text.rpl_find_of
                0x000000000001019a       0x47 obj_cooja/mtype74.a(rpl-dag.o)
                0x000000000001019a                rpl_find_of
 .text.rpl_join_instance
                0x00000000000101e1      0x2a6 obj_cooja/mtype74.a(rpl-dag.o)
                0x00000000000101e1                rpl_join_instance
 .text.rpl_add_dag
                0x0000000000010487      0x280 obj_cooja/mtype74.a(rpl-dag.o)
                0x0000000000010487                rpl_add_dag
 .text.global_repair
                0x0000000000010707      0x105 obj_cooja/mtype74.a(rpl-dag.o)
 .text.rpl_local_repair
                0x000000000001080c       0x8c obj_cooja/mtype74.a(rpl-dag.o)
                0x000000000001080c                rpl_local_repair
 .text.rpl_recalculate_ranks
                0x0000000000010898       0x78 obj_cooja/mtype74.a(rpl-dag.o)
                0x0000000000010898                rpl_recalculate_ranks
 .text.rpl_process_parent_event
                0x0000000000010910       0x81 obj_cooja/mtype74.a(rpl-dag.o)
                0x0000000000010910                rpl_process_parent_event
 .text.rpl_process_dio
                0x0000000000010991      0x43a obj_cooja/mtype74.a(rpl-dag.o)
                0x0000000000010991                rpl_process_dio
 *fill*         0x0000000000010dcb        0x1 90909090
 .text          0x0000000000010dcc        0x0 obj_cooja/mtype74.a(rpl-icmp6.o)
 .text.packetbuf_addr
                0x0000000000010dcc       0x1d obj_cooja/mtype74.a(rpl-icmp6.o)
 .text.get_global_addr
                0x0000000000010de9       0xb7 obj_cooja/mtype74.a(rpl-icmp6.o)
 .text.get32    0x0000000000010ea0       0x4f obj_cooja/mtype74.a(rpl-icmp6.o)
 .text.set32    0x0000000000010eef       0x4a obj_cooja/mtype74.a(rpl-icmp6.o)
 .text.get16    0x0000000000010f39       0x27 obj_cooja/mtype74.a(rpl-icmp6.o)
 .text.set16    0x0000000000010f60       0x33 obj_cooja/mtype74.a(rpl-icmp6.o)
 .text.dis_input
                0x0000000000010f93       0x65 obj_cooja/mtype74.a(rpl-icmp6.o)
 .text.dis_output
                0x0000000000010ff8       0xaf obj_cooja/mtype74.a(rpl-icmp6.o)
                0x0000000000010ff8                dis_output
 .text.dio_input
                0x00000000000110a7      0x5d8 obj_cooja/mtype74.a(rpl-icmp6.o)
 .text.dio_output
                0x000000000001167f      0x53e obj_cooja/mtype74.a(rpl-icmp6.o)
                0x000000000001167f                dio_output
 .text.dao_input
                0x0000000000011bbd      0x40b obj_cooja/mtype74.a(rpl-icmp6.o)
 .text.dao_output
                0x0000000000011fc8       0x5c obj_cooja/mtype74.a(rpl-icmp6.o)
                0x0000000000011fc8                dao_output
 .text.dao_output_target
                0x0000000000012024      0x243 obj_cooja/mtype74.a(rpl-icmp6.o)
                0x0000000000012024                dao_output_target
 .text.dao_ack_input
                0x0000000000012267        0x5 obj_cooja/mtype74.a(rpl-icmp6.o)
 .text.dao_ack_output
                0x000000000001226c       0x73 obj_cooja/mtype74.a(rpl-icmp6.o)
                0x000000000001226c                dao_ack_output
 .text.uip_rpl_input
                0x00000000000122df       0x63 obj_cooja/mtype74.a(rpl-icmp6.o)
                0x00000000000122df                uip_rpl_input
 *fill*         0x0000000000012342        0x2 90909090
 .text          0x0000000000012344        0x0 obj_cooja/mtype74.a(rpl-timers.o)
 .text.handle_periodic_timer
                0x0000000000012344       0x59 obj_cooja/mtype74.a(rpl-timers.o)
 .text.new_dio_interval
                0x000000000001239d       0xda obj_cooja/mtype74.a(rpl-timers.o)
 .text.handle_dio_timer
                0x0000000000012477      0x11f obj_cooja/mtype74.a(rpl-timers.o)
 .text.rpl_reset_periodic_timer
                0x0000000000012596       0x5b obj_cooja/mtype74.a(rpl-timers.o)
                0x0000000000012596                rpl_reset_periodic_timer
 .text.rpl_reset_dio_timer
                0x00000000000125f1       0x48 obj_cooja/mtype74.a(rpl-timers.o)
                0x00000000000125f1                rpl_reset_dio_timer
 .text.handle_dao_timer
                0x0000000000012639       0x92 obj_cooja/mtype74.a(rpl-timers.o)
 .text.rpl_schedule_dao
                0x00000000000126cb       0x89 obj_cooja/mtype74.a(rpl-timers.o)
                0x00000000000126cb                rpl_schedule_dao
 .text          0x0000000000012754        0x0 obj_cooja/mtype74.a(rpl-mrhof.o)
 .text.calculate_path_metric
                0x0000000000012754       0x22 obj_cooja/mtype74.a(rpl-mrhof.o)
 .text.reset    0x0000000000012776        0x5 obj_cooja/mtype74.a(rpl-mrhof.o)
 .text.neighbor_link_callback
                0x000000000001277b       0x6c obj_cooja/mtype74.a(rpl-mrhof.o)
 .text.calculate_rank
                0x00000000000127e7       0x75 obj_cooja/mtype74.a(rpl-mrhof.o)
 .text.best_dag
                0x000000000001285c       0x75 obj_cooja/mtype74.a(rpl-mrhof.o)
 .text.best_parent
                0x00000000000128d1       0x92 obj_cooja/mtype74.a(rpl-mrhof.o)
 .text.update_metric_container
                0x0000000000012963        0xb obj_cooja/mtype74.a(rpl-mrhof.o)
 *fill*         0x000000000001296e        0x2 90909090
 .text          0x0000000000012970        0x0 obj_cooja/mtype74.a(process.o)
 .text.process_alloc_event
                0x0000000000012970       0x18 obj_cooja/mtype74.a(process.o)
                0x0000000000012970                process_alloc_event
 .text.process_start
                0x0000000000012988       0x70 obj_cooja/mtype74.a(process.o)
                0x0000000000012988                process_start
 .text.exit_process
                0x00000000000129f8       0xec obj_cooja/mtype74.a(process.o)
 .text.call_process
                0x0000000000012ae4       0x90 obj_cooja/mtype74.a(process.o)
 .text.process_exit
                0x0000000000012b74       0x1c obj_cooja/mtype74.a(process.o)
                0x0000000000012b74                process_exit
 .text.process_init
                0x0000000000012b90       0x33 obj_cooja/mtype74.a(process.o)
                0x0000000000012b90                process_init
 .text.do_poll  0x0000000000012bc3       0x5b obj_cooja/mtype74.a(process.o)
 .text.do_event
                0x0000000000012c1e      0x145 obj_cooja/mtype74.a(process.o)
 .text.process_run
                0x0000000000012d63       0x33 obj_cooja/mtype74.a(process.o)
                0x0000000000012d63                process_run
 .text.process_nevents
                0x0000000000012d96       0x1b obj_cooja/mtype74.a(process.o)
                0x0000000000012d96                process_nevents
 .text.process_post
                0x0000000000012db1       0xac obj_cooja/mtype74.a(process.o)
                0x0000000000012db1                process_post
 .text.process_post_synch
                0x0000000000012e5d       0x38 obj_cooja/mtype74.a(process.o)
                0x0000000000012e5d                process_post_synch
 .text.process_poll
                0x0000000000012e95       0x2f obj_cooja/mtype74.a(process.o)
                0x0000000000012e95                process_poll
 .text.process_is_running
                0x0000000000012ec4       0x14 obj_cooja/mtype74.a(process.o)
                0x0000000000012ec4                process_is_running
 .text          0x0000000000012ed8        0x0 obj_cooja/mtype74.a(autostart.o)
 .text.autostart_start
                0x0000000000012ed8       0x3f obj_cooja/mtype74.a(autostart.o)
                0x0000000000012ed8                autostart_start
 .text.autostart_exit
                0x0000000000012f17       0x37 obj_cooja/mtype74.a(autostart.o)
                0x0000000000012f17                autostart_exit
 *fill*         0x0000000000012f4e        0x2 90909090
 .text          0x0000000000012f50        0x0 obj_cooja/mtype74.a(serial-line.o)
 .text.serial_line_input_byte
                0x0000000000012f50       0x7d obj_cooja/mtype74.a(serial-line.o)
                0x0000000000012f50                serial_line_input_byte
 .text.process_thread_serial_line_process
                0x0000000000012fcd      0x137 obj_cooja/mtype74.a(serial-line.o)
 .text.serial_line_init
                0x0000000000013104       0x38 obj_cooja/mtype74.a(serial-line.o)
                0x0000000000013104                serial_line_init
 .text          0x000000000001313c        0x0 obj_cooja/mtype74.a(list.o)
 .text.list_init
                0x000000000001313c        0xe obj_cooja/mtype74.a(list.o)
                0x000000000001313c                list_init
 .text.list_head
                0x000000000001314a        0xa obj_cooja/mtype74.a(list.o)
                0x000000000001314a                list_head
 .text.list_copy
                0x0000000000013154        0xf obj_cooja/mtype74.a(list.o)
                0x0000000000013154                list_copy
 .text.list_tail
                0x0000000000013163       0x36 obj_cooja/mtype74.a(list.o)
                0x0000000000013163                list_tail
 .text.list_add
                0x0000000000013199       0x49 obj_cooja/mtype74.a(list.o)
                0x0000000000013199                list_add
 .text.list_push
                0x00000000000131e2       0x2c obj_cooja/mtype74.a(list.o)
                0x00000000000131e2                list_push
 .text.list_chop
                0x000000000001320e       0x6a obj_cooja/mtype74.a(list.o)
                0x000000000001320e                list_chop
 .text.list_pop
                0x0000000000013278       0x28 obj_cooja/mtype74.a(list.o)
                0x0000000000013278                list_pop
 .text.list_remove
                0x00000000000132a0       0x68 obj_cooja/mtype74.a(list.o)
                0x00000000000132a0                list_remove
 .text.list_length
                0x0000000000013308       0x2e obj_cooja/mtype74.a(list.o)
                0x0000000000013308                list_length
 .text.list_insert
                0x0000000000013336       0x34 obj_cooja/mtype74.a(list.o)
                0x0000000000013336                list_insert
 .text.list_item_next
                0x000000000001336a       0x17 obj_cooja/mtype74.a(list.o)
                0x000000000001336a                list_item_next
 *fill*         0x0000000000013381        0x3 90909090
 .text          0x0000000000013384        0x0 obj_cooja/mtype74.a(etimer.o)
 .text.update_time
                0x0000000000013384       0x8f obj_cooja/mtype74.a(etimer.o)
 .text.process_thread_etimer_process
                0x0000000000013413      0x190 obj_cooja/mtype74.a(etimer.o)
 .text.etimer_request_poll
                0x00000000000135a3       0x14 obj_cooja/mtype74.a(etimer.o)
                0x00000000000135a3                etimer_request_poll
 .text.add_timer
                0x00000000000135b7       0x70 obj_cooja/mtype74.a(etimer.o)
 .text.etimer_set
                0x0000000000013627       0x25 obj_cooja/mtype74.a(etimer.o)
                0x0000000000013627                etimer_set
 .text.etimer_reset
                0x000000000001364c       0x1e obj_cooja/mtype74.a(etimer.o)
                0x000000000001364c                etimer_reset
 .text.etimer_restart
                0x000000000001366a       0x1e obj_cooja/mtype74.a(etimer.o)
                0x000000000001366a                etimer_restart
 .text.etimer_adjust
                0x0000000000013688       0x1c obj_cooja/mtype74.a(etimer.o)
                0x0000000000013688                etimer_adjust
 .text.etimer_expired
                0x00000000000136a4       0x13 obj_cooja/mtype74.a(etimer.o)
                0x00000000000136a4                etimer_expired
 .text.etimer_expiration_time
                0x00000000000136b7       0x12 obj_cooja/mtype74.a(etimer.o)
                0x00000000000136b7                etimer_expiration_time
 .text.etimer_start_time
                0x00000000000136c9        0xa obj_cooja/mtype74.a(etimer.o)
                0x00000000000136c9                etimer_start_time
 .text.etimer_pending
                0x00000000000136d3       0x12 obj_cooja/mtype74.a(etimer.o)
                0x00000000000136d3                etimer_pending
 .text.etimer_next_expiration_time
                0x00000000000136e5       0x1a obj_cooja/mtype74.a(etimer.o)
                0x00000000000136e5                etimer_next_expiration_time
 .text.etimer_stop
                0x00000000000136ff       0x75 obj_cooja/mtype74.a(etimer.o)
                0x00000000000136ff                etimer_stop
 .text          0x0000000000013774        0x0 obj_cooja/mtype74.a(ctimer.o)
 .text.process_thread_ctimer_process
                0x0000000000013774      0x11b obj_cooja/mtype74.a(ctimer.o)
 .text.ctimer_init
                0x000000000001388f       0x30 obj_cooja/mtype74.a(ctimer.o)
                0x000000000001388f                ctimer_init
 .text.ctimer_set
                0x00000000000138bf       0x93 obj_cooja/mtype74.a(ctimer.o)
                0x00000000000138bf                ctimer_set
 .text.ctimer_reset
                0x0000000000013952       0x63 obj_cooja/mtype74.a(ctimer.o)
                0x0000000000013952                ctimer_reset
 .text.ctimer_restart
                0x00000000000139b5       0x63 obj_cooja/mtype74.a(ctimer.o)
                0x00000000000139b5                ctimer_restart
 .text.ctimer_stop
                0x0000000000013a18       0x4b obj_cooja/mtype74.a(ctimer.o)
                0x0000000000013a18                ctimer_stop
 .text.ctimer_expired
                0x0000000000013a63       0x57 obj_cooja/mtype74.a(ctimer.o)
                0x0000000000013a63                ctimer_expired
 *fill*         0x0000000000013aba        0x2 90909090
 .text          0x0000000000013abc        0x0 obj_cooja/mtype74.a(stimer.o)
 .text.stimer_set
                0x0000000000013abc       0x1b obj_cooja/mtype74.a(stimer.o)
                0x0000000000013abc                stimer_set
 .text.stimer_reset
                0x0000000000013ad7       0x17 obj_cooja/mtype74.a(stimer.o)
                0x0000000000013ad7                stimer_reset
 .text.stimer_restart
                0x0000000000013aee       0x12 obj_cooja/mtype74.a(stimer.o)
                0x0000000000013aee                stimer_restart
 .text.stimer_expired
                0x0000000000013b00       0x27 obj_cooja/mtype74.a(stimer.o)
                0x0000000000013b00                stimer_expired
 .text.stimer_remaining
                0x0000000000013b27       0x26 obj_cooja/mtype74.a(stimer.o)
                0x0000000000013b27                stimer_remaining
 .text.stimer_elapsed
                0x0000000000013b4d       0x14 obj_cooja/mtype74.a(stimer.o)
                0x0000000000013b4d                stimer_elapsed
 *fill*         0x0000000000013b61        0x3 90909090
 .text          0x0000000000013b64        0x0 obj_cooja/mtype74.a(random.o)
 .text.random_init
                0x0000000000013b64       0x1b obj_cooja/mtype74.a(random.o)
                0x0000000000013b64                random_init
 .text.random_rand
                0x0000000000013b7f        0xd obj_cooja/mtype74.a(random.o)
                0x0000000000013b7f                random_rand
 .text          0x0000000000013b8c        0x0 obj_cooja/mtype74.a(ringbuf.o)
 .text.ringbuf_init
                0x0000000000013b8c       0x31 obj_cooja/mtype74.a(ringbuf.o)
                0x0000000000013b8c                ringbuf_init
 .text.ringbuf_put
                0x0000000000013bbd       0x7e obj_cooja/mtype74.a(ringbuf.o)
                0x0000000000013bbd                ringbuf_put
 .text.ringbuf_get
                0x0000000000013c3b       0x6d obj_cooja/mtype74.a(ringbuf.o)
                0x0000000000013c3b                ringbuf_get
 .text.ringbuf_size
                0x0000000000013ca8       0x12 obj_cooja/mtype74.a(ringbuf.o)
                0x0000000000013ca8                ringbuf_size
 .text.ringbuf_elements
                0x0000000000013cba       0x27 obj_cooja/mtype74.a(ringbuf.o)
                0x0000000000013cba                ringbuf_elements
 *fill*         0x0000000000013ce1        0x3 90909090
 .text          0x0000000000013ce4        0x0 obj_cooja/mtype74.a(nbr-table.o)
 .text.key_from_index
                0x0000000000013ce4       0x26 obj_cooja/mtype74.a(nbr-table.o)
 .text.item_from_index
                0x0000000000013d0a       0x2a obj_cooja/mtype74.a(nbr-table.o)
 .text.index_from_key
                0x0000000000013d34       0x29 obj_cooja/mtype74.a(nbr-table.o)
 .text.index_from_item
                0x0000000000013d5d       0x3b obj_cooja/mtype74.a(nbr-table.o)
 .text.item_from_key
                0x0000000000013d98       0x22 obj_cooja/mtype74.a(nbr-table.o)
 .text.key_from_item
                0x0000000000013dba       0x22 obj_cooja/mtype74.a(nbr-table.o)
 .text.index_from_lladdr
                0x0000000000013ddc       0x6c obj_cooja/mtype74.a(nbr-table.o)
 .text.nbr_get_bit
                0x0000000000013e48       0x51 obj_cooja/mtype74.a(nbr-table.o)
 .text.nbr_set_bit
                0x0000000000013e99       0x96 obj_cooja/mtype74.a(nbr-table.o)
 .text.nbr_table_allocate
                0x0000000000013f2f      0x19b obj_cooja/mtype74.a(nbr-table.o)
 .text.nbr_table_register
                0x00000000000140ca       0x47 obj_cooja/mtype74.a(nbr-table.o)
                0x00000000000140ca                nbr_table_register
 .text.nbr_table_head
                0x0000000000014111       0x5c obj_cooja/mtype74.a(nbr-table.o)
                0x0000000000014111                nbr_table_head
 .text.nbr_table_next
                0x000000000001416d       0x67 obj_cooja/mtype74.a(nbr-table.o)
                0x000000000001416d                nbr_table_next
 .text.nbr_table_add_lladdr
                0x00000000000141d4       0xd1 obj_cooja/mtype74.a(nbr-table.o)
                0x00000000000141d4                nbr_table_add_lladdr
 .text.nbr_table_get_from_lladdr
                0x00000000000142a5       0x4d obj_cooja/mtype74.a(nbr-table.o)
                0x00000000000142a5                nbr_table_get_from_lladdr
 .text.nbr_table_remove
                0x00000000000142f2       0x52 obj_cooja/mtype74.a(nbr-table.o)
                0x00000000000142f2                nbr_table_remove
 .text.nbr_table_lock
                0x0000000000014344       0x2a obj_cooja/mtype74.a(nbr-table.o)
                0x0000000000014344                nbr_table_lock
 .text.nbr_table_unlock
                0x000000000001436e       0x2a obj_cooja/mtype74.a(nbr-table.o)
                0x000000000001436e                nbr_table_unlock
 .text.nbr_table_get_lladdr
                0x0000000000014398       0x30 obj_cooja/mtype74.a(nbr-table.o)
                0x0000000000014398                nbr_table_get_lladdr
 .text          0x00000000000143c8        0x0 obj_cooja/mtype74.a(netstack.o)
 .text.netstack_init
                0x00000000000143c8       0x24 obj_cooja/mtype74.a(netstack.o)
                0x00000000000143c8                netstack_init
 .text          0x00000000000143ec        0x0 obj_cooja/mtype74.a(packetbuf.o)
 .text.packetbuf_clear
                0x00000000000143ec       0x37 obj_cooja/mtype74.a(packetbuf.o)
                0x00000000000143ec                packetbuf_clear
 .text.packetbuf_clear_hdr
                0x0000000000014423        0xc obj_cooja/mtype74.a(packetbuf.o)
                0x0000000000014423                packetbuf_clear_hdr
 .text.packetbuf_copyfrom
                0x000000000001442f       0x52 obj_cooja/mtype74.a(packetbuf.o)
                0x000000000001442f                packetbuf_copyfrom
 .text.packetbuf_compact
                0x0000000000014481       0x9e obj_cooja/mtype74.a(packetbuf.o)
                0x0000000000014481                packetbuf_compact
 .text.packetbuf_copyto_hdr
                0x000000000001451f       0x5a obj_cooja/mtype74.a(packetbuf.o)
                0x000000000001451f                packetbuf_copyto_hdr
 .text.packetbuf_copyto
                0x0000000000014579       0xe3 obj_cooja/mtype74.a(packetbuf.o)
                0x0000000000014579                packetbuf_copyto
 .text.packetbuf_hdralloc
                0x000000000001465c       0x4a obj_cooja/mtype74.a(packetbuf.o)
                0x000000000001465c                packetbuf_hdralloc
 .text.packetbuf_hdr_remove
                0x00000000000146a6       0x18 obj_cooja/mtype74.a(packetbuf.o)
                0x00000000000146a6                packetbuf_hdr_remove
 .text.packetbuf_hdrreduce
                0x00000000000146be       0x4b obj_cooja/mtype74.a(packetbuf.o)
                0x00000000000146be                packetbuf_hdrreduce
 .text.packetbuf_set_datalen
                0x0000000000014709       0x19 obj_cooja/mtype74.a(packetbuf.o)
                0x0000000000014709                packetbuf_set_datalen
 .text.packetbuf_dataptr
                0x0000000000014722       0x19 obj_cooja/mtype74.a(packetbuf.o)
                0x0000000000014722                packetbuf_dataptr
 .text.packetbuf_hdrptr
                0x000000000001473b       0x17 obj_cooja/mtype74.a(packetbuf.o)
                0x000000000001473b                packetbuf_hdrptr
 .text.packetbuf_reference
                0x0000000000014752       0x26 obj_cooja/mtype74.a(packetbuf.o)
                0x0000000000014752                packetbuf_reference
 .text.packetbuf_is_reference
                0x0000000000014778       0x1a obj_cooja/mtype74.a(packetbuf.o)
                0x0000000000014778                packetbuf_is_reference
 .text.packetbuf_reference_ptr
                0x0000000000014792        0xa obj_cooja/mtype74.a(packetbuf.o)
                0x0000000000014792                packetbuf_reference_ptr
 .text.packetbuf_datalen
                0x000000000001479c        0xc obj_cooja/mtype74.a(packetbuf.o)
                0x000000000001479c                packetbuf_datalen
 .text.packetbuf_hdrlen
                0x00000000000147a8       0x17 obj_cooja/mtype74.a(packetbuf.o)
                0x00000000000147a8                packetbuf_hdrlen
 .text.packetbuf_totlen
                0x00000000000147bf       0x16 obj_cooja/mtype74.a(packetbuf.o)
                0x00000000000147bf                packetbuf_totlen
 .text.packetbuf_attr_clear
                0x00000000000147d5       0x56 obj_cooja/mtype74.a(packetbuf.o)
                0x00000000000147d5                packetbuf_attr_clear
 .text.packetbuf_attr_copyto
                0x000000000001482b       0x9d obj_cooja/mtype74.a(packetbuf.o)
                0x000000000001482b                packetbuf_attr_copyto
 .text.packetbuf_attr_copyfrom
                0x00000000000148c8       0x9c obj_cooja/mtype74.a(packetbuf.o)
                0x00000000000148c8                packetbuf_attr_copyfrom
 .text          0x0000000000014964        0x0 obj_cooja/mtype74.a(queuebuf.o)
 .text.queuebuf_load_to_ram
                0x0000000000014964        0xa obj_cooja/mtype74.a(queuebuf.o)
 .text.queuebuf_init
                0x000000000001496e       0x2c obj_cooja/mtype74.a(queuebuf.o)
                0x000000000001496e                queuebuf_init
 .text.queuebuf_new_from_packetbuf
                0x000000000001499a       0xcb obj_cooja/mtype74.a(queuebuf.o)
                0x000000000001499a                queuebuf_new_from_packetbuf
 .text.queuebuf_update_attr_from_packetbuf
                0x0000000000014a65       0x33 obj_cooja/mtype74.a(queuebuf.o)
                0x0000000000014a65                queuebuf_update_attr_from_packetbuf
 .text.queuebuf_free
                0x0000000000014a98       0x73 obj_cooja/mtype74.a(queuebuf.o)
                0x0000000000014a98                queuebuf_free
 .text.queuebuf_to_packetbuf
                0x0000000000014b0b       0xe8 obj_cooja/mtype74.a(queuebuf.o)
                0x0000000000014b0b                queuebuf_to_packetbuf
 .text.queuebuf_dataptr
                0x0000000000014bf3       0x5f obj_cooja/mtype74.a(queuebuf.o)
                0x0000000000014bf3                queuebuf_dataptr
 .text.queuebuf_datalen
                0x0000000000014c52       0x1f obj_cooja/mtype74.a(queuebuf.o)
                0x0000000000014c52                queuebuf_datalen
 .text.queuebuf_addr
                0x0000000000014c71       0x2f obj_cooja/mtype74.a(queuebuf.o)
                0x0000000000014c71                queuebuf_addr
 .text.queuebuf_attr
                0x0000000000014ca0       0x2b obj_cooja/mtype74.a(queuebuf.o)
                0x0000000000014ca0                queuebuf_attr
 .text.queuebuf_debug_print
                0x0000000000014ccb        0x5 obj_cooja/mtype74.a(queuebuf.o)
                0x0000000000014ccb                queuebuf_debug_print
 .text          0x0000000000014cd0        0x0 obj_cooja/mtype74.a(sicslowpan.o)
 .text.packetbuf_set_attr
                0x0000000000014cd0       0x2a obj_cooja/mtype74.a(sicslowpan.o)
 .text.packetbuf_set_addr
                0x0000000000014cfa       0x32 obj_cooja/mtype74.a(sicslowpan.o)
 .text.packetbuf_addr
                0x0000000000014d2c       0x1d obj_cooja/mtype74.a(sicslowpan.o)
 .text.rime_sniffer_add
                0x0000000000014d49        0xd obj_cooja/mtype74.a(sicslowpan.o)
                0x0000000000014d49                rime_sniffer_add
 .text.rime_sniffer_remove
                0x0000000000014d56        0xf obj_cooja/mtype74.a(sicslowpan.o)
                0x0000000000014d56                rime_sniffer_remove
 .text.set_packet_attrs
                0x0000000000014d65       0xe9 obj_cooja/mtype74.a(sicslowpan.o)
 .text.addr_context_lookup_by_prefix
                0x0000000000014e4e       0x7a obj_cooja/mtype74.a(sicslowpan.o)
 .text.addr_context_lookup_by_number
                0x0000000000014ec8       0x6a obj_cooja/mtype74.a(sicslowpan.o)
 .text.compress_addr_64
                0x0000000000014f32      0x163 obj_cooja/mtype74.a(sicslowpan.o)
 .text.uncompress_addr
                0x0000000000015095      0x12e obj_cooja/mtype74.a(sicslowpan.o)
 .text.compress_hdr_hc06
                0x00000000000151c3      0x942 obj_cooja/mtype74.a(sicslowpan.o)
 .text.uncompress_hdr_hc06
                0x0000000000015b05      0x77d obj_cooja/mtype74.a(sicslowpan.o)
 .text.compress_hdr_ipv6
                0x0000000000016282       0x8d obj_cooja/mtype74.a(sicslowpan.o)
 .text.packet_sent
                0x000000000001630f       0x3b obj_cooja/mtype74.a(sicslowpan.o)
 .text.send_packet
                0x000000000001634a       0x36 obj_cooja/mtype74.a(sicslowpan.o)
 .text.output   0x0000000000016380      0x54f obj_cooja/mtype74.a(sicslowpan.o)
 .text.input    0x00000000000168cf      0x54f obj_cooja/mtype74.a(sicslowpan.o)
 .text.sicslowpan_init
                0x0000000000016e1e       0x57 obj_cooja/mtype74.a(sicslowpan.o)
                0x0000000000016e1e                sicslowpan_init
 *fill*         0x0000000000016e75        0x3 90909090
 .text          0x0000000000016e78        0x0 obj_cooja/mtype74.a(simple-udp.o)
 .text.init_simple_udp
                0x0000000000016e78       0x2e obj_cooja/mtype74.a(simple-udp.o)
 .text.simple_udp_send
                0x0000000000016ea6       0x6d obj_cooja/mtype74.a(simple-udp.o)
                0x0000000000016ea6                simple_udp_send
 .text.simple_udp_sendto
                0x0000000000016f13       0x65 obj_cooja/mtype74.a(simple-udp.o)
                0x0000000000016f13                simple_udp_sendto
 .text.simple_udp_sendto_port
                0x0000000000016f78       0x63 obj_cooja/mtype74.a(simple-udp.o)
                0x0000000000016f78                simple_udp_sendto_port
 .text.simple_udp_register
                0x0000000000016fdb       0xe6 obj_cooja/mtype74.a(simple-udp.o)
                0x0000000000016fdb                simple_udp_register
 .text.process_thread_simple_udp_process
                0x00000000000170c1      0x15b obj_cooja/mtype74.a(simple-udp.o)
 .text          0x000000000001721c        0x0 obj_cooja/mtype74.a(tcpip.o)
 .text.tcpip_output
                0x000000000001721c       0x2f obj_cooja/mtype74.a(tcpip.o)
                0x000000000001721c                tcpip_output
 .text.tcpip_set_outputfunc
                0x000000000001724b        0xd obj_cooja/mtype74.a(tcpip.o)
                0x000000000001724b                tcpip_set_outputfunc
 .text.start_periodic_tcp_timer
                0x0000000000017258       0x24 obj_cooja/mtype74.a(tcpip.o)
 .text.check_for_tcp_syn
                0x000000000001727c       0x2d obj_cooja/mtype74.a(tcpip.o)
 .text.packet_input
                0x00000000000172a9       0x36 obj_cooja/mtype74.a(tcpip.o)
 .text.tcp_connect
                0x00000000000172df       0x55 obj_cooja/mtype74.a(tcpip.o)
                0x00000000000172df                tcp_connect
 .text.tcp_unlisten
                0x0000000000017334       0x6e obj_cooja/mtype74.a(tcpip.o)
                0x0000000000017334                tcp_unlisten
 .text.tcp_listen
                0x00000000000173a2       0x6c obj_cooja/mtype74.a(tcpip.o)
                0x00000000000173a2                tcp_listen
 .text.tcp_attach
                0x000000000001740e       0x25 obj_cooja/mtype74.a(tcpip.o)
                0x000000000001740e                tcp_attach
 .text.udp_attach
                0x0000000000017433       0x25 obj_cooja/mtype74.a(tcpip.o)
                0x0000000000017433                udp_attach
 .text.udp_new  0x0000000000017458       0x52 obj_cooja/mtype74.a(tcpip.o)
                0x0000000000017458                udp_new
 .text.udp_broadcast_new
                0x00000000000174aa       0x92 obj_cooja/mtype74.a(tcpip.o)
                0x00000000000174aa                udp_broadcast_new
 .text.eventhandler
                0x000000000001753c      0x21b obj_cooja/mtype74.a(tcpip.o)
 .text.tcpip_input
                0x0000000000017757       0x34 obj_cooja/mtype74.a(tcpip.o)
                0x0000000000017757                tcpip_input
 .text.tcpip_ipv6_output
                0x000000000001778b      0x483 obj_cooja/mtype74.a(tcpip.o)
                0x000000000001778b                tcpip_ipv6_output
 .text.tcpip_poll_udp
                0x0000000000017c0e       0x23 obj_cooja/mtype74.a(tcpip.o)
                0x0000000000017c0e                tcpip_poll_udp
 .text.tcpip_poll_tcp
                0x0000000000017c31       0x23 obj_cooja/mtype74.a(tcpip.o)
                0x0000000000017c31                tcpip_poll_tcp
 .text.tcpip_uipcall
                0x0000000000017c54       0xd0 obj_cooja/mtype74.a(tcpip.o)
                0x0000000000017c54                tcpip_uipcall
 .text.process_thread_tcpip_process
                0x0000000000017d24       0xd3 obj_cooja/mtype74.a(tcpip.o)
 *fill*         0x0000000000017df7        0x1 90909090
 .text          0x0000000000017df8        0x0 obj_cooja/mtype74.a(uip-debug.o)
 .text.uip_debug_ipaddr_print
                0x0000000000017df8       0xd3 obj_cooja/mtype74.a(uip-debug.o)
                0x0000000000017df8                uip_debug_ipaddr_print
 .text.uip_debug_lladdr_print
                0x0000000000017ecb       0x4d obj_cooja/mtype74.a(uip-debug.o)
                0x0000000000017ecb                uip_debug_lladdr_print
 .text          0x0000000000017f18        0x0 obj_cooja/mtype74.a(uip-ds6-route.o)
 .text.call_route_callback
                0x0000000000017f18       0x77 obj_cooja/mtype74.a(uip-ds6-route.o)
 .text.uip_ds6_notification_add
                0x0000000000017f8f       0x31 obj_cooja/mtype74.a(uip-ds6-route.o)
                0x0000000000017f8f                uip_ds6_notification_add
 .text.uip_ds6_notification_rm
                0x0000000000017fc0       0x1c obj_cooja/mtype74.a(uip-ds6-route.o)
                0x0000000000017fc0                uip_ds6_notification_rm
 .text.uip_ds6_route_init
                0x0000000000017fdc       0x4f obj_cooja/mtype74.a(uip-ds6-route.o)
                0x0000000000017fdc                uip_ds6_route_init
 .text.uip_ds6_route_nexthop_lladdr
                0x000000000001802b       0x2c obj_cooja/mtype74.a(uip-ds6-route.o)
 .text.uip_ds6_route_nexthop
                0x0000000000018057       0x28 obj_cooja/mtype74.a(uip-ds6-route.o)
                0x0000000000018057                uip_ds6_route_nexthop
 .text.uip_ds6_route_head
                0x000000000001807f       0x41 obj_cooja/mtype74.a(uip-ds6-route.o)
                0x000000000001807f                uip_ds6_route_head
 .text.uip_ds6_route_next
                0x00000000000180c0       0x5c obj_cooja/mtype74.a(uip-ds6-route.o)
                0x00000000000180c0                uip_ds6_route_next
 .text.uip_ds6_route_num_routes
                0x000000000001811c        0xa obj_cooja/mtype74.a(uip-ds6-route.o)
                0x000000000001811c                uip_ds6_route_num_routes
 .text.uip_ds6_route_lookup
                0x0000000000018126       0x7a obj_cooja/mtype74.a(uip-ds6-route.o)
                0x0000000000018126                uip_ds6_route_lookup
 .text.uip_ds6_route_add
                0x00000000000181a0      0x150 obj_cooja/mtype74.a(uip-ds6-route.o)
                0x00000000000181a0                uip_ds6_route_add
 .text.uip_ds6_route_rm
                0x00000000000182f0       0xac obj_cooja/mtype74.a(uip-ds6-route.o)
                0x00000000000182f0                uip_ds6_route_rm
 .text.rm_routelist
                0x000000000001839c       0x61 obj_cooja/mtype74.a(uip-ds6-route.o)
 .text.rm_routelist_callback
                0x00000000000183fd       0x13 obj_cooja/mtype74.a(uip-ds6-route.o)
 .text.uip_ds6_route_rm_by_nexthop
                0x0000000000018410       0x38 obj_cooja/mtype74.a(uip-ds6-route.o)
                0x0000000000018410                uip_ds6_route_rm_by_nexthop
 .text.uip_ds6_defrt_add
                0x0000000000018448       0xb1 obj_cooja/mtype74.a(uip-ds6-route.o)
                0x0000000000018448                uip_ds6_defrt_add
 .text.uip_ds6_defrt_rm
                0x00000000000184f9       0x7f obj_cooja/mtype74.a(uip-ds6-route.o)
                0x00000000000184f9                uip_ds6_defrt_rm
 .text.uip_ds6_defrt_lookup
                0x0000000000018578       0x59 obj_cooja/mtype74.a(uip-ds6-route.o)
                0x0000000000018578                uip_ds6_defrt_lookup
 .text.uip_ds6_defrt_choose
                0x00000000000185d1       0x6b obj_cooja/mtype74.a(uip-ds6-route.o)
                0x00000000000185d1                uip_ds6_defrt_choose
 .text.uip_ds6_defrt_periodic
                0x000000000001863c       0x68 obj_cooja/mtype74.a(uip-ds6-route.o)
                0x000000000001863c                uip_ds6_defrt_periodic
 .text          0x00000000000186a4        0x0 obj_cooja/mtype74.a(uip-ds6-nbr.o)
 .text.packetbuf_addr
                0x00000000000186a4       0x1d obj_cooja/mtype74.a(uip-ds6-nbr.o)
 .text.uip_ds6_neighbors_init
                0x00000000000186c1       0x1d obj_cooja/mtype74.a(uip-ds6-nbr.o)
                0x00000000000186c1                uip_ds6_neighbors_init
 .text.uip_ds6_nbr_add
                0x00000000000186de       0xbb obj_cooja/mtype74.a(uip-ds6-nbr.o)
                0x00000000000186de                uip_ds6_nbr_add
 .text.uip_ds6_nbr_rm
                0x0000000000018799       0x3b obj_cooja/mtype74.a(uip-ds6-nbr.o)
                0x0000000000018799                uip_ds6_nbr_rm
 .text.uip_ds6_nbr_get_ipaddr
                0x00000000000187d4       0x15 obj_cooja/mtype74.a(uip-ds6-nbr.o)
                0x00000000000187d4                uip_ds6_nbr_get_ipaddr
 .text.uip_ds6_nbr_get_ll
                0x00000000000187e9       0x1c obj_cooja/mtype74.a(uip-ds6-nbr.o)
                0x00000000000187e9                uip_ds6_nbr_get_ll
 .text.uip_ds6_nbr_num
                0x0000000000018805       0x45 obj_cooja/mtype74.a(uip-ds6-nbr.o)
                0x0000000000018805                uip_ds6_nbr_num
 .text.uip_ds6_nbr_lookup
                0x000000000001884a       0x65 obj_cooja/mtype74.a(uip-ds6-nbr.o)
                0x000000000001884a                uip_ds6_nbr_lookup
 .text.uip_ds6_nbr_ll_lookup
                0x00000000000188af       0x1c obj_cooja/mtype74.a(uip-ds6-nbr.o)
                0x00000000000188af                uip_ds6_nbr_ll_lookup
 .text.uip_ds6_nbr_ipaddr_from_lladdr
                0x00000000000188cb       0x26 obj_cooja/mtype74.a(uip-ds6-nbr.o)
                0x00000000000188cb                uip_ds6_nbr_ipaddr_from_lladdr
 .text.uip_ds6_nbr_lladdr_from_ipaddr
                0x00000000000188f1       0x2e obj_cooja/mtype74.a(uip-ds6-nbr.o)
                0x00000000000188f1                uip_ds6_nbr_lladdr_from_ipaddr
 .text.uip_ds6_link_neighbor_callback
                0x000000000001891f       0x4a obj_cooja/mtype74.a(uip-ds6-nbr.o)
                0x000000000001891f                uip_ds6_link_neighbor_callback
 .text.uip_ds6_neighbor_periodic
                0x0000000000018969      0x22a obj_cooja/mtype74.a(uip-ds6-nbr.o)
                0x0000000000018969                uip_ds6_neighbor_periodic
 .text.uip_ds6_get_least_lifetime_neighbor
                0x0000000000018b93       0x79 obj_cooja/mtype74.a(uip-ds6-nbr.o)
                0x0000000000018b93                uip_ds6_get_least_lifetime_neighbor
 .text          0x0000000000018c0c        0x0 obj_cooja/mtype74.a(uip-ds6.o)
 .text.uip_ds6_init
                0x0000000000018c0c      0x1cb obj_cooja/mtype74.a(uip-ds6.o)
                0x0000000000018c0c                uip_ds6_init
 .text.uip_ds6_periodic
                0x0000000000018dd7       0x7d obj_cooja/mtype74.a(uip-ds6.o)
                0x0000000000018dd7                uip_ds6_periodic
 .text.uip_ds6_list_loop
                0x0000000000018e54       0xa3 obj_cooja/mtype74.a(uip-ds6.o)
                0x0000000000018e54                uip_ds6_list_loop
 .text.uip_ds6_prefix_add
                0x0000000000018ef7       0xbe obj_cooja/mtype74.a(uip-ds6.o)
                0x0000000000018ef7                uip_ds6_prefix_add
 .text.uip_ds6_prefix_rm
                0x0000000000018fb5       0x11 obj_cooja/mtype74.a(uip-ds6.o)
                0x0000000000018fb5                uip_ds6_prefix_rm
 .text.uip_ds6_prefix_lookup
                0x0000000000018fc6       0x51 obj_cooja/mtype74.a(uip-ds6.o)
                0x0000000000018fc6                uip_ds6_prefix_lookup
 .text.uip_ds6_is_addr_onlink
                0x0000000000019017       0x74 obj_cooja/mtype74.a(uip-ds6.o)
                0x0000000000019017                uip_ds6_is_addr_onlink
 .text.uip_ds6_addr_add
                0x000000000001908b      0x12e obj_cooja/mtype74.a(uip-ds6.o)
                0x000000000001908b                uip_ds6_addr_add
 .text.uip_ds6_addr_rm
                0x00000000000191b9       0x9f obj_cooja/mtype74.a(uip-ds6.o)
                0x00000000000191b9                uip_ds6_addr_rm
 .text.uip_ds6_addr_lookup
                0x0000000000019258       0x4b obj_cooja/mtype74.a(uip-ds6.o)
                0x0000000000019258                uip_ds6_addr_lookup
 .text.uip_ds6_get_link_local
                0x00000000000192a3       0x7f obj_cooja/mtype74.a(uip-ds6.o)
                0x00000000000192a3                uip_ds6_get_link_local
 .text.uip_ds6_get_global
                0x0000000000019322       0x7f obj_cooja/mtype74.a(uip-ds6.o)
                0x0000000000019322                uip_ds6_get_global
 .text.uip_ds6_maddr_add
                0x00000000000193a1       0x72 obj_cooja/mtype74.a(uip-ds6.o)
                0x00000000000193a1                uip_ds6_maddr_add
 .text.uip_ds6_maddr_rm
                0x0000000000019413       0x11 obj_cooja/mtype74.a(uip-ds6.o)
                0x0000000000019413                uip_ds6_maddr_rm
 .text.uip_ds6_maddr_lookup
                0x0000000000019424       0x4b obj_cooja/mtype74.a(uip-ds6.o)
                0x0000000000019424                uip_ds6_maddr_lookup
 .text.uip_ds6_aaddr_add
                0x000000000001946f       0x72 obj_cooja/mtype74.a(uip-ds6.o)
                0x000000000001946f                uip_ds6_aaddr_add
 .text.uip_ds6_aaddr_rm
                0x00000000000194e1       0x11 obj_cooja/mtype74.a(uip-ds6.o)
                0x00000000000194e1                uip_ds6_aaddr_rm
 .text.uip_ds6_aaddr_lookup
                0x00000000000194f2       0x4b obj_cooja/mtype74.a(uip-ds6.o)
                0x00000000000194f2                uip_ds6_aaddr_lookup
 .text.uip_ds6_select_src
                0x000000000001953d      0x145 obj_cooja/mtype74.a(uip-ds6.o)
                0x000000000001953d                uip_ds6_select_src
 .text.uip_ds6_set_addr_iid
                0x0000000000019682       0x2a obj_cooja/mtype74.a(uip-ds6.o)
                0x0000000000019682                uip_ds6_set_addr_iid
 .text.get_match_length
                0x00000000000196ac       0x7f obj_cooja/mtype74.a(uip-ds6.o)
                0x00000000000196ac                get_match_length
 .text.uip_ds6_compute_reachable_time
                0x000000000001972b       0x4c obj_cooja/mtype74.a(uip-ds6.o)
                0x000000000001972b                uip_ds6_compute_reachable_time
 *fill*         0x0000000000019777        0x1 90909090
 .text          0x0000000000019778        0x0 obj_cooja/mtype74.a(uip-icmp6.o)
 .text.uip_icmp6_echo_request_input
                0x0000000000019778      0x2b5 obj_cooja/mtype74.a(uip-icmp6.o)
                0x0000000000019778                uip_icmp6_echo_request_input
 .text.uip_icmp6_error_output
                0x0000000000019a2d      0x32b obj_cooja/mtype74.a(uip-icmp6.o)
                0x0000000000019a2d                uip_icmp6_error_output
 .text.uip_icmp6_send
                0x0000000000019d58      0x10a obj_cooja/mtype74.a(uip-icmp6.o)
                0x0000000000019d58                uip_icmp6_send
 *fill*         0x0000000000019e62        0x2 90909090
 .text          0x0000000000019e64        0x0 obj_cooja/mtype74.a(uip-nd6.o)
 .text.create_llao
                0x0000000000019e64       0x48 obj_cooja/mtype74.a(uip-nd6.o)
 .text.uip_nd6_ns_input
                0x0000000000019eac      0x5b4 obj_cooja/mtype74.a(uip-nd6.o)
                0x0000000000019eac                uip_nd6_ns_input
 .text.uip_nd6_ns_output
                0x000000000001a460      0x2f8 obj_cooja/mtype74.a(uip-nd6.o)
                0x000000000001a460                uip_nd6_ns_output
 .text.uip_nd6_na_input
                0x000000000001a758      0x467 obj_cooja/mtype74.a(uip-nd6.o)
                0x000000000001a758                uip_nd6_na_input
 *fill*         0x000000000001abbf        0x1 90909090
 .text          0x000000000001abc0        0x0 obj_cooja/mtype74.a(uip-packetqueue)
 .text.packet_timedout
                0x000000000001abc0       0x2c obj_cooja/mtype74.a(uip-packetqueue)
 .text.uip_packetqueue_new
                0x000000000001abec        0xe obj_cooja/mtype74.a(uip-packetqueue)
                0x000000000001abec                uip_packetqueue_new
 .text.uip_packetqueue_alloc
                0x000000000001abfa       0x60 obj_cooja/mtype74.a(uip-packetqueue)
                0x000000000001abfa                uip_packetqueue_alloc
 .text.uip_packetqueue_free
                0x000000000001ac5a       0x41 obj_cooja/mtype74.a(uip-packetqueue)
                0x000000000001ac5a                uip_packetqueue_free
 .text.uip_packetqueue_buf
                0x000000000001ac9b       0x1d obj_cooja/mtype74.a(uip-packetqueue)
                0x000000000001ac9b                uip_packetqueue_buf
 .text.uip_packetqueue_buflen
                0x000000000001acb8       0x21 obj_cooja/mtype74.a(uip-packetqueue)
                0x000000000001acb8                uip_packetqueue_buflen
 .text.uip_packetqueue_set_buflen
                0x000000000001acd9       0x28 obj_cooja/mtype74.a(uip-packetqueue)
                0x000000000001acd9                uip_packetqueue_set_buflen
 *fill*         0x000000000001ad01        0x3 90909090
 .text          0x000000000001ad04        0x0 obj_cooja/mtype74.a(uip-udp-packet.)
 .text.uip_udp_packet_send
                0x000000000001ad04       0x63 obj_cooja/mtype74.a(uip-udp-packet.)
                0x000000000001ad04                uip_udp_packet_send
 .text.uip_udp_packet_sendto
                0x000000000001ad67       0xd1 obj_cooja/mtype74.a(uip-udp-packet.)
                0x000000000001ad67                uip_udp_packet_sendto
 .text          0x000000000001ae38        0x0 obj_cooja/mtype74.a(uip6.o)
 .text.uip_add32
                0x000000000001ae38       0xed obj_cooja/mtype74.a(uip6.o)
                0x000000000001ae38                uip_add32
 .text.chksum   0x000000000001af25       0xa1 obj_cooja/mtype74.a(uip6.o)
 .text.uip_chksum
                0x000000000001afc6       0x35 obj_cooja/mtype74.a(uip6.o)
                0x000000000001afc6                uip_chksum
 .text.upper_layer_chksum
                0x000000000001affb       0xbc obj_cooja/mtype74.a(uip6.o)
 .text.uip_icmp6chksum
                0x000000000001b0b7       0x14 obj_cooja/mtype74.a(uip6.o)
                0x000000000001b0b7                uip_icmp6chksum
 .text.uip_tcpchksum
                0x000000000001b0cb       0x14 obj_cooja/mtype74.a(uip6.o)
                0x000000000001b0cb                uip_tcpchksum
 .text.uip_udpchksum
                0x000000000001b0df       0x14 obj_cooja/mtype74.a(uip6.o)
                0x000000000001b0df                uip_udpchksum
 .text.uip_init
                0x000000000001b0f3       0xc6 obj_cooja/mtype74.a(uip6.o)
                0x000000000001b0f3                uip_init
 .text.uip_connect
                0x000000000001b1b9      0x1b0 obj_cooja/mtype74.a(uip6.o)
                0x000000000001b1b9                uip_connect
 .text.remove_ext_hdr
                0x000000000001b369       0xda obj_cooja/mtype74.a(uip6.o)
                0x000000000001b369                remove_ext_hdr
 .text.uip_udp_new
                0x000000000001b443      0x160 obj_cooja/mtype74.a(uip6.o)
                0x000000000001b443                uip_udp_new
 .text.uip_unlisten
                0x000000000001b5a3       0x60 obj_cooja/mtype74.a(uip6.o)
                0x000000000001b5a3                uip_unlisten
 .text.uip_listen
                0x000000000001b603       0x61 obj_cooja/mtype74.a(uip6.o)
                0x000000000001b603                uip_listen
 .text.uip_add_rcv_nxt
                0x000000000001b664       0x64 obj_cooja/mtype74.a(uip6.o)
 .text.ext_hdr_options_process
                0x000000000001b6c8      0x1fd obj_cooja/mtype74.a(uip6.o)
 .text.uip_process
                0x000000000001b8c5     0x1dd3 obj_cooja/mtype74.a(uip6.o)
                0x000000000001b8c5                uip_process
 .text.uip_htons
                0x000000000001d698       0x22 obj_cooja/mtype74.a(uip6.o)
                0x000000000001d698                uip_htons
 .text.uip_htonl
                0x000000000001d6ba       0x40 obj_cooja/mtype74.a(uip6.o)
                0x000000000001d6ba                uip_htonl
 .text.uip_send
                0x000000000001d6fa       0x60 obj_cooja/mtype74.a(uip6.o)
                0x000000000001d6fa                uip_send
 *fill*         0x000000000001d75a        0x2 90909090
 .text          0x000000000001d75c        0x0 obj_cooja/mtype74.a(servreg-hack.o)
 .text.purge_registrations
                0x000000000001d75c       0xd5 obj_cooja/mtype74.a(servreg-hack.o)
 .text.servreg_hack_init
                0x000000000001d831       0x54 obj_cooja/mtype74.a(servreg-hack.o)
                0x000000000001d831                servreg_hack_init
 .text.servreg_hack_register
                0x000000000001d885      0x125 obj_cooja/mtype74.a(servreg-hack.o)
                0x000000000001d885                servreg_hack_register
 .text.servreg_hack_list_head
                0x000000000001d9aa       0x1a obj_cooja/mtype74.a(servreg-hack.o)
                0x000000000001d9aa                servreg_hack_list_head
 .text.servreg_hack_item_id
                0x000000000001d9c4        0xc obj_cooja/mtype74.a(servreg-hack.o)
                0x000000000001d9c4                servreg_hack_item_id
 .text.servreg_hack_item_address
                0x000000000001d9d0        0xb obj_cooja/mtype74.a(servreg-hack.o)
                0x000000000001d9d0                servreg_hack_item_address
 .text.servreg_hack_lookup
                0x000000000001d9db       0x58 obj_cooja/mtype74.a(servreg-hack.o)
                0x000000000001d9db                servreg_hack_lookup
 .text.handle_incoming_reg
                0x000000000001da33      0x12d obj_cooja/mtype74.a(servreg-hack.o)
 .text.send_udp_packet
                0x000000000001db60      0x1b8 obj_cooja/mtype74.a(servreg-hack.o)
 .text.parse_incoming_packet
                0x000000000001dd18       0x73 obj_cooja/mtype74.a(servreg-hack.o)
 .text.process_thread_servreg_hack_process
                0x000000000001dd8b      0x1ae obj_cooja/mtype74.a(servreg-hack.o)
 *fill*         0x000000000001df39        0x3 90909090
 .text          0x000000000001df3c        0x0 obj_cooja/mtype74.a(simEnvChange.o)
 .text.doActionsBeforeTick
                0x000000000001df3c       0x31 obj_cooja/mtype74.a(simEnvChange.o)
                0x000000000001df3c                doActionsBeforeTick
 .text.doActionsAfterTick
                0x000000000001df6d       0x32 obj_cooja/mtype74.a(simEnvChange.o)
                0x000000000001df6d                doActionsAfterTick
 *fill*         0x000000000001df9f        0x1 90909090
 .text          0x000000000001dfa0        0x0 obj_cooja/mtype74.a(cooja_mt.o)
 .text.cooja_mt_init
                0x000000000001dfa0        0xd obj_cooja/mtype74.a(cooja_mt.o)
                0x000000000001dfa0                cooja_mt_init
 .text.cooja_mt_remove
                0x000000000001dfad        0xd obj_cooja/mtype74.a(cooja_mt.o)
                0x000000000001dfad                cooja_mt_remove
 .text.cooja_mt_start
                0x000000000001dfba       0x2d obj_cooja/mtype74.a(cooja_mt.o)
                0x000000000001dfba                cooja_mt_start
 .text.cooja_mt_exec
                0x000000000001dfe7       0x31 obj_cooja/mtype74.a(cooja_mt.o)
                0x000000000001dfe7                cooja_mt_exec
 .text.cooja_mt_exit
                0x000000000001e018       0x22 obj_cooja/mtype74.a(cooja_mt.o)
                0x000000000001e018                cooja_mt_exit
 .text.cooja_mt_yield
                0x000000000001e03a       0x22 obj_cooja/mtype74.a(cooja_mt.o)
                0x000000000001e03a                cooja_mt_yield
 .text          0x000000000001e05c        0x0 obj_cooja/mtype74.a(cooja_mtarch.o)
 .text.cooja_mtarch_init
                0x000000000001e05c        0x5 obj_cooja/mtype74.a(cooja_mtarch.o)
                0x000000000001e05c                cooja_mtarch_init
 .text.cooja_mtarch_start
                0x000000000001e061       0xc1 obj_cooja/mtype74.a(cooja_mtarch.o)
                0x000000000001e061                cooja_mtarch_start
 .text.cooja_sw
                0x000000000001e122       0x22 obj_cooja/mtype74.a(cooja_mtarch.o)
                0x000000000001e122                cooja_sw
 .text.cooja_mtarch_exec
                0x000000000001e144       0x1c obj_cooja/mtype74.a(cooja_mtarch.o)
                0x000000000001e144                cooja_mtarch_exec
 .text.cooja_mtarch_remove
                0x000000000001e160        0x5 obj_cooja/mtype74.a(cooja_mtarch.o)
                0x000000000001e160                cooja_mtarch_remove
 .text.cooja_mtarch_yield
                0x000000000001e165        0xa obj_cooja/mtype74.a(cooja_mtarch.o)
                0x000000000001e165                cooja_mtarch_yield
 .text.cooja_mtarch_pstop
                0x000000000001e16f        0x5 obj_cooja/mtype74.a(cooja_mtarch.o)
                0x000000000001e16f                cooja_mtarch_pstop
 .text.cooja_mtarch_pstart
                0x000000000001e174        0x5 obj_cooja/mtype74.a(cooja_mtarch.o)
                0x000000000001e174                cooja_mtarch_pstart
 .text.cooja_mtarch_stack_usage
                0x000000000001e179       0x3e obj_cooja/mtype74.a(cooja_mtarch.o)
                0x000000000001e179                cooja_mtarch_stack_usage
 *fill*         0x000000000001e1b7        0x1 90909090
 .text          0x000000000001e1b8        0x0 obj_cooja/mtype74.a(rtimer-arch.o)
 .text.rtimer_arch_init
                0x000000000001e1b8       0x23 obj_cooja/mtype74.a(rtimer-arch.o)
                0x000000000001e1b8                rtimer_arch_init
 .text.rtimer_arch_schedule
                0x000000000001e1db       0x17 obj_cooja/mtype74.a(rtimer-arch.o)
                0x000000000001e1db                rtimer_arch_schedule
 .text.rtimer_arch_next
                0x000000000001e1f2        0xa obj_cooja/mtype74.a(rtimer-arch.o)
                0x000000000001e1f2                rtimer_arch_next
 .text.rtimer_arch_pending
                0x000000000001e1fc        0xa obj_cooja/mtype74.a(rtimer-arch.o)
                0x000000000001e1fc                rtimer_arch_pending
 .text.rtimer_arch_check
                0x000000000001e206       0x32 obj_cooja/mtype74.a(rtimer-arch.o)
                0x000000000001e206                rtimer_arch_check
 .text.rtimer_arch_now
                0x000000000001e238       0x42 obj_cooja/mtype74.a(rtimer-arch.o)
                0x000000000001e238                rtimer_arch_now
 *fill*         0x000000000001e27a        0x2 90909090
 .text          0x000000000001e27c        0x0 obj_cooja/mtype74.a(watchdog.o)
 .text.watchdog_init
                0x000000000001e27c        0x5 obj_cooja/mtype74.a(watchdog.o)
                0x000000000001e27c                watchdog_init
 .text.watchdog_start
                0x000000000001e281        0x5 obj_cooja/mtype74.a(watchdog.o)
                0x000000000001e281                watchdog_start
 .text.watchdog_periodic
                0x000000000001e286        0x5 obj_cooja/mtype74.a(watchdog.o)
                0x000000000001e286                watchdog_periodic
 .text.watchdog_stop
                0x000000000001e28b        0x5 obj_cooja/mtype74.a(watchdog.o)
                0x000000000001e28b                watchdog_stop
 .text.watchdog_reboot
                0x000000000001e290        0x5 obj_cooja/mtype74.a(watchdog.o)
                0x000000000001e290                watchdog_reboot
 *fill*         0x000000000001e295        0x3 90909090
 .text          0x000000000001e298        0x0 obj_cooja/mtype74.a(beep.o)
 .text.beep_alarm
                0x000000000001e298        0xc obj_cooja/mtype74.a(beep.o)
                0x000000000001e298                beep_alarm
 .text.beep_beep
                0x000000000001e2a4        0xc obj_cooja/mtype74.a(beep.o)
                0x000000000001e2a4                beep_beep
 .text.beep     0x000000000001e2b0        0xc obj_cooja/mtype74.a(beep.o)
                0x000000000001e2b0                beep
 .text.beep_down
                0x000000000001e2bc        0xc obj_cooja/mtype74.a(beep.o)
                0x000000000001e2bc                beep_down
 .text.beep_on  0x000000000001e2c8        0xc obj_cooja/mtype74.a(beep.o)
                0x000000000001e2c8                beep_on
 .text.beep_off
                0x000000000001e2d4        0xc obj_cooja/mtype74.a(beep.o)
                0x000000000001e2d4                beep_off
 .text.beep_spinup
                0x000000000001e2e0        0xc obj_cooja/mtype74.a(beep.o)
                0x000000000001e2e0                beep_spinup
 .text.beep_quick
                0x000000000001e2ec        0xc obj_cooja/mtype74.a(beep.o)
                0x000000000001e2ec                beep_quick
 .text.beep_long
                0x000000000001e2f8        0xc obj_cooja/mtype74.a(beep.o)
                0x000000000001e2f8                beep_long
 .text.doInterfaceActionsBeforeTick
                0x000000000001e304        0x5 obj_cooja/mtype74.a(beep.o)
 .text.doInterfaceActionsAfterTick
                0x000000000001e309        0x5 obj_cooja/mtype74.a(beep.o)
 *fill*         0x000000000001e30e        0x2 90909090
 .text          0x000000000001e310        0x0 obj_cooja/mtype74.a(button-sensor.o)
 .text.value    0x000000000001e310       0x2f obj_cooja/mtype74.a(button-sensor.o)
 .text.configure
                0x000000000001e33f       0x50 obj_cooja/mtype74.a(button-sensor.o)
 .text.status   0x000000000001e38f       0x1f obj_cooja/mtype74.a(button-sensor.o)
 .text.doInterfaceActionsBeforeTick
                0x000000000001e3ae       0x60 obj_cooja/mtype74.a(button-sensor.o)
 .text.doInterfaceActionsAfterTick
                0x000000000001e40e        0x5 obj_cooja/mtype74.a(button-sensor.o)
 *fill*         0x000000000001e413        0x1 90909090
 .text          0x000000000001e414        0x0 obj_cooja/mtype74.a(leds-arch.o)
 .text.leds_arch_init
                0x000000000001e414        0xc obj_cooja/mtype74.a(leds-arch.o)
                0x000000000001e414                leds_arch_init
 .text.leds_arch_get
                0x000000000001e420        0xc obj_cooja/mtype74.a(leds-arch.o)
                0x000000000001e420                leds_arch_get
 .text.leds_arch_set
                0x000000000001e42c       0x23 obj_cooja/mtype74.a(leds-arch.o)
                0x000000000001e42c                leds_arch_set
 .text.doInterfaceActionsBeforeTick
                0x000000000001e44f        0x5 obj_cooja/mtype74.a(leds-arch.o)
 .text.doInterfaceActionsAfterTick
                0x000000000001e454        0x5 obj_cooja/mtype74.a(leds-arch.o)
 *fill*         0x000000000001e459        0x3 90909090
 .text          0x000000000001e45c        0x0 obj_cooja/mtype74.a(moteid.o)
 .text.doInterfaceActionsBeforeTick
                0x000000000001e45c       0x2a obj_cooja/mtype74.a(moteid.o)
 .text.doInterfaceActionsAfterTick
                0x000000000001e486        0x5 obj_cooja/mtype74.a(moteid.o)
 *fill*         0x000000000001e48b        0x1 90909090
 .text          0x000000000001e48c        0x0 obj_cooja/mtype74.a(pir-sensor.o)
 .text.value    0x000000000001e48c        0xf obj_cooja/mtype74.a(pir-sensor.o)
 .text.configure
                0x000000000001e49b       0x3a obj_cooja/mtype74.a(pir-sensor.o)
 .text.status   0x000000000001e4d5       0x23 obj_cooja/mtype74.a(pir-sensor.o)
 .text.doInterfaceActionsBeforeTick
                0x000000000001e4f8       0x40 obj_cooja/mtype74.a(pir-sensor.o)
 .text.doInterfaceActionsAfterTick
                0x000000000001e538        0x5 obj_cooja/mtype74.a(pir-sensor.o)
 *fill*         0x000000000001e53d        0x3 90909090
 .text          0x000000000001e540        0x0 obj_cooja/mtype74.a(rs232.o)
 .text.rs232_init
                0x000000000001e540        0x5 obj_cooja/mtype74.a(rs232.o)
                0x000000000001e540                rs232_init
 .text.rs232_set_speed
                0x000000000001e545        0xe obj_cooja/mtype74.a(rs232.o)
                0x000000000001e545                rs232_set_speed
 .text.rs232_set_input
                0x000000000001e553        0xd obj_cooja/mtype74.a(rs232.o)
                0x000000000001e553                rs232_set_input
 .text.rs232_send
                0x000000000001e560       0x23 obj_cooja/mtype74.a(rs232.o)
                0x000000000001e560                rs232_send
 .text.rs232_print
                0x000000000001e583       0x1c obj_cooja/mtype74.a(rs232.o)
                0x000000000001e583                rs232_print
 .text.slip_arch_writeb
                0x000000000001e59f       0x1a obj_cooja/mtype74.a(rs232.o)
                0x000000000001e59f                slip_arch_writeb
 .text.doInterfaceActionsBeforeTick
                0x000000000001e5b9       0xb4 obj_cooja/mtype74.a(rs232.o)
 .text.doInterfaceActionsAfterTick
                0x000000000001e66d        0x5 obj_cooja/mtype74.a(rs232.o)
 *fill*         0x000000000001e672        0x2 90909090
 .text          0x000000000001e674        0x0 obj_cooja/mtype74.a(vib-sensor.o)
 .text.value    0x000000000001e674        0xf obj_cooja/mtype74.a(vib-sensor.o)
 .text.configure
                0x000000000001e683       0x3a obj_cooja/mtype74.a(vib-sensor.o)
 .text.status   0x000000000001e6bd       0x23 obj_cooja/mtype74.a(vib-sensor.o)
 .text.doInterfaceActionsBeforeTick
                0x000000000001e6e0       0x40 obj_cooja/mtype74.a(vib-sensor.o)
 .text.doInterfaceActionsAfterTick
                0x000000000001e720        0x5 obj_cooja/mtype74.a(vib-sensor.o)
 *fill*         0x000000000001e725        0x3 90909090
 .text          0x000000000001e728        0x0 obj_cooja/mtype74.a(clock.o)
 .text.clock_init
                0x000000000001e728        0x5 obj_cooja/mtype74.a(clock.o)
                0x000000000001e728                clock_init
 .text.clock_time
                0x000000000001e72d        0xa obj_cooja/mtype74.a(clock.o)
                0x000000000001e72d                clock_time
 .text.clock_seconds
                0x000000000001e737       0x1f obj_cooja/mtype74.a(clock.o)
                0x000000000001e737                clock_seconds
 .text.clock_delay
                0x000000000001e756        0x5 obj_cooja/mtype74.a(clock.o)
                0x000000000001e756                clock_delay
 .text.doInterfaceActionsBeforeTick
                0x000000000001e75b        0x5 obj_cooja/mtype74.a(clock.o)
 .text.doInterfaceActionsAfterTick
                0x000000000001e760        0x5 obj_cooja/mtype74.a(clock.o)
 *fill*         0x000000000001e765        0x3 90909090
 .text          0x000000000001e768        0x0 obj_cooja/mtype74.a(log.o)
 .text.simlog_char
                0x000000000001e768       0x43 obj_cooja/mtype74.a(log.o)
                0x000000000001e768                simlog_char
 .text.simlog   0x000000000001e7ab       0xb1 obj_cooja/mtype74.a(log.o)
                0x000000000001e7ab                simlog
 .text.log_message
                0x000000000001e85c       0x1e obj_cooja/mtype74.a(log.o)
                0x000000000001e85c                log_message
 .text.doInterfaceActionsBeforeTick
                0x000000000001e87a        0x5 obj_cooja/mtype74.a(log.o)
 .text.doInterfaceActionsAfterTick
                0x000000000001e87f        0x5 obj_cooja/mtype74.a(log.o)
 .text.log_set_putchar_with_slip
                0x000000000001e884        0xd obj_cooja/mtype74.a(log.o)
                0x000000000001e884                log_set_putchar_with_slip
 .text.putchar  0x000000000001e891       0x84 obj_cooja/mtype74.a(log.o)
                0x000000000001e891                log_putchar
 .text.puts     0x000000000001e915       0x24 obj_cooja/mtype74.a(log.o)
                0x000000000001e915                log_puts
 .text.printf   0x000000000001e939       0x63 obj_cooja/mtype74.a(log.o)
                0x000000000001e939                log_printf
 .text          0x000000000001e99c        0x0 obj_cooja/mtype74.a(cfs-cooja.o)
 .text.cfs_open
                0x000000000001e99c       0x4b obj_cooja/mtype74.a(cfs-cooja.o)
                0x000000000001e99c                cfs_open
 .text.cfs_close
                0x000000000001e9e7        0xc obj_cooja/mtype74.a(cfs-cooja.o)
                0x000000000001e9e7                cfs_close
 .text.cfs_read
                0x000000000001e9f3       0x93 obj_cooja/mtype74.a(cfs-cooja.o)
                0x000000000001e9f3                cfs_read
 .text.cfs_write
                0x000000000001ea86       0xbb obj_cooja/mtype74.a(cfs-cooja.o)
                0x000000000001ea86                cfs_write
 .text.cfs_seek
                0x000000000001eb41       0x82 obj_cooja/mtype74.a(cfs-cooja.o)
                0x000000000001eb41                cfs_seek
 .text.cfs_remove
                0x000000000001ebc3       0x23 obj_cooja/mtype74.a(cfs-cooja.o)
                0x000000000001ebc3                cfs_remove
 .text.cfs_opendir
                0x000000000001ebe6        0xa obj_cooja/mtype74.a(cfs-cooja.o)
                0x000000000001ebe6                cfs_opendir
 .text.cfs_readdir
                0x000000000001ebf0        0xa obj_cooja/mtype74.a(cfs-cooja.o)
                0x000000000001ebf0                cfs_readdir
 .text.cfs_closedir
                0x000000000001ebfa        0x5 obj_cooja/mtype74.a(cfs-cooja.o)
                0x000000000001ebfa                cfs_closedir
 .text.doInterfaceActionsBeforeTick
                0x000000000001ebff        0x5 obj_cooja/mtype74.a(cfs-cooja.o)
 .text.doInterfaceActionsAfterTick
                0x000000000001ec04        0x5 obj_cooja/mtype74.a(cfs-cooja.o)
 *fill*         0x000000000001ec09        0x3 90909090
 .text          0x000000000001ec0c        0x0 obj_cooja/mtype74.a(cooja-radio.o)
 .text.radio_set_channel
                0x000000000001ec0c        0xd obj_cooja/mtype74.a(cooja-radio.o)
                0x000000000001ec0c                radio_set_channel
 .text.radio_set_txpower
                0x000000000001ec19       0x17 obj_cooja/mtype74.a(cooja-radio.o)
                0x000000000001ec19                radio_set_txpower
 .text.radio_signal_strength_last
                0x000000000001ec30        0xa obj_cooja/mtype74.a(cooja-radio.o)
                0x000000000001ec30                radio_signal_strength_last
 .text.radio_signal_strength_current
                0x000000000001ec3a        0xa obj_cooja/mtype74.a(cooja-radio.o)
                0x000000000001ec3a                radio_signal_strength_current
 .text.radio_on
                0x000000000001ec44       0x11 obj_cooja/mtype74.a(cooja-radio.o)
 .text.radio_off
                0x000000000001ec55       0x11 obj_cooja/mtype74.a(cooja-radio.o)
 .text.doInterfaceActionsBeforeTick
                0x000000000001ec66       0x4b obj_cooja/mtype74.a(cooja-radio.o)
 .text.doInterfaceActionsAfterTick
                0x000000000001ecb1        0x5 obj_cooja/mtype74.a(cooja-radio.o)
 .text.radio_read
                0x000000000001ecb6       0x7e obj_cooja/mtype74.a(cooja-radio.o)
 .text.channel_clear
                0x000000000001ed34       0x1b obj_cooja/mtype74.a(cooja-radio.o)
 .text.radio_send
                0x000000000001ed4f       0xd2 obj_cooja/mtype74.a(cooja-radio.o)
 .text.prepare_packet
                0x000000000001ee21       0x1c obj_cooja/mtype74.a(cooja-radio.o)
 .text.transmit_packet
                0x000000000001ee3d       0x3a obj_cooja/mtype74.a(cooja-radio.o)
 .text.receiving_packet
                0x000000000001ee77        0xf obj_cooja/mtype74.a(cooja-radio.o)
 .text.pending_packet
                0x000000000001ee86       0x25 obj_cooja/mtype74.a(cooja-radio.o)
 .text.process_thread_cooja_radio_process
                0x000000000001eeab       0x93 obj_cooja/mtype74.a(cooja-radio.o)
 .text.init     0x000000000001ef3e       0x21 obj_cooja/mtype74.a(cooja-radio.o)
 *fill*         0x000000000001ef5f        0x1 90909090
 .text          0x000000000001ef60        0x0 obj_cooja/mtype74.a(sensors.o)
 .text.get_sensor_index
                0x000000000001ef60       0x3b obj_cooja/mtype74.a(sensors.o)
 .text.sensors_first
                0x000000000001ef9b        0xa obj_cooja/mtype74.a(sensors.o)
                0x000000000001ef9b                sensors_first
 .text.sensors_next
                0x000000000001efa5       0x1d obj_cooja/mtype74.a(sensors.o)
                0x000000000001efa5                sensors_next
 .text.sensors_changed
                0x000000000001efc2       0x2f obj_cooja/mtype74.a(sensors.o)
                0x000000000001efc2                sensors_changed
 .text.sensors_find
                0x000000000001eff1       0x84 obj_cooja/mtype74.a(sensors.o)
                0x000000000001eff1                sensors_find
 .text.process_thread_sensors_process
                0x000000000001f075      0x1a5 obj_cooja/mtype74.a(sensors.o)
 *fill*         0x000000000001f21a        0x2 90909090
 .text          0x000000000001f21c        0x0 obj_cooja/mtype74.a(rimestats.o)
 .text          0x000000000001f21c        0x0 obj_cooja/mtype74.a(frame802154.o)
 .text.addr_len
                0x000000000001f21c       0x31 obj_cooja/mtype74.a(frame802154.o)
 .text.field_len
                0x000000000001f24d       0xc6 obj_cooja/mtype74.a(frame802154.o)
 .text.frame802154_hdrlen
                0x000000000001f313       0x48 obj_cooja/mtype74.a(frame802154.o)
                0x000000000001f313                frame802154_hdrlen
 .text.frame802154_create
                0x000000000001f35b      0x1d3 obj_cooja/mtype74.a(frame802154.o)
                0x000000000001f35b                frame802154_create
 .text.frame802154_parse
                0x000000000001f52e      0x29b obj_cooja/mtype74.a(frame802154.o)
                0x000000000001f52e                frame802154_parse
 *fill*         0x000000000001f7c9        0x3 90909090
 .text          0x000000000001f7cc        0x0 obj_cooja/mtype74.a(rpl.o)
 .text.rpl_purge_routes
                0x000000000001f7cc       0xfa obj_cooja/mtype74.a(rpl.o)
                0x000000000001f7cc                rpl_purge_routes
 .text.rpl_remove_routes
                0x000000000001f8c6       0x46 obj_cooja/mtype74.a(rpl.o)
                0x000000000001f8c6                rpl_remove_routes
 .text.rpl_remove_routes_by_nexthop
                0x000000000001f90c       0x6c obj_cooja/mtype74.a(rpl.o)
                0x000000000001f90c                rpl_remove_routes_by_nexthop
 .text.rpl_add_route
                0x000000000001f978       0x70 obj_cooja/mtype74.a(rpl.o)
                0x000000000001f978                rpl_add_route
 .text.rpl_link_neighbor_callback
                0x000000000001f9e8       0xeb obj_cooja/mtype74.a(rpl.o)
                0x000000000001f9e8                rpl_link_neighbor_callback
 .text.rpl_ipv6_neighbor_callback
                0x000000000001fad3       0x64 obj_cooja/mtype74.a(rpl.o)
                0x000000000001fad3                rpl_ipv6_neighbor_callback
 .text.rpl_init
                0x000000000001fb37       0x73 obj_cooja/mtype74.a(rpl.o)
                0x000000000001fb37                rpl_init
 *fill*         0x000000000001fbaa        0x2 90909090
 .text          0x000000000001fbac        0x0 obj_cooja/mtype74.a(rpl-ext-header.)
 .text.rpl_verify_header
                0x000000000001fbac      0x1fa obj_cooja/mtype74.a(rpl-ext-header.)
                0x000000000001fbac                rpl_verify_header
 .text.set_rpl_opt
                0x000000000001fda6      0x18b obj_cooja/mtype74.a(rpl-ext-header.)
 .text.rpl_update_header_empty
                0x000000000001ff31      0x22f obj_cooja/mtype74.a(rpl-ext-header.)
                0x000000000001ff31                rpl_update_header_empty
 .text.rpl_update_header_final
                0x0000000000020160      0x174 obj_cooja/mtype74.a(rpl-ext-header.)
                0x0000000000020160                rpl_update_header_final
 .text.rpl_remove_header
                0x00000000000202d4      0x114 obj_cooja/mtype74.a(rpl-ext-header.)
                0x00000000000202d4                rpl_remove_header
 .text.rpl_invert_header
                0x00000000000203e8      0x14c obj_cooja/mtype74.a(rpl-ext-header.)
                0x00000000000203e8                rpl_invert_header
 .text.rpl_insert_header
                0x0000000000020534       0x39 obj_cooja/mtype74.a(rpl-ext-header.)
                0x0000000000020534                rpl_insert_header
 *fill*         0x000000000002056d        0x3 90909090
 .text          0x0000000000020570        0x0 obj_cooja/mtype74.a(memb.o)
 .text.memb_init
                0x0000000000020570       0x5e obj_cooja/mtype74.a(memb.o)
                0x0000000000020570                memb_init
 .text.memb_alloc
                0x00000000000205ce       0x65 obj_cooja/mtype74.a(memb.o)
                0x00000000000205ce                memb_alloc
 .text.memb_free
                0x0000000000020633       0x7b obj_cooja/mtype74.a(memb.o)
                0x0000000000020633                memb_free
 .text.memb_inmemb
                0x00000000000206ae       0x3f obj_cooja/mtype74.a(memb.o)
                0x00000000000206ae                memb_inmemb
 *fill*         0x00000000000206ed        0x3 90909090
 .text          0x00000000000206f0        0x0 obj_cooja/mtype74.a(timer.o)
 .text.timer_set
                0x00000000000206f0       0x1b obj_cooja/mtype74.a(timer.o)
                0x00000000000206f0                timer_set
 .text.timer_reset
                0x000000000002070b       0x17 obj_cooja/mtype74.a(timer.o)
                0x000000000002070b                timer_reset
 .text.timer_restart
                0x0000000000020722       0x12 obj_cooja/mtype74.a(timer.o)
                0x0000000000020722                timer_restart
 .text.timer_expired
                0x0000000000020734       0x29 obj_cooja/mtype74.a(timer.o)
                0x0000000000020734                timer_expired
 .text.timer_remaining
                0x000000000002075d       0x26 obj_cooja/mtype74.a(timer.o)
                0x000000000002075d                timer_remaining
 *fill*         0x0000000000020783        0x1 90909090
 .text          0x0000000000020784        0x0 obj_cooja/mtype74.a(rtimer.o)
 .text.rtimer_init
                0x0000000000020784        0xd obj_cooja/mtype74.a(rtimer.o)
                0x0000000000020784                rtimer_init
 .text.rtimer_set
                0x0000000000020791       0x57 obj_cooja/mtype74.a(rtimer.o)
                0x0000000000020791                rtimer_set
 .text.rtimer_run_next
                0x00000000000207e8       0x59 obj_cooja/mtype74.a(rtimer.o)
                0x00000000000207e8                rtimer_run_next
 *fill*         0x0000000000020841        0xf 90909090
 .text          0x0000000000020850       0x38 /usr/lib/gcc/i686-linux-gnu/4.6/crtendS.o
 .text          0x0000000000020888        0x0 /usr/lib/gcc/i686-linux-gnu/4.6/../../../i386-linux-gnu/crtn.o
 *(.gnu.warning)

.fini           0x0000000000020888       0x1a
 *(.fini)
 .fini          0x0000000000020888       0x10 /usr/lib/gcc/i686-linux-gnu/4.6/../../../i386-linux-gnu/crti.o
                0x0000000000020888                _fini
 .fini          0x0000000000020898        0x5 /usr/lib/gcc/i686-linux-gnu/4.6/crtbeginS.o
 .fini          0x000000000002089d        0x5 /usr/lib/gcc/i686-linux-gnu/4.6/../../../i386-linux-gnu/crtn.o
                0x00000000000208a2                PROVIDE (__etext, .)
                0x00000000000208a2                PROVIDE (_etext, .)
                0x00000000000208a2                PROVIDE (etext, .)

.rodata         0x00000000000208c0      0x710
 *(.rodata .rodata.* .gnu.linkonce.r.*)
 .rodata        0x00000000000208c0      0x148 server.co
                0x00000000000208ec                autostart_processes
 .rodata        0x0000000000020a08      0x123 obj_cooja/mtype74.o
 .rodata        0x0000000000020b2b        0x8 obj_cooja/mtype74.a(rimeaddr.o)
                0x0000000000020b2b                rimeaddr_null
 *fill*         0x0000000000020b33        0x1 00
 .rodata        0x0000000000020b34       0x24 obj_cooja/mtype74.a(nullmac.o)
                0x0000000000020b3c                nullmac_driver
 *fill*         0x0000000000020b58        0x8 00
 .rodata        0x0000000000020b60       0x40 obj_cooja/mtype74.a(nullrdc.o)
                0x0000000000020b80                nullrdc_driver
 .rodata        0x0000000000020ba0        0xc obj_cooja/mtype74.a(framer-802154.o)
                0x0000000000020ba4                framer_802154
 .rodata        0x0000000000020bac        0x4 obj_cooja/mtype74.a(rpl-dag.o)
 .rodata        0x0000000000020bb0        0xe obj_cooja/mtype74.a(serial-line.o)
 .rodata        0x0000000000020bbe        0xc obj_cooja/mtype74.a(etimer.o)
 .rodata        0x0000000000020bca        0xf obj_cooja/mtype74.a(ctimer.o)
 *fill*         0x0000000000020bd9        0x3 00
 .rodata        0x0000000000020bdc       0x2c obj_cooja/mtype74.a(sicslowpan.o)
                0x0000000000020bdc                unc_llconf
                0x0000000000020be0                unc_ctxconf
                0x0000000000020be4                unc_mxconf
                0x0000000000020be8                llprefix
                0x0000000000020bfc                sicslowpan_driver
 .rodata        0x0000000000020c08       0x13 obj_cooja/mtype74.a(simple-udp.o)
 .rodata        0x0000000000020c1b       0x29 obj_cooja/mtype74.a(tcpip.o)
 .rodata        0x0000000000020c44       0x1c obj_cooja/mtype74.a(uip-debug.o)
 .rodata        0x0000000000020c60      0x1ac obj_cooja/mtype74.a(uip6.o)
 .rodata        0x0000000000020e0c       0x9d obj_cooja/mtype74.a(servreg-hack.o)
 *fill*         0x0000000000020ea9        0x3 00
 .rodata        0x0000000000020eac        0x8 obj_cooja/mtype74.a(beep.o)
                0x0000000000020eac                beep_interface
 .rodata        0x0000000000020eb4       0x20 obj_cooja/mtype74.a(button-sensor.o)
                0x0000000000020eb4                button_interface
                0x0000000000020ec4                button_sensor
 .rodata        0x0000000000020ed4        0x8 obj_cooja/mtype74.a(leds-arch.o)
                0x0000000000020ed4                leds_interface
 .rodata        0x0000000000020edc        0x8 obj_cooja/mtype74.a(moteid.o)
                0x0000000000020edc                moteid_interface
 .rodata        0x0000000000020ee4       0x1c obj_cooja/mtype74.a(pir-sensor.o)
                0x0000000000020ee4                pir_interface
                0x0000000000020ef0                pir_sensor
 .rodata        0x0000000000020f00        0xe obj_cooja/mtype74.a(rs232.o)
                0x0000000000020f00                rs232_interface
 *fill*         0x0000000000020f0e        0x2 00
 .rodata        0x0000000000020f10       0x24 obj_cooja/mtype74.a(vib-sensor.o)
                0x0000000000020f10                vib_interface
                0x0000000000020f24                vib_sensor
 .rodata        0x0000000000020f34        0x8 obj_cooja/mtype74.a(clock.o)
                0x0000000000020f34                clock_interface
 .rodata        0x0000000000020f3c        0x8 obj_cooja/mtype74.a(log.o)
                0x0000000000020f3c                simlog_interface
 .rodata        0x0000000000020f44       0x2f obj_cooja/mtype74.a(cfs-cooja.o)
                0x0000000000020f44                cfs_interface
 *fill*         0x0000000000020f73        0xd 00
 .rodata        0x0000000000020f80       0x48 obj_cooja/mtype74.a(cooja-radio.o)
                0x0000000000020f80                radio_interface
                0x0000000000020fa0                cooja_radio_driver
 .rodata        0x0000000000020fc8        0x8 obj_cooja/mtype74.a(sensors.o)

.rodata1
 *(.rodata1)

.eh_frame_hdr   0x0000000000020fd0     0x109c
 *(.eh_frame_hdr)
 .eh_frame_hdr  0x0000000000020fd0     0x109c /usr/lib/gcc/i686-linux-gnu/4.6/../../../i386-linux-gnu/crti.o

.eh_frame       0x000000000002206c     0x4424
 *(.eh_frame)
 .eh_frame      0x000000000002206c       0x3c /usr/lib/gcc/i686-linux-gnu/4.6/../../../i386-linux-gnu/crti.o
                                         0x40 (size before relaxing)
 .eh_frame      0x00000000000220a8       0xb8 server.co
                                         0xd0 (size before relaxing)
 .eh_frame      0x0000000000022160      0x148 obj_cooja/mtype74.o
                                        0x160 (size before relaxing)
 .eh_frame      0x00000000000222a8       0x60 obj_cooja/mtype74.a(rimeaddr.o)
                                         0x78 (size before relaxing)
 .eh_frame      0x0000000000022308       0xc0 obj_cooja/mtype74.a(nullmac.o)
                                         0xd8 (size before relaxing)
 .eh_frame      0x00000000000223c8      0x194 obj_cooja/mtype74.a(nullrdc.o)
                                        0x1ac (size before relaxing)
 .eh_frame      0x000000000002255c       0x20 obj_cooja/mtype74.a(mac.o)
                                         0x38 (size before relaxing)
 .eh_frame      0x000000000002257c       0xec obj_cooja/mtype74.a(framer-802154.o)
                                        0x104 (size before relaxing)
 .eh_frame      0x0000000000022668      0x554 obj_cooja/mtype74.a(rpl-dag.o)
                                        0x56c (size before relaxing)
 .eh_frame      0x0000000000022bbc      0x224 obj_cooja/mtype74.a(rpl-icmp6.o)
                                        0x23c (size before relaxing)
 .eh_frame      0x0000000000022de0       0xe8 obj_cooja/mtype74.a(rpl-timers.o)
                                        0x100 (size before relaxing)
 .eh_frame      0x0000000000022ec8       0xe4 obj_cooja/mtype74.a(rpl-mrhof.o)
                                         0xfc (size before relaxing)
 .eh_frame      0x0000000000022fac      0x1c8 obj_cooja/mtype74.a(process.o)
                                        0x1e0 (size before relaxing)
 .eh_frame      0x0000000000023174       0x40 obj_cooja/mtype74.a(autostart.o)
                                         0x58 (size before relaxing)
 .eh_frame      0x00000000000231b4       0x60 obj_cooja/mtype74.a(serial-line.o)
                                         0x78 (size before relaxing)
 .eh_frame      0x0000000000023214      0x180 obj_cooja/mtype74.a(list.o)
                                        0x198 (size before relaxing)
 .eh_frame      0x0000000000023394      0x1c0 obj_cooja/mtype74.a(etimer.o)
                                        0x1d8 (size before relaxing)
 .eh_frame      0x0000000000023554       0xe0 obj_cooja/mtype74.a(ctimer.o)
                                         0xf8 (size before relaxing)
 .eh_frame      0x0000000000023634       0xc4 obj_cooja/mtype74.a(stimer.o)
                                         0xdc (size before relaxing)
 .eh_frame      0x00000000000236f8       0x40 obj_cooja/mtype74.a(random.o)
                                         0x58 (size before relaxing)
 .eh_frame      0x0000000000023738       0xa0 obj_cooja/mtype74.a(ringbuf.o)
                                         0xb8 (size before relaxing)
 .eh_frame      0x00000000000237d8      0x270 obj_cooja/mtype74.a(nbr-table.o)
                                        0x288 (size before relaxing)
 .eh_frame      0x0000000000023a48       0x20 obj_cooja/mtype74.a(netstack.o)
                                         0x38 (size before relaxing)
 .eh_frame      0x0000000000023a68      0x2b4 obj_cooja/mtype74.a(packetbuf.o)
                                        0x2cc (size before relaxing)
 .eh_frame      0x0000000000023d1c      0x168 obj_cooja/mtype74.a(queuebuf.o)
                                        0x180 (size before relaxing)
 .eh_frame      0x0000000000023e84      0x27c obj_cooja/mtype74.a(sicslowpan.o)
                                        0x294 (size before relaxing)
 .eh_frame      0x0000000000024100       0xd0 obj_cooja/mtype74.a(simple-udp.o)
                                         0xe8 (size before relaxing)
 .eh_frame      0x00000000000241d0      0x274 obj_cooja/mtype74.a(tcpip.o)
                                        0x28c (size before relaxing)
 .eh_frame      0x0000000000024444       0x40 obj_cooja/mtype74.a(uip-debug.o)
                                         0x58 (size before relaxing)
 .eh_frame      0x0000000000024484      0x280 obj_cooja/mtype74.a(uip-ds6-route.o)
                                        0x298 (size before relaxing)
 .eh_frame      0x0000000000024704      0x1c0 obj_cooja/mtype74.a(uip-ds6-nbr.o)
                                        0x1d8 (size before relaxing)
 .eh_frame      0x00000000000248c4      0x2d4 obj_cooja/mtype74.a(uip-ds6.o)
                                        0x2ec (size before relaxing)
 .eh_frame      0x0000000000024b98       0x80 obj_cooja/mtype74.a(uip-icmp6.o)
                                         0x98 (size before relaxing)
 .eh_frame      0x0000000000024c18       0x98 obj_cooja/mtype74.a(uip-nd6.o)
                                         0xb0 (size before relaxing)
 .eh_frame      0x0000000000024cb0       0xe0 obj_cooja/mtype74.a(uip-packetqueue)
                                         0xf8 (size before relaxing)
 .eh_frame      0x0000000000024d90       0x40 obj_cooja/mtype74.a(uip-udp-packet.)
                                         0x58 (size before relaxing)
 .eh_frame      0x0000000000024dd0      0x280 obj_cooja/mtype74.a(uip6.o)
                                        0x298 (size before relaxing)
 .eh_frame      0x0000000000025050      0x170 obj_cooja/mtype74.a(servreg-hack.o)
                                        0x188 (size before relaxing)
 .eh_frame      0x00000000000251c0       0x40 obj_cooja/mtype74.a(simEnvChange.o)
                                         0x58 (size before relaxing)
 .eh_frame      0x0000000000025200       0xc0 obj_cooja/mtype74.a(cooja_mt.o)
                                         0xd8 (size before relaxing)
 .eh_frame      0x00000000000252c0      0x128 obj_cooja/mtype74.a(cooja_mtarch.o)
                                        0x140 (size before relaxing)
 .eh_frame      0x00000000000253e8       0xc0 obj_cooja/mtype74.a(rtimer-arch.o)
                                         0xd8 (size before relaxing)
 .eh_frame      0x00000000000254a8       0xa0 obj_cooja/mtype74.a(watchdog.o)
                                         0xb8 (size before relaxing)
 .eh_frame      0x0000000000025548      0x160 obj_cooja/mtype74.a(beep.o)
                                        0x178 (size before relaxing)
 .eh_frame      0x00000000000256a8       0xa0 obj_cooja/mtype74.a(button-sensor.o)
                                         0xb8 (size before relaxing)
 .eh_frame      0x0000000000025748       0xa0 obj_cooja/mtype74.a(leds-arch.o)
                                         0xb8 (size before relaxing)
 .eh_frame      0x00000000000257e8       0x40 obj_cooja/mtype74.a(moteid.o)
                                         0x58 (size before relaxing)
 .eh_frame      0x0000000000025828       0xa0 obj_cooja/mtype74.a(pir-sensor.o)
                                         0xb8 (size before relaxing)
 .eh_frame      0x00000000000258c8      0x100 obj_cooja/mtype74.a(rs232.o)
                                        0x118 (size before relaxing)
 .eh_frame      0x00000000000259c8       0xa0 obj_cooja/mtype74.a(vib-sensor.o)
                                         0xb8 (size before relaxing)
 .eh_frame      0x0000000000025a68       0xc0 obj_cooja/mtype74.a(clock.o)
                                         0xd8 (size before relaxing)
 .eh_frame      0x0000000000025b28      0x128 obj_cooja/mtype74.a(log.o)
                                        0x140 (size before relaxing)
 .eh_frame      0x0000000000025c50      0x168 obj_cooja/mtype74.a(cfs-cooja.o)
                                        0x180 (size before relaxing)
 .eh_frame      0x0000000000025db8      0x220 obj_cooja/mtype74.a(cooja-radio.o)
                                        0x238 (size before relaxing)
 .eh_frame      0x0000000000025fd8       0xc4 obj_cooja/mtype74.a(sensors.o)
                                         0xdc (size before relaxing)
 .eh_frame      0x000000000002609c       0xa0 obj_cooja/mtype74.a(frame802154.o)
                                         0xb8 (size before relaxing)
 .eh_frame      0x000000000002613c       0xe0 obj_cooja/mtype74.a(rpl.o)
                                         0xf8 (size before relaxing)
 .eh_frame      0x000000000002621c       0xec obj_cooja/mtype74.a(rpl-ext-header.)
                                        0x104 (size before relaxing)
 .eh_frame      0x0000000000026308       0x80 obj_cooja/mtype74.a(memb.o)
                                         0x98 (size before relaxing)
 .eh_frame      0x0000000000026388       0xa4 obj_cooja/mtype74.a(timer.o)
                                         0xbc (size before relaxing)
 .eh_frame      0x000000000002642c       0x60 obj_cooja/mtype74.a(rtimer.o)
                                         0x78 (size before relaxing)
 .eh_frame      0x000000000002648c        0x4 /usr/lib/gcc/i686-linux-gnu/4.6/crtendS.o

.gcc_except_table
 *(.gcc_except_table .gcc_except_table.*)

.exception_ranges
 *(.exception_ranges .exception_ranges*)
                0x0000000000026490                . = (ALIGN (0x1000) - ((0x1000 - .) & 0xfff))
                0x0000000000027f0c                . = DATA_SEGMENT_ALIGN (0x1000, 0x1000)

.eh_frame
 *(.eh_frame)

.gcc_except_table
 *(.gcc_except_table .gcc_except_table.*)

.exception_ranges
 *(.exception_ranges .exception_ranges*)

.tdata
 *(.tdata .tdata.* .gnu.linkonce.td.*)

.tbss
 *(.tbss .tbss.* .gnu.linkonce.tb.*)
 *(.tcommon)

.preinit_array
 *(.preinit_array)

.init_array
 *(SORT(.init_array.*) SORT(.ctors.*))
 *(.init_array)
 *(EXCLUDE_FILE(*crtend?.o *crtend.o *crtbegin?.o *crtbegin.o) .ctors)

.fini_array
 *(SORT(.fini_array.*) SORT(.dtors.*))
 *(.fini_array)
 *(EXCLUDE_FILE(*crtend?.o *crtend.o *crtbegin?.o *crtbegin.o) .dtors)

.ctors          0x0000000000027f0c        0x8
 *crtbegin.o(.ctors)
 *crtbegin?.o(.ctors)
 .ctors         0x0000000000027f0c        0x4 /usr/lib/gcc/i686-linux-gnu/4.6/crtbeginS.o
 *(EXCLUDE_FILE(*crtend?.o *crtend.o) .ctors)
 *(SORT(.ctors.*))
 *(.ctors)
 .ctors         0x0000000000027f10        0x4 /usr/lib/gcc/i686-linux-gnu/4.6/crtendS.o

.dtors          0x0000000000027f14        0x8
 *crtbegin.o(.dtors)
 *crtbegin?.o(.dtors)
 .dtors         0x0000000000027f14        0x4 /usr/lib/gcc/i686-linux-gnu/4.6/crtbeginS.o
 *(EXCLUDE_FILE(*crtend?.o *crtend.o) .dtors)
 *(SORT(.dtors.*))
 *(.dtors)
 .dtors         0x0000000000027f18        0x4 /usr/lib/gcc/i686-linux-gnu/4.6/crtendS.o
                0x0000000000027f18                __DTOR_END__

.jcr            0x0000000000027f1c        0x4
 *(.jcr)
 .jcr           0x0000000000027f1c        0x0 /usr/lib/gcc/i686-linux-gnu/4.6/crtbeginS.o
 .jcr           0x0000000000027f1c        0x4 /usr/lib/gcc/i686-linux-gnu/4.6/crtendS.o

.data.rel.ro
 *(.data.rel.ro.local* .gnu.linkonce.d.rel.ro.local.*)
 *(.data.rel.ro* .gnu.linkonce.d.rel.ro.*)

.dynamic        0x0000000000027f20       0xc8
 *(.dynamic)
 .dynamic       0x0000000000027f20       0xc8 /usr/lib/gcc/i686-linux-gnu/4.6/../../../i386-linux-gnu/crti.o
                0x0000000000027f20                _DYNAMIC

.got            0x0000000000027fe8        0xc
 *(.got)
 .got           0x0000000000027fe8        0xc /usr/lib/gcc/i686-linux-gnu/4.6/../../../i386-linux-gnu/crti.o
 *(.igot)
                0x0000000000027ff4                . = DATA_SEGMENT_RELRO_END (., 0xc)

.got.plt        0x0000000000027ff4       0x14
 *(.got.plt)
 .got.plt       0x0000000000027ff4       0x14 /usr/lib/gcc/i686-linux-gnu/4.6/../../../i386-linux-gnu/crti.o
                0x0000000000027ff4                _GLOBAL_OFFSET_TABLE_
 *(.igot.plt)

.data           0x0000000000028020      0x36c
 *(.data .data.* .gnu.linkonce.d.*)
 .data          0x0000000000028020        0x0 /usr/lib/gcc/i686-linux-gnu/4.6/../../../i386-linux-gnu/crti.o
 .data          0x0000000000028020        0x0 /usr/lib/gcc/i686-linux-gnu/4.6/crtbeginS.o
 .data.rel      0x0000000000028020        0x4 /usr/lib/gcc/i686-linux-gnu/4.6/crtbeginS.o
                0x0000000000028020                __dso_handle
 *fill*         0x0000000000028024       0x1c 00
 .data          0x0000000000028040      0x188 server.co
                0x00000000000281a8                server_process
                0x00000000000281b8                broadcast_process
 *fill*         0x00000000000281c8       0x18 00
 .data          0x00000000000281e0       0x40 obj_cooja/mtype74.o
                0x00000000000281e0                simInterfaces
                0x0000000000028210                sensors
 .data          0x0000000000028220        0x0 obj_cooja/mtype74.a(rimeaddr.o)
 .data          0x0000000000028220        0x0 obj_cooja/mtype74.a(nullmac.o)
 .data          0x0000000000028220        0x0 obj_cooja/mtype74.a(nullrdc.o)
 .data          0x0000000000028220        0x0 obj_cooja/mtype74.a(mac.o)
 .data          0x0000000000028220        0x0 obj_cooja/mtype74.a(framer-802154.o)
 .data          0x0000000000028220       0x14 obj_cooja/mtype74.a(rpl-dag.o)
 .data          0x0000000000028234        0x1 obj_cooja/mtype74.a(rpl-icmp6.o)
 *fill*         0x0000000000028235        0x3 00
 .data          0x0000000000028238        0x0 obj_cooja/mtype74.a(rpl-timers.o)
 .data          0x0000000000028238       0x1c obj_cooja/mtype74.a(rpl-mrhof.o)
                0x0000000000028238                rpl_mrhof
 .data          0x0000000000028254        0x0 obj_cooja/mtype74.a(process.o)
 .data          0x0000000000028254        0x0 obj_cooja/mtype74.a(autostart.o)
 .data          0x0000000000028254       0x10 obj_cooja/mtype74.a(serial-line.o)
                0x0000000000028254                serial_line_process
 .data          0x0000000000028264        0x0 obj_cooja/mtype74.a(list.o)
 .data          0x0000000000028264       0x10 obj_cooja/mtype74.a(etimer.o)
                0x0000000000028264                etimer_process
 .data          0x0000000000028274       0x14 obj_cooja/mtype74.a(ctimer.o)
                0x0000000000028278                ctimer_process
 .data          0x0000000000028288        0x0 obj_cooja/mtype74.a(stimer.o)
 .data          0x0000000000028288        0x0 obj_cooja/mtype74.a(random.o)
 .data          0x0000000000028288        0x0 obj_cooja/mtype74.a(ringbuf.o)
 .data          0x0000000000028288       0x10 obj_cooja/mtype74.a(nbr-table.o)
 .data          0x0000000000028298        0x0 obj_cooja/mtype74.a(netstack.o)
 .data          0x0000000000028298        0x4 obj_cooja/mtype74.a(packetbuf.o)
 .data          0x000000000002829c       0x24 obj_cooja/mtype74.a(queuebuf.o)
 .data          0x00000000000282c0        0x0 obj_cooja/mtype74.a(sicslowpan.o)
 .data          0x00000000000282c0       0x10 obj_cooja/mtype74.a(simple-udp.o)
                0x00000000000282c0                simple_udp_process
 .data          0x00000000000282d0       0x10 obj_cooja/mtype74.a(tcpip.o)
                0x00000000000282d0                tcpip_process
 .data          0x00000000000282e0        0x0 obj_cooja/mtype74.a(uip-debug.o)
 .data          0x00000000000282e0       0x34 obj_cooja/mtype74.a(uip-ds6-route.o)
 .data          0x0000000000028314       0x14 obj_cooja/mtype74.a(uip-ds6-nbr.o)
                0x0000000000028324                ds6_neighbors
 .data          0x0000000000028328        0x0 obj_cooja/mtype74.a(uip-ds6.o)
 .data          0x0000000000028328        0x0 obj_cooja/mtype74.a(uip-icmp6.o)
 .data          0x0000000000028328        0x0 obj_cooja/mtype74.a(uip-nd6.o)
 .data          0x0000000000028328        0xc obj_cooja/mtype74.a(uip-packetqueue)
 .data          0x0000000000028334        0x0 obj_cooja/mtype74.a(uip-udp-packet.)
 .data          0x0000000000028334        0x0 obj_cooja/mtype74.a(uip6.o)
 .data          0x0000000000028334       0x24 obj_cooja/mtype74.a(servreg-hack.o)
                0x0000000000028348                servreg_hack_process
 .data          0x0000000000028358        0x0 obj_cooja/mtype74.a(simEnvChange.o)
 .data          0x0000000000028358        0x0 obj_cooja/mtype74.a(cooja_mt.o)
 .data          0x0000000000028358        0x0 obj_cooja/mtype74.a(cooja_mtarch.o)
 .data          0x0000000000028358        0x0 obj_cooja/mtype74.a(rtimer-arch.o)
 .data          0x0000000000028358        0x0 obj_cooja/mtype74.a(watchdog.o)
 .data          0x0000000000028358        0x0 obj_cooja/mtype74.a(beep.o)
 .data          0x0000000000028358        0x0 obj_cooja/mtype74.a(button-sensor.o)
 .data          0x0000000000028358        0x0 obj_cooja/mtype74.a(leds-arch.o)
 .data          0x0000000000028358        0x0 obj_cooja/mtype74.a(moteid.o)
 .data          0x0000000000028358        0x0 obj_cooja/mtype74.a(pir-sensor.o)
 .data          0x0000000000028358        0x0 obj_cooja/mtype74.a(rs232.o)
 .data          0x0000000000028358        0x0 obj_cooja/mtype74.a(vib-sensor.o)
 .data          0x0000000000028358        0x0 obj_cooja/mtype74.a(clock.o)
 .data          0x0000000000028358        0x0 obj_cooja/mtype74.a(log.o)
 .data          0x0000000000028358        0x0 obj_cooja/mtype74.a(cfs-cooja.o)
 .data          0x0000000000028358       0x24 obj_cooja/mtype74.a(cooja-radio.o)
                0x0000000000028358                simRadioHWOn
                0x000000000002835c                simSignalStrength
                0x0000000000028360                simLastSignalStrength
                0x0000000000028364                simPower
                0x0000000000028368                simRadioChannel
                0x000000000002836c                cooja_radio_process
 .data          0x000000000002837c       0x10 obj_cooja/mtype74.a(sensors.o)
                0x000000000002837c                sensors_process
 .data          0x000000000002838c        0x0 obj_cooja/mtype74.a(rimestats.o)
 .data          0x000000000002838c        0x0 obj_cooja/mtype74.a(frame802154.o)
 .data          0x000000000002838c        0x0 obj_cooja/mtype74.a(rpl.o)
 .data          0x000000000002838c        0x0 obj_cooja/mtype74.a(rpl-ext-header.)
 .data          0x000000000002838c        0x0 obj_cooja/mtype74.a(memb.o)
 .data          0x000000000002838c        0x0 obj_cooja/mtype74.a(timer.o)
 .data          0x000000000002838c        0x0 obj_cooja/mtype74.a(rtimer.o)
 .data          0x000000000002838c        0x0 /usr/lib/gcc/i686-linux-gnu/4.6/crtendS.o
 .data          0x000000000002838c        0x0 /usr/lib/gcc/i686-linux-gnu/4.6/../../../i386-linux-gnu/crtn.o

.data1
 *(.data1)
                0x000000000002838c                _edata = .
                0x000000000002838c                PROVIDE (edata, .)
                0x000000000002838c                __bss_start = .

.bss            0x00000000000283a0     0xefc8
 *(.dynbss)
 .dynbss        0x0000000000000000        0x0 /usr/lib/gcc/i686-linux-gnu/4.6/../../../i386-linux-gnu/crti.o
 *(.bss .bss.* .gnu.linkonce.b.*)
 .bss           0x00000000000283a0        0x0 /usr/lib/gcc/i686-linux-gnu/4.6/../../../i386-linux-gnu/crti.o
 .bss           0x00000000000283a0        0x8 /usr/lib/gcc/i686-linux-gnu/4.6/crtbeginS.o
 *fill*         0x00000000000283a8       0x18 00
 .bss           0x00000000000283c0      0x15c server.co
 *fill*         0x000000000002851c        0x4 00
 .bss           0x0000000000028520     0x2030 obj_cooja/mtype74.o
 .bss           0x000000000002a550        0x0 obj_cooja/mtype74.a(rimeaddr.o)
 .bss           0x000000000002a550        0x0 obj_cooja/mtype74.a(nullmac.o)
 *fill*         0x000000000002a550       0x10 00
 .bss           0x000000000002a560       0x48 obj_cooja/mtype74.a(nullrdc.o)
 .bss           0x000000000002a5a8        0x0 obj_cooja/mtype74.a(mac.o)
 .bss           0x000000000002a5a8        0x2 obj_cooja/mtype74.a(framer-802154.o)
 *fill*         0x000000000002a5aa       0x16 00
 .bss           0x000000000002a5c0     0x12c0 obj_cooja/mtype74.a(rpl-dag.o)
 .bss           0x000000000002b880        0x0 obj_cooja/mtype74.a(rpl-icmp6.o)
 .bss           0x000000000002b880       0x23 obj_cooja/mtype74.a(rpl-timers.o)
 *fill*         0x000000000002b8a3        0x1 00
 .bss           0x000000000002b8a4        0x0 obj_cooja/mtype74.a(rpl-mrhof.o)
 *fill*         0x000000000002b8a4       0x1c 00
 .bss           0x000000000002b8c0      0x1b0 obj_cooja/mtype74.a(process.o)
                0x000000000002b8c0                process_list
                0x000000000002b8c4                process_current
 .bss           0x000000000002ba70        0x0 obj_cooja/mtype74.a(autostart.o)
 *fill*         0x000000000002ba70       0x10 00
 .bss           0x000000000002ba80      0x141 obj_cooja/mtype74.a(serial-line.o)
 *fill*         0x000000000002bbc1        0x3 00
 .bss           0x000000000002bbc4        0x0 obj_cooja/mtype74.a(list.o)
 .bss           0x000000000002bbc4        0x8 obj_cooja/mtype74.a(etimer.o)
 .bss           0x000000000002bbcc        0x5 obj_cooja/mtype74.a(ctimer.o)
 *fill*         0x000000000002bbd1        0x3 00
 .bss           0x000000000002bbd4        0x0 obj_cooja/mtype74.a(stimer.o)
 .bss           0x000000000002bbd4        0x0 obj_cooja/mtype74.a(random.o)
 .bss           0x000000000002bbd4        0x0 obj_cooja/mtype74.a(ringbuf.o)
 *fill*         0x000000000002bbd4        0xc 00
 .bss           0x000000000002bbe0     0x1214 obj_cooja/mtype74.a(nbr-table.o)
 .bss           0x000000000002cdf4        0x0 obj_cooja/mtype74.a(netstack.o)
 *fill*         0x000000000002cdf4        0xc 00
 .bss           0x000000000002ce00       0xd8 obj_cooja/mtype74.a(packetbuf.o)
 *fill*         0x000000000002ced8        0x8 00
 .bss           0x000000000002cee0      0xe40 obj_cooja/mtype74.a(queuebuf.o)
 .bss           0x000000000002dd20      0x140 obj_cooja/mtype74.a(sicslowpan.o)
 .bss           0x000000000002de60      0x110 obj_cooja/mtype74.a(simple-udp.o)
 *fill*         0x000000000002df70       0x10 00
 .bss           0x000000000002df80       0x6f obj_cooja/mtype74.a(tcpip.o)
 *fill*         0x000000000002dfef        0x1 00
 .bss           0x000000000002dff0        0x0 obj_cooja/mtype74.a(uip-debug.o)
 *fill*         0x000000000002dff0       0x10 00
 .bss           0x000000000002e000     0x39e8 obj_cooja/mtype74.a(uip-ds6-route.o)
 *fill*         0x00000000000319e8       0x18 00
 .bss           0x0000000000031a00     0x2ee0 obj_cooja/mtype74.a(uip-ds6-nbr.o)
 .bss           0x00000000000348e0       0x20 obj_cooja/mtype74.a(uip-ds6.o)
 .bss           0x0000000000034900       0x10 obj_cooja/mtype74.a(uip-icmp6.o)
 .bss           0x0000000000034910       0x14 obj_cooja/mtype74.a(uip-nd6.o)
 *fill*         0x0000000000034924       0x1c 00
 .bss           0x0000000000034940      0x258 obj_cooja/mtype74.a(uip-packetqueue)
 .bss           0x0000000000034b98        0x0 obj_cooja/mtype74.a(uip-udp-packet.)
 .bss           0x0000000000034b98        0xe obj_cooja/mtype74.a(uip6.o)
                0x0000000000034b98                uip_ext_bitmap
                0x0000000000034b99                uip_ext_len
                0x0000000000034b9a                uip_ext_opt_offset
 *fill*         0x0000000000034ba6       0x1a 00
 .bss           0x0000000000034bc0      0x24c obj_cooja/mtype74.a(servreg-hack.o)
 .bss           0x0000000000034e0c        0x1 obj_cooja/mtype74.a(simEnvChange.o)
                0x0000000000034e0c                simDontFallAsleep
 *fill*         0x0000000000034e0d        0x3 00
 .bss           0x0000000000034e10        0x4 obj_cooja/mtype74.a(cooja_mt.o)
 .bss           0x0000000000034e14        0x4 obj_cooja/mtype74.a(cooja_mtarch.o)
 .bss           0x0000000000034e18        0xc obj_cooja/mtype74.a(rtimer-arch.o)
 .bss           0x0000000000034e24        0x0 obj_cooja/mtype74.a(watchdog.o)
 .bss           0x0000000000034e24        0x0 obj_cooja/mtype74.a(beep.o)
 .bss           0x0000000000034e24        0x8 obj_cooja/mtype74.a(button-sensor.o)
 .bss           0x0000000000034e2c        0x0 obj_cooja/mtype74.a(leds-arch.o)
 .bss           0x0000000000034e2c        0x0 obj_cooja/mtype74.a(moteid.o)
 .bss           0x0000000000034e2c        0x1 obj_cooja/mtype74.a(pir-sensor.o)
                0x0000000000034e2c                simPirValue
 *fill*         0x0000000000034e2d        0x3 00
 .bss           0x0000000000034e30        0x4 obj_cooja/mtype74.a(rs232.o)
 .bss           0x0000000000034e34        0x1 obj_cooja/mtype74.a(vib-sensor.o)
                0x0000000000034e34                simVibValue
 *fill*         0x0000000000034e35        0x3 00
 .bss           0x0000000000034e38        0x0 obj_cooja/mtype74.a(clock.o)
 *fill*         0x0000000000034e38        0x8 00
 .bss           0x0000000000034e40      0x421 obj_cooja/mtype74.a(log.o)
 *fill*         0x0000000000035261       0x1f 00
 .bss           0x0000000000035280      0xfbc obj_cooja/mtype74.a(cfs-cooja.o)
                0x0000000000035280                simCFSData
                0x0000000000036220                simCFSChanged
                0x0000000000036224                simCFSRead
                0x0000000000036228                simCFSWritten
 .bss           0x000000000003623c       0x10 obj_cooja/mtype74.a(cooja-radio.o)
                0x000000000003623c                simReceiving
                0x0000000000036240                simInSize
                0x0000000000036244                simOutSize
 .bss           0x000000000003624c        0xc obj_cooja/mtype74.a(sensors.o)
 .bss           0x0000000000036258        0x0 obj_cooja/mtype74.a(rimestats.o)
 .bss           0x0000000000036258        0x0 obj_cooja/mtype74.a(frame802154.o)
 .bss           0x0000000000036258        0x0 obj_cooja/mtype74.a(rpl.o)
 .bss           0x0000000000036258        0x0 obj_cooja/mtype74.a(rpl-ext-header.)
 .bss           0x0000000000036258        0x0 obj_cooja/mtype74.a(memb.o)
 .bss           0x0000000000036258        0x0 obj_cooja/mtype74.a(timer.o)
 .bss           0x0000000000036258        0x4 obj_cooja/mtype74.a(rtimer.o)
 .bss           0x000000000003625c        0x0 /usr/lib/gcc/i686-linux-gnu/4.6/crtendS.o
 .bss           0x000000000003625c        0x0 /usr/lib/gcc/i686-linux-gnu/4.6/../../../i386-linux-gnu/crtn.o
 *(COMMON)
 COMMON         0x000000000003625c        0x8 obj_cooja/mtype74.o
                0x000000000003625c                referenceVar
                0x0000000000036260                sensors_flags
 COMMON         0x0000000000036264        0x8 obj_cooja/mtype74.a(rimeaddr.o)
                0x0000000000036264                rimeaddr_node_addr
 *fill*         0x000000000003626c       0x14 00
 COMMON         0x0000000000036280      0x114 obj_cooja/mtype74.a(rpl-dag.o)
                0x0000000000036280                default_instance
                0x00000000000362a0                instance_table
 COMMON         0x0000000000036394        0x1 obj_cooja/mtype74.a(serial-line.o)
                0x0000000000036394                serial_line_event_message
 *fill*         0x0000000000036395        0xb 00
 COMMON         0x00000000000363a0       0x60 obj_cooja/mtype74.a(packetbuf.o)
                0x00000000000363a0                packetbuf_attrs
                0x00000000000363e0                packetbuf_addrs
 COMMON         0x0000000000036400        0x8 obj_cooja/mtype74.a(sicslowpan.o)
                0x0000000000036400                frag_sender
 COMMON         0x0000000000036408        0x1 obj_cooja/mtype74.a(tcpip.o)
                0x0000000000036408                tcpip_event
 *fill*         0x0000000000036409       0x17 00
 COMMON         0x0000000000036420      0x181 obj_cooja/mtype74.a(uip-ds6.o)
                0x0000000000036420                uip_ds6_prefix_list
                0x0000000000036480                uip_ds6_timer_periodic
                0x0000000000036490                uip_ds6_netif_addr_list_offset
                0x00000000000364a0                uip_ds6_if
                0x0000000000036598                uip_ds6_timer_ra
                0x00000000000365a0                uip_ds6_addr_size
 *fill*         0x00000000000365a1       0x1f 00
 COMMON         0x00000000000365c0      0x3ac obj_cooja/mtype74.a(uip6.o)
                0x00000000000365c0                uip_slen
                0x00000000000365c2                uip_acc32
                0x00000000000365e0                uip_conns
                0x00000000000366a0                uip_lladdr
                0x00000000000366a8                uip_appdata
                0x00000000000366ac                uip_flags
                0x00000000000366c0                uip_aligned_buf
                0x00000000000367b0                uip_listenports
                0x00000000000367c0                uip_len
                0x00000000000367c4                uip_sappdata
                0x00000000000367e0                uip_udp_conns
                0x0000000000036960                uip_udp_conn
                0x0000000000036964                uip_next_hdr
                0x0000000000036968                uip_conn
 COMMON         0x000000000003696c        0xc obj_cooja/mtype74.a(simEnvChange.o)
                0x000000000003696c                simEtimerPending
                0x0000000000036970                simProcessRunValue
                0x0000000000036974                simNextExpirationTime
 COMMON         0x0000000000036978        0x1 obj_cooja/mtype74.a(beep.o)
                0x0000000000036978                simBeeped
 COMMON         0x0000000000036979        0x3 obj_cooja/mtype74.a(button-sensor.o)
                0x0000000000036979                simButtonIsActive
                0x000000000003697a                simButtonIsDown
                0x000000000003697b                simButtonChanged
 COMMON         0x000000000003697c        0x1 obj_cooja/mtype74.a(leds-arch.o)
                0x000000000003697c                simLedsValue
 *fill*         0x000000000003697d        0x3 00
 COMMON         0x0000000000036980        0xc obj_cooja/mtype74.a(moteid.o)
                0x0000000000036980                simRandomSeed
                0x0000000000036984                simMoteIDChanged
                0x0000000000036988                simMoteID
 COMMON         0x000000000003698c        0x2 obj_cooja/mtype74.a(pir-sensor.o)
                0x000000000003698c                simPirIsActive
                0x000000000003698d                simPirChanged
 *fill*         0x000000000003698e       0x12 00
 COMMON         0x00000000000369a0      0x420 obj_cooja/mtype74.a(rs232.o)
                0x00000000000369a0                simSerialReceivingFlag
                0x00000000000369a4                simSerialReceivingLength
                0x00000000000369c0                simSerialReceivingData
 COMMON         0x0000000000036dc0        0x2 obj_cooja/mtype74.a(vib-sensor.o)
                0x0000000000036dc0                simVibChanged
                0x0000000000036dc1                simVibIsActive
 *fill*         0x0000000000036dc2        0x2 00
 COMMON         0x0000000000036dc4        0x4 obj_cooja/mtype74.a(clock.o)
                0x0000000000036dc4                simCurrentTime
 *fill*         0x0000000000036dc8       0x18 00
 COMMON         0x0000000000036de0      0x420 obj_cooja/mtype74.a(log.o)
                0x0000000000036de0                simLoggedLength
                0x0000000000036de4                simLoggedFlag
                0x0000000000036e00                simLoggedData
 COMMON         0x0000000000037200      0x100 obj_cooja/mtype74.a(cooja-radio.o)
                0x0000000000037200                simOutDataBuffer
                0x0000000000037280                simInDataBuffer
 COMMON         0x0000000000037300        0x1 obj_cooja/mtype74.a(sensors.o)
                0x0000000000037300                sensors_event
 *fill*         0x0000000000037301       0x1f 00
 COMMON         0x0000000000037320       0x48 obj_cooja/mtype74.a(rimestats.o)
                0x0000000000037320                rimestats
                0x0000000000037368                . = ALIGN ((. != 0x0)?0x4:0x1)
                0x0000000000037368                . = ALIGN (0x4)
                0x0000000000037368                . = ALIGN (0x4)
                0x0000000000037368                _end = .
                0x0000000000037368                PROVIDE (end, .)
                0x0000000000037368                . = DATA_SEGMENT_END (.)

.stab
 *(.stab)

.stabstr
 *(.stabstr)

.stab.excl
 *(.stab.excl)

.stab.exclstr
 *(.stab.exclstr)

.stab.index
 *(.stab.index)

.stab.indexstr
 *(.stab.indexstr)

.comment        0x0000000000000000       0x2a
 *(.comment)
 .comment       0x0000000000000000       0x2a /usr/lib/gcc/i686-linux-gnu/4.6/crtbeginS.o
                                         0x2b (size before relaxing)
 .comment       0x0000000000000000       0x2b server.co
 .comment       0x0000000000000000       0x2b obj_cooja/mtype74.o
 .comment       0x0000000000000000       0x2b obj_cooja/mtype74.a(rimeaddr.o)
 .comment       0x0000000000000000       0x2b obj_cooja/mtype74.a(nullmac.o)
 .comment       0x0000000000000000       0x2b obj_cooja/mtype74.a(nullrdc.o)
 .comment       0x0000000000000000       0x2b obj_cooja/mtype74.a(mac.o)
 .comment       0x0000000000000000       0x2b obj_cooja/mtype74.a(framer-802154.o)
 .comment       0x0000000000000000       0x2b obj_cooja/mtype74.a(rpl-dag.o)
 .comment       0x0000000000000000       0x2b obj_cooja/mtype74.a(rpl-icmp6.o)
 .comment       0x0000000000000000       0x2b obj_cooja/mtype74.a(rpl-timers.o)
 .comment       0x0000000000000000       0x2b obj_cooja/mtype74.a(rpl-mrhof.o)
 .comment       0x0000000000000000       0x2b obj_cooja/mtype74.a(process.o)
 .comment       0x0000000000000000       0x2b obj_cooja/mtype74.a(autostart.o)
 .comment       0x0000000000000000       0x2b obj_cooja/mtype74.a(serial-line.o)
 .comment       0x0000000000000000       0x2b obj_cooja/mtype74.a(list.o)
 .comment       0x0000000000000000       0x2b obj_cooja/mtype74.a(etimer.o)
 .comment       0x0000000000000000       0x2b obj_cooja/mtype74.a(ctimer.o)
 .comment       0x0000000000000000       0x2b obj_cooja/mtype74.a(stimer.o)
 .comment       0x0000000000000000       0x2b obj_cooja/mtype74.a(random.o)
 .comment       0x0000000000000000       0x2b obj_cooja/mtype74.a(ringbuf.o)
 .comment       0x0000000000000000       0x2b obj_cooja/mtype74.a(nbr-table.o)
 .comment       0x0000000000000000       0x2b obj_cooja/mtype74.a(netstack.o)
 .comment       0x0000000000000000       0x2b obj_cooja/mtype74.a(packetbuf.o)
 .comment       0x0000000000000000       0x2b obj_cooja/mtype74.a(queuebuf.o)
 .comment       0x0000000000000000       0x2b obj_cooja/mtype74.a(sicslowpan.o)
 .comment       0x0000000000000000       0x2b obj_cooja/mtype74.a(simple-udp.o)
 .comment       0x0000000000000000       0x2b obj_cooja/mtype74.a(tcpip.o)
 .comment       0x0000000000000000       0x2b obj_cooja/mtype74.a(uip-debug.o)
 .comment       0x0000000000000000       0x2b obj_cooja/mtype74.a(uip-ds6-route.o)
 .comment       0x0000000000000000       0x2b obj_cooja/mtype74.a(uip-ds6-nbr.o)
 .comment       0x0000000000000000       0x2b obj_cooja/mtype74.a(uip-ds6.o)
 .comment       0x0000000000000000       0x2b obj_cooja/mtype74.a(uip-icmp6.o)
 .comment       0x0000000000000000       0x2b obj_cooja/mtype74.a(uip-nd6.o)
 .comment       0x0000000000000000       0x2b obj_cooja/mtype74.a(uip-packetqueue)
 .comment       0x0000000000000000       0x2b obj_cooja/mtype74.a(uip-udp-packet.)
 .comment       0x0000000000000000       0x2b obj_cooja/mtype74.a(uip6.o)
 .comment       0x0000000000000000       0x2b obj_cooja/mtype74.a(servreg-hack.o)
 .comment       0x0000000000000000       0x2b obj_cooja/mtype74.a(simEnvChange.o)
 .comment       0x0000000000000000       0x2b obj_cooja/mtype74.a(cooja_mt.o)
 .comment       0x0000000000000000       0x2b obj_cooja/mtype74.a(cooja_mtarch.o)
 .comment       0x0000000000000000       0x2b obj_cooja/mtype74.a(rtimer-arch.o)
 .comment       0x0000000000000000       0x2b obj_cooja/mtype74.a(watchdog.o)
 .comment       0x0000000000000000       0x2b obj_cooja/mtype74.a(beep.o)
 .comment       0x0000000000000000       0x2b obj_cooja/mtype74.a(button-sensor.o)
 .comment       0x0000000000000000       0x2b obj_cooja/mtype74.a(leds-arch.o)
 .comment       0x0000000000000000       0x2b obj_cooja/mtype74.a(moteid.o)
 .comment       0x0000000000000000       0x2b obj_cooja/mtype74.a(pir-sensor.o)
 .comment       0x0000000000000000       0x2b obj_cooja/mtype74.a(rs232.o)
 .comment       0x0000000000000000       0x2b obj_cooja/mtype74.a(vib-sensor.o)
 .comment       0x0000000000000000       0x2b obj_cooja/mtype74.a(clock.o)
 .comment       0x0000000000000000       0x2b obj_cooja/mtype74.a(log.o)
 .comment       0x0000000000000000       0x2b obj_cooja/mtype74.a(cfs-cooja.o)
 .comment       0x0000000000000000       0x2b obj_cooja/mtype74.a(cooja-radio.o)
 .comment       0x0000000000000000       0x2b obj_cooja/mtype74.a(sensors.o)
 .comment       0x0000000000000000       0x2b obj_cooja/mtype74.a(rimestats.o)
 .comment       0x0000000000000000       0x2b obj_cooja/mtype74.a(frame802154.o)
 .comment       0x0000000000000000       0x2b obj_cooja/mtype74.a(rpl.o)
 .comment       0x0000000000000000       0x2b obj_cooja/mtype74.a(rpl-ext-header.)
 .comment       0x0000000000000000       0x2b obj_cooja/mtype74.a(memb.o)
 .comment       0x0000000000000000       0x2b obj_cooja/mtype74.a(timer.o)
 .comment       0x0000000000000000       0x2b obj_cooja/mtype74.a(rtimer.o)
 .comment       0x0000000000000000       0x2b /usr/lib/gcc/i686-linux-gnu/4.6/crtendS.o

.debug
 *(.debug)

.line
 *(.line)

.debug_srcinfo
 *(.debug_srcinfo)

.debug_sfnames
 *(.debug_sfnames)

.debug_aranges  0x0000000000000000     0x1628
 *(.debug_aranges)
 .debug_aranges
                0x0000000000000000       0x40 server.co
 .debug_aranges
                0x0000000000000040       0x68 obj_cooja/mtype74.o
 .debug_aranges
                0x00000000000000a8       0x30 obj_cooja/mtype74.a(rimeaddr.o)
 .debug_aranges
                0x00000000000000d8       0x48 obj_cooja/mtype74.a(nullmac.o)
 .debug_aranges
                0x0000000000000120       0x78 obj_cooja/mtype74.a(nullrdc.o)
 .debug_aranges
                0x0000000000000198       0x20 obj_cooja/mtype74.a(mac.o)
 .debug_aranges
                0x00000000000001b8       0x50 obj_cooja/mtype74.a(framer-802154.o)
 .debug_aranges
                0x0000000000000208      0x168 obj_cooja/mtype74.a(rpl-dag.o)
 .debug_aranges
                0x0000000000000370       0x98 obj_cooja/mtype74.a(rpl-icmp6.o)
 .debug_aranges
                0x0000000000000408       0x50 obj_cooja/mtype74.a(rpl-timers.o)
 .debug_aranges
                0x0000000000000458       0x50 obj_cooja/mtype74.a(rpl-mrhof.o)
 .debug_aranges
                0x00000000000004a8       0x88 obj_cooja/mtype74.a(process.o)
 .debug_aranges
                0x0000000000000530       0x28 obj_cooja/mtype74.a(autostart.o)
 .debug_aranges
                0x0000000000000558       0x30 obj_cooja/mtype74.a(serial-line.o)
 .debug_aranges
                0x0000000000000588       0x78 obj_cooja/mtype74.a(list.o)
 .debug_aranges
                0x0000000000000600       0x88 obj_cooja/mtype74.a(etimer.o)
 .debug_aranges
                0x0000000000000688       0x50 obj_cooja/mtype74.a(ctimer.o)
 .debug_aranges
                0x00000000000006d8       0x48 obj_cooja/mtype74.a(stimer.o)
 .debug_aranges
                0x0000000000000720       0x28 obj_cooja/mtype74.a(random.o)
 .debug_aranges
                0x0000000000000748       0x40 obj_cooja/mtype74.a(ringbuf.o)
 .debug_aranges
                0x0000000000000788       0xb0 obj_cooja/mtype74.a(nbr-table.o)
 .debug_aranges
                0x0000000000000838       0x20 obj_cooja/mtype74.a(netstack.o)
 .debug_aranges
                0x0000000000000858       0xc0 obj_cooja/mtype74.a(packetbuf.o)
 .debug_aranges
                0x0000000000000918       0x70 obj_cooja/mtype74.a(queuebuf.o)
 .debug_aranges
                0x0000000000000988       0xa8 obj_cooja/mtype74.a(sicslowpan.o)
 .debug_aranges
                0x0000000000000a30       0x48 obj_cooja/mtype74.a(simple-udp.o)
 .debug_aranges
                0x0000000000000a78       0xb0 obj_cooja/mtype74.a(tcpip.o)
 .debug_aranges
                0x0000000000000b28       0x28 obj_cooja/mtype74.a(uip-debug.o)
 .debug_aranges
                0x0000000000000b50       0xb8 obj_cooja/mtype74.a(uip-ds6-route.o)
 .debug_aranges
                0x0000000000000c08       0x88 obj_cooja/mtype74.a(uip-ds6-nbr.o)
 .debug_aranges
                0x0000000000000c90       0xc8 obj_cooja/mtype74.a(uip-ds6.o)
 .debug_aranges
                0x0000000000000d58       0x30 obj_cooja/mtype74.a(uip-icmp6.o)
 .debug_aranges
                0x0000000000000d88       0x38 obj_cooja/mtype74.a(uip-nd6.o)
 .debug_aranges
                0x0000000000000dc0       0x50 obj_cooja/mtype74.a(uip-packetqueue)
 .debug_aranges
                0x0000000000000e10       0x28 obj_cooja/mtype74.a(uip-udp-packet.)
 .debug_aranges
                0x0000000000000e38       0xb0 obj_cooja/mtype74.a(uip6.o)
 .debug_aranges
                0x0000000000000ee8       0x70 obj_cooja/mtype74.a(servreg-hack.o)
 .debug_aranges
                0x0000000000000f58       0x28 obj_cooja/mtype74.a(simEnvChange.o)
 .debug_aranges
                0x0000000000000f80       0x48 obj_cooja/mtype74.a(cooja_mt.o)
 .debug_aranges
                0x0000000000000fc8       0x60 obj_cooja/mtype74.a(cooja_mtarch.o)
 .debug_aranges
                0x0000000000001028       0x48 obj_cooja/mtype74.a(rtimer-arch.o)
 .debug_aranges
                0x0000000000001070       0x40 obj_cooja/mtype74.a(watchdog.o)
 .debug_aranges
                0x00000000000010b0       0x70 obj_cooja/mtype74.a(beep.o)
 .debug_aranges
                0x0000000000001120       0x40 obj_cooja/mtype74.a(button-sensor.o)
 .debug_aranges
                0x0000000000001160       0x40 obj_cooja/mtype74.a(leds-arch.o)
 .debug_aranges
                0x00000000000011a0       0x28 obj_cooja/mtype74.a(moteid.o)
 .debug_aranges
                0x00000000000011c8       0x40 obj_cooja/mtype74.a(pir-sensor.o)
 .debug_aranges
                0x0000000000001208       0x58 obj_cooja/mtype74.a(rs232.o)
 .debug_aranges
                0x0000000000001260       0x40 obj_cooja/mtype74.a(vib-sensor.o)
 .debug_aranges
                0x00000000000012a0       0x48 obj_cooja/mtype74.a(clock.o)
 .debug_aranges
                0x00000000000012e8       0x60 obj_cooja/mtype74.a(log.o)
 .debug_aranges
                0x0000000000001348       0x70 obj_cooja/mtype74.a(cfs-cooja.o)
 .debug_aranges
                0x00000000000013b8       0xa0 obj_cooja/mtype74.a(cooja-radio.o)
 .debug_aranges
                0x0000000000001458       0x48 obj_cooja/mtype74.a(sensors.o)
 .debug_aranges
                0x00000000000014a0       0x40 obj_cooja/mtype74.a(frame802154.o)
 .debug_aranges
                0x00000000000014e0       0x50 obj_cooja/mtype74.a(rpl.o)
 .debug_aranges
                0x0000000000001530       0x50 obj_cooja/mtype74.a(rpl-ext-header.)
 .debug_aranges
                0x0000000000001580       0x38 obj_cooja/mtype74.a(memb.o)
 .debug_aranges
                0x00000000000015b8       0x40 obj_cooja/mtype74.a(timer.o)
 .debug_aranges
                0x00000000000015f8       0x30 obj_cooja/mtype74.a(rtimer.o)

.debug_pubnames
 *(.debug_pubnames)

.debug_info     0x0000000000000000    0x1a9f8
 *(.debug_info .gnu.linkonce.wi.*)
 .debug_info    0x0000000000000000     0x10f7 server.co
 .debug_info    0x00000000000010f7     0x3acc obj_cooja/mtype74.o
 .debug_info    0x0000000000004bc3      0x169 obj_cooja/mtype74.a(rimeaddr.o)
 .debug_info    0x0000000000004d2c      0x415 obj_cooja/mtype74.a(nullmac.o)
 .debug_info    0x0000000000005141      0xc1d obj_cooja/mtype74.a(nullrdc.o)
 .debug_info    0x0000000000005d5e      0x114 obj_cooja/mtype74.a(mac.o)
 .debug_info    0x0000000000005e72      0x5f3 obj_cooja/mtype74.a(framer-802154.o)
 .debug_info    0x0000000000006465     0x1860 obj_cooja/mtype74.a(rpl-dag.o)
 .debug_info    0x0000000000007cc5     0x1595 obj_cooja/mtype74.a(rpl-icmp6.o)
 .debug_info    0x000000000000925a      0x9a9 obj_cooja/mtype74.a(rpl-timers.o)
 .debug_info    0x0000000000009c03      0xa54 obj_cooja/mtype74.a(rpl-mrhof.o)
 .debug_info    0x000000000000a657      0x502 obj_cooja/mtype74.a(process.o)
 .debug_info    0x000000000000ab59      0x1b9 obj_cooja/mtype74.a(autostart.o)
 .debug_info    0x000000000000ad12      0x2f6 obj_cooja/mtype74.a(serial-line.o)
 .debug_info    0x000000000000b008      0x323 obj_cooja/mtype74.a(list.o)
 .debug_info    0x000000000000b32b      0x4b5 obj_cooja/mtype74.a(etimer.o)
 .debug_info    0x000000000000b7e0      0x457 obj_cooja/mtype74.a(ctimer.o)
 .debug_info    0x000000000000bc37      0x192 obj_cooja/mtype74.a(stimer.o)
 .debug_info    0x000000000000bdc9       0xb8 obj_cooja/mtype74.a(random.o)
 .debug_info    0x000000000000be81      0x1c3 obj_cooja/mtype74.a(ringbuf.o)
 .debug_info    0x000000000000c044      0x847 obj_cooja/mtype74.a(nbr-table.o)
 .debug_info    0x000000000000c88b      0x3ba obj_cooja/mtype74.a(netstack.o)
 .debug_info    0x000000000000cc45      0x5ba obj_cooja/mtype74.a(packetbuf.o)
 .debug_info    0x000000000000d1ff      0x69e obj_cooja/mtype74.a(queuebuf.o)
 .debug_info    0x000000000000d89d      0xe63 obj_cooja/mtype74.a(sicslowpan.o)
 .debug_info    0x000000000000e700      0x77e obj_cooja/mtype74.a(simple-udp.o)
 .debug_info    0x000000000000ee7e     0x1745 obj_cooja/mtype74.a(tcpip.o)
 .debug_info    0x00000000000105c3      0x1bc obj_cooja/mtype74.a(uip-debug.o)
 .debug_info    0x000000000001077f      0xcb3 obj_cooja/mtype74.a(uip-ds6-route.o)
 .debug_info    0x0000000000011432      0xb92 obj_cooja/mtype74.a(uip-ds6-nbr.o)
 .debug_info    0x0000000000011fc4      0xafa obj_cooja/mtype74.a(uip-ds6.o)
 .debug_info    0x0000000000012abe      0x51e obj_cooja/mtype74.a(uip-icmp6.o)
 .debug_info    0x0000000000012fdc      0x9e2 obj_cooja/mtype74.a(uip-nd6.o)
 .debug_info    0x00000000000139be      0x4c0 obj_cooja/mtype74.a(uip-packetqueue)
 .debug_info    0x0000000000013e7e      0x398 obj_cooja/mtype74.a(uip-udp-packet.)
 .debug_info    0x0000000000014216      0xf2a obj_cooja/mtype74.a(uip6.o)
 .debug_info    0x0000000000015140      0x874 obj_cooja/mtype74.a(servreg-hack.o)
 .debug_info    0x00000000000159b4      0x168 obj_cooja/mtype74.a(simEnvChange.o)
 .debug_info    0x0000000000015b1c      0x1fd obj_cooja/mtype74.a(cooja_mt.o)
 .debug_info    0x0000000000015d19      0x32b obj_cooja/mtype74.a(cooja_mtarch.o)
 .debug_info    0x0000000000016044      0x186 obj_cooja/mtype74.a(rtimer-arch.o)
 .debug_info    0x00000000000161ca       0x93 obj_cooja/mtype74.a(watchdog.o)
 .debug_info    0x000000000001625d      0x221 obj_cooja/mtype74.a(beep.o)
 .debug_info    0x000000000001647e      0x27b obj_cooja/mtype74.a(button-sensor.o)
 .debug_info    0x00000000000166f9      0x148 obj_cooja/mtype74.a(leds-arch.o)
 .debug_info    0x0000000000016841      0x116 obj_cooja/mtype74.a(moteid.o)
 .debug_info    0x0000000000016957      0x236 obj_cooja/mtype74.a(pir-sensor.o)
 .debug_info    0x0000000000016b8d      0x252 obj_cooja/mtype74.a(rs232.o)
 .debug_info    0x0000000000016ddf      0x236 obj_cooja/mtype74.a(vib-sensor.o)
 .debug_info    0x0000000000017015      0x16c obj_cooja/mtype74.a(clock.o)
 .debug_info    0x0000000000017181      0x2e3 obj_cooja/mtype74.a(log.o)
 .debug_info    0x0000000000017464      0x416 obj_cooja/mtype74.a(cfs-cooja.o)
 .debug_info    0x000000000001787a      0x983 obj_cooja/mtype74.a(cooja-radio.o)
 .debug_info    0x00000000000181fd      0x398 obj_cooja/mtype74.a(sensors.o)
 .debug_info    0x0000000000018595      0x146 obj_cooja/mtype74.a(rimestats.o)
 .debug_info    0x00000000000186db      0x46f obj_cooja/mtype74.a(frame802154.o)
 .debug_info    0x0000000000018b4a      0xce9 obj_cooja/mtype74.a(rpl.o)
 .debug_info    0x0000000000019833      0xce4 obj_cooja/mtype74.a(rpl-ext-header.)
 .debug_info    0x000000000001a517      0x1a5 obj_cooja/mtype74.a(memb.o)
 .debug_info    0x000000000001a6bc      0x181 obj_cooja/mtype74.a(timer.o)
 .debug_info    0x000000000001a83d      0x1bb obj_cooja/mtype74.a(rtimer.o)

.debug_abbrev   0x0000000000000000     0x58f1
 *(.debug_abbrev)
 .debug_abbrev  0x0000000000000000      0x23d server.co
 .debug_abbrev  0x000000000000023d      0x28d obj_cooja/mtype74.o
 .debug_abbrev  0x00000000000004ca       0xd4 obj_cooja/mtype74.a(rimeaddr.o)
 .debug_abbrev  0x000000000000059e      0x1d6 obj_cooja/mtype74.a(nullmac.o)
 .debug_abbrev  0x0000000000000774      0x2c4 obj_cooja/mtype74.a(nullrdc.o)
 .debug_abbrev  0x0000000000000a38       0xa2 obj_cooja/mtype74.a(mac.o)
 .debug_abbrev  0x0000000000000ada      0x1b9 obj_cooja/mtype74.a(framer-802154.o)
 .debug_abbrev  0x0000000000000c93      0x2a9 obj_cooja/mtype74.a(rpl-dag.o)
 .debug_abbrev  0x0000000000000f3c      0x2af obj_cooja/mtype74.a(rpl-icmp6.o)
 .debug_abbrev  0x00000000000011eb      0x17d obj_cooja/mtype74.a(rpl-timers.o)
 .debug_abbrev  0x0000000000001368      0x19e obj_cooja/mtype74.a(rpl-mrhof.o)
 .debug_abbrev  0x0000000000001506      0x1fd obj_cooja/mtype74.a(process.o)
 .debug_abbrev  0x0000000000001703       0xf7 obj_cooja/mtype74.a(autostart.o)
 .debug_abbrev  0x00000000000017fa      0x190 obj_cooja/mtype74.a(serial-line.o)
 .debug_abbrev  0x000000000000198a      0x11e obj_cooja/mtype74.a(list.o)
 .debug_abbrev  0x0000000000001aa8      0x1ce obj_cooja/mtype74.a(etimer.o)
 .debug_abbrev  0x0000000000001c76      0x197 obj_cooja/mtype74.a(ctimer.o)
 .debug_abbrev  0x0000000000001e0d       0xb8 obj_cooja/mtype74.a(stimer.o)
 .debug_abbrev  0x0000000000001ec5       0x69 obj_cooja/mtype74.a(random.o)
 .debug_abbrev  0x0000000000001f2e       0xd4 obj_cooja/mtype74.a(ringbuf.o)
 .debug_abbrev  0x0000000000002002      0x1a9 obj_cooja/mtype74.a(nbr-table.o)
 .debug_abbrev  0x00000000000021ab       0xdc obj_cooja/mtype74.a(netstack.o)
 .debug_abbrev  0x0000000000002287      0x1c0 obj_cooja/mtype74.a(packetbuf.o)
 .debug_abbrev  0x0000000000002447      0x1b8 obj_cooja/mtype74.a(queuebuf.o)
 .debug_abbrev  0x00000000000025ff      0x27e obj_cooja/mtype74.a(sicslowpan.o)
 .debug_abbrev  0x000000000000287d      0x1ea obj_cooja/mtype74.a(simple-udp.o)
 .debug_abbrev  0x0000000000002a67      0x2e9 obj_cooja/mtype74.a(tcpip.o)
 .debug_abbrev  0x0000000000002d50       0xca obj_cooja/mtype74.a(uip-debug.o)
 .debug_abbrev  0x0000000000002e1a      0x289 obj_cooja/mtype74.a(uip-ds6-route.o)
 .debug_abbrev  0x00000000000030a3      0x27d obj_cooja/mtype74.a(uip-ds6-nbr.o)
 .debug_abbrev  0x0000000000003320      0x1ea obj_cooja/mtype74.a(uip-ds6.o)
 .debug_abbrev  0x000000000000350a      0x139 obj_cooja/mtype74.a(uip-icmp6.o)
 .debug_abbrev  0x0000000000003643      0x214 obj_cooja/mtype74.a(uip-nd6.o)
 .debug_abbrev  0x0000000000003857      0x17f obj_cooja/mtype74.a(uip-packetqueue)
 .debug_abbrev  0x00000000000039d6      0x18b obj_cooja/mtype74.a(uip-udp-packet.)
 .debug_abbrev  0x0000000000003b61      0x25b obj_cooja/mtype74.a(uip6.o)
 .debug_abbrev  0x0000000000003dbc      0x263 obj_cooja/mtype74.a(servreg-hack.o)
 .debug_abbrev  0x000000000000401f       0xc2 obj_cooja/mtype74.a(simEnvChange.o)
 .debug_abbrev  0x00000000000040e1       0xe2 obj_cooja/mtype74.a(cooja_mt.o)
 .debug_abbrev  0x00000000000041c3      0x128 obj_cooja/mtype74.a(cooja_mtarch.o)
 .debug_abbrev  0x00000000000042eb       0xab obj_cooja/mtype74.a(rtimer-arch.o)
 .debug_abbrev  0x0000000000004396       0x2b obj_cooja/mtype74.a(watchdog.o)
 .debug_abbrev  0x00000000000043c1       0xdc obj_cooja/mtype74.a(beep.o)
 .debug_abbrev  0x000000000000449d       0xe8 obj_cooja/mtype74.a(button-sensor.o)
 .debug_abbrev  0x0000000000004585       0xd7 obj_cooja/mtype74.a(leds-arch.o)
 .debug_abbrev  0x000000000000465c       0x85 obj_cooja/mtype74.a(moteid.o)
 .debug_abbrev  0x00000000000046e1       0xcc obj_cooja/mtype74.a(pir-sensor.o)
 .debug_abbrev  0x00000000000047ad      0x13c obj_cooja/mtype74.a(rs232.o)
 .debug_abbrev  0x00000000000048e9       0xcc obj_cooja/mtype74.a(vib-sensor.o)
 .debug_abbrev  0x00000000000049b5       0xe4 obj_cooja/mtype74.a(clock.o)
 .debug_abbrev  0x0000000000004a99      0x120 obj_cooja/mtype74.a(log.o)
 .debug_abbrev  0x0000000000004bb9      0x135 obj_cooja/mtype74.a(cfs-cooja.o)
 .debug_abbrev  0x0000000000004cee      0x251 obj_cooja/mtype74.a(cooja-radio.o)
 .debug_abbrev  0x0000000000004f3f      0x19e obj_cooja/mtype74.a(sensors.o)
 .debug_abbrev  0x00000000000050dd       0x5d obj_cooja/mtype74.a(rimestats.o)
 .debug_abbrev  0x000000000000513a      0x141 obj_cooja/mtype74.a(frame802154.o)
 .debug_abbrev  0x000000000000527b      0x1b6 obj_cooja/mtype74.a(rpl.o)
 .debug_abbrev  0x0000000000005431      0x1f2 obj_cooja/mtype74.a(rpl-ext-header.)
 .debug_abbrev  0x0000000000005623       0xdd obj_cooja/mtype74.a(memb.o)
 .debug_abbrev  0x0000000000005700       0xd4 obj_cooja/mtype74.a(timer.o)
 .debug_abbrev  0x00000000000057d4      0x11d obj_cooja/mtype74.a(rtimer.o)

.debug_line     0x0000000000000000     0x90b2
 *(.debug_line)
 .debug_line    0x0000000000000000      0x31a server.co
 .debug_line    0x000000000000031a      0x558 obj_cooja/mtype74.o
 .debug_line    0x0000000000000872       0xb9 obj_cooja/mtype74.a(rimeaddr.o)
 .debug_line    0x000000000000092b      0x174 obj_cooja/mtype74.a(nullmac.o)
 .debug_line    0x0000000000000a9f      0x390 obj_cooja/mtype74.a(nullrdc.o)
 .debug_line    0x0000000000000e2f       0x90 obj_cooja/mtype74.a(mac.o)
 .debug_line    0x0000000000000ebf      0x20a obj_cooja/mtype74.a(framer-802154.o)
 .debug_line    0x00000000000010c9      0x94f obj_cooja/mtype74.a(rpl-dag.o)
 .debug_line    0x0000000000001a18      0x604 obj_cooja/mtype74.a(rpl-icmp6.o)
 .debug_line    0x000000000000201c      0x27d obj_cooja/mtype74.a(rpl-timers.o)
 .debug_line    0x0000000000002299      0x2c9 obj_cooja/mtype74.a(rpl-mrhof.o)
 .debug_line    0x0000000000002562      0x254 obj_cooja/mtype74.a(process.o)
 .debug_line    0x00000000000027b6       0xd4 obj_cooja/mtype74.a(autostart.o)
 .debug_line    0x000000000000288a      0x15e obj_cooja/mtype74.a(serial-line.o)
 .debug_line    0x00000000000029e8      0x1b4 obj_cooja/mtype74.a(list.o)
 .debug_line    0x0000000000002b9c      0x276 obj_cooja/mtype74.a(etimer.o)
 .debug_line    0x0000000000002e12      0x204 obj_cooja/mtype74.a(ctimer.o)
 .debug_line    0x0000000000003016       0xe3 obj_cooja/mtype74.a(stimer.o)
 .debug_line    0x00000000000030f9       0x69 obj_cooja/mtype74.a(random.o)
 .debug_line    0x0000000000003162       0xff obj_cooja/mtype74.a(ringbuf.o)
 .debug_line    0x0000000000003261      0x37c obj_cooja/mtype74.a(nbr-table.o)
 .debug_line    0x00000000000035dd       0xec obj_cooja/mtype74.a(netstack.o)
 .debug_line    0x00000000000036c9      0x2be obj_cooja/mtype74.a(packetbuf.o)
 .debug_line    0x0000000000003987      0x1f6 obj_cooja/mtype74.a(queuebuf.o)
 .debug_line    0x0000000000003b7d      0x7b2 obj_cooja/mtype74.a(sicslowpan.o)
 .debug_line    0x000000000000432f      0x1ef obj_cooja/mtype74.a(simple-udp.o)
 .debug_line    0x000000000000451e      0x52d obj_cooja/mtype74.a(tcpip.o)
 .debug_line    0x0000000000004a4b       0xe6 obj_cooja/mtype74.a(uip-debug.o)
 .debug_line    0x0000000000004b31      0x454 obj_cooja/mtype74.a(uip-ds6-route.o)
 .debug_line    0x0000000000004f85      0x3b6 obj_cooja/mtype74.a(uip-ds6-nbr.o)
 .debug_line    0x000000000000533b      0x46d obj_cooja/mtype74.a(uip-ds6.o)
 .debug_line    0x00000000000057a8      0x1c9 obj_cooja/mtype74.a(uip-icmp6.o)
 .debug_line    0x0000000000005971      0x3d1 obj_cooja/mtype74.a(uip-nd6.o)
 .debug_line    0x0000000000005d42      0x212 obj_cooja/mtype74.a(uip-packetqueue)
 .debug_line    0x0000000000005f54      0x118 obj_cooja/mtype74.a(uip-udp-packet.)
 .debug_line    0x000000000000606c      0x95f obj_cooja/mtype74.a(uip6.o)
 .debug_line    0x00000000000069cb      0x3a3 obj_cooja/mtype74.a(servreg-hack.o)
 .debug_line    0x0000000000006d6e      0x10f obj_cooja/mtype74.a(simEnvChange.o)
 .debug_line    0x0000000000006e7d      0x13c obj_cooja/mtype74.a(cooja_mt.o)
 .debug_line    0x0000000000006fb9      0x19e obj_cooja/mtype74.a(cooja_mtarch.o)
 .debug_line    0x0000000000007157      0x119 obj_cooja/mtype74.a(rtimer-arch.o)
 .debug_line    0x0000000000007270       0xa3 obj_cooja/mtype74.a(watchdog.o)
 .debug_line    0x0000000000007313      0x183 obj_cooja/mtype74.a(beep.o)
 .debug_line    0x0000000000007496      0x1b0 obj_cooja/mtype74.a(button-sensor.o)
 .debug_line    0x0000000000007646       0xe4 obj_cooja/mtype74.a(leds-arch.o)
 .debug_line    0x000000000000772a       0xb0 obj_cooja/mtype74.a(moteid.o)
 .debug_line    0x00000000000077da      0x127 obj_cooja/mtype74.a(pir-sensor.o)
 .debug_line    0x0000000000007901      0x14a obj_cooja/mtype74.a(rs232.o)
 .debug_line    0x0000000000007a4b      0x127 obj_cooja/mtype74.a(vib-sensor.o)
 .debug_line    0x0000000000007b72      0x129 obj_cooja/mtype74.a(clock.o)
 .debug_line    0x0000000000007c9b      0x1a9 obj_cooja/mtype74.a(log.o)
 .debug_line    0x0000000000007e44      0x1be obj_cooja/mtype74.a(cfs-cooja.o)
 .debug_line    0x0000000000008002      0x368 obj_cooja/mtype74.a(cooja-radio.o)
 .debug_line    0x000000000000836a      0x197 obj_cooja/mtype74.a(sensors.o)
 .debug_line    0x0000000000008501       0x83 obj_cooja/mtype74.a(rimestats.o)
 .debug_line    0x0000000000008584      0x20f obj_cooja/mtype74.a(frame802154.o)
 .debug_line    0x0000000000008793      0x30d obj_cooja/mtype74.a(rpl.o)
 .debug_line    0x0000000000008aa0      0x31e obj_cooja/mtype74.a(rpl-ext-header.)
 .debug_line    0x0000000000008dbe       0xf8 obj_cooja/mtype74.a(memb.o)
 .debug_line    0x0000000000008eb6      0x108 obj_cooja/mtype74.a(timer.o)
 .debug_line    0x0000000000008fbe       0xf4 obj_cooja/mtype74.a(rtimer.o)

.debug_frame
 *(.debug_frame)

.debug_str      0x0000000000000000     0x62a3
 *(.debug_str)
 .debug_str     0x0000000000000000      0x816 server.co
                                        0x9eb (size before relaxing)
 .debug_str     0x0000000000000816     0x17b1 obj_cooja/mtype74.o
                                       0x1ab0 (size before relaxing)
 .debug_str     0x0000000000001fc7       0x74 obj_cooja/mtype74.a(rimeaddr.o)
                                        0x147 (size before relaxing)
 .debug_str     0x000000000000203b       0x53 obj_cooja/mtype74.a(nullmac.o)
                                        0x21f (size before relaxing)
 .debug_str     0x000000000000208e      0x63f obj_cooja/mtype74.a(nullrdc.o)
                                        0x8d2 (size before relaxing)
 .debug_str     0x00000000000026cd       0x46 obj_cooja/mtype74.a(mac.o)
                                        0x15f (size before relaxing)
 .debug_str     0x0000000000002713       0x7d obj_cooja/mtype74.a(framer-802154.o)
                                        0x624 (size before relaxing)
 .debug_str     0x0000000000002790      0x538 obj_cooja/mtype74.a(rpl-dag.o)
                                        0xa77 (size before relaxing)
 .debug_str     0x0000000000002cc8      0x226 obj_cooja/mtype74.a(rpl-icmp6.o)
                                        0xc73 (size before relaxing)
 .debug_str     0x0000000000002eee       0xd1 obj_cooja/mtype74.a(rpl-timers.o)
                                        0x573 (size before relaxing)
 .debug_str     0x0000000000002fbf       0xba obj_cooja/mtype74.a(rpl-mrhof.o)
                                        0x59d (size before relaxing)
 .debug_str     0x0000000000003079      0x16c obj_cooja/mtype74.a(process.o)
                                        0x289 (size before relaxing)
 .debug_str     0x00000000000031e5       0x49 obj_cooja/mtype74.a(autostart.o)
                                        0x14a (size before relaxing)
 .debug_str     0x000000000000322e       0xc8 obj_cooja/mtype74.a(serial-line.o)
                                        0x209 (size before relaxing)
 .debug_str     0x00000000000032f6       0xad obj_cooja/mtype74.a(list.o)
                                         0xfc (size before relaxing)
 .debug_str     0x00000000000033a3      0x142 obj_cooja/mtype74.a(etimer.o)
                                        0x29f (size before relaxing)
 .debug_str     0x00000000000034e5       0xbc obj_cooja/mtype74.a(ctimer.o)
                                        0x233 (size before relaxing)
 .debug_str     0x00000000000035a1       0x7d obj_cooja/mtype74.a(stimer.o)
                                        0x138 (size before relaxing)
 .debug_str     0x000000000000361e       0x44 obj_cooja/mtype74.a(random.o)
                                         0xf7 (size before relaxing)
 .debug_str     0x0000000000003662       0x6b obj_cooja/mtype74.a(ringbuf.o)
                                        0x147 (size before relaxing)
 .debug_str     0x00000000000036cd      0x25b obj_cooja/mtype74.a(nbr-table.o)
                                        0x3c9 (size before relaxing)
 .debug_str     0x0000000000003928       0x37 obj_cooja/mtype74.a(netstack.o)
                                        0x1fa (size before relaxing)
 .debug_str     0x000000000000395f      0x1e7 obj_cooja/mtype74.a(packetbuf.o)
                                        0x610 (size before relaxing)
 .debug_str     0x0000000000003b46      0x199 obj_cooja/mtype74.a(queuebuf.o)
                                        0x5de (size before relaxing)
 .debug_str     0x0000000000003cdf      0x377 obj_cooja/mtype74.a(sicslowpan.o)
                                        0xa07 (size before relaxing)
 .debug_str     0x0000000000004056       0xed obj_cooja/mtype74.a(simple-udp.o)
                                        0x3f8 (size before relaxing)
 .debug_str     0x0000000000004143      0x210 obj_cooja/mtype74.a(tcpip.o)
                                        0xafc (size before relaxing)
 .debug_str     0x0000000000004353       0x58 obj_cooja/mtype74.a(uip-debug.o)
                                        0x15d (size before relaxing)
 .debug_str     0x00000000000043ab      0x320 obj_cooja/mtype74.a(uip-ds6-route.o)
                                        0x6fa (size before relaxing)
 .debug_str     0x00000000000046cb      0x1b1 obj_cooja/mtype74.a(uip-ds6-nbr.o)
                                        0x8ee (size before relaxing)
 .debug_str     0x000000000000487c      0x2f7 obj_cooja/mtype74.a(uip-ds6.o)
                                        0x603 (size before relaxing)
 .debug_str     0x0000000000004b73       0xa7 obj_cooja/mtype74.a(uip-icmp6.o)
                                        0x355 (size before relaxing)
 .debug_str     0x0000000000004c1a      0x103 obj_cooja/mtype74.a(uip-nd6.o)
                                        0x542 (size before relaxing)
 .debug_str     0x0000000000004d1d      0x100 obj_cooja/mtype74.a(uip-packetqueue)
                                        0x2ce (size before relaxing)
 .debug_str     0x0000000000004e1d       0x80 obj_cooja/mtype74.a(uip-udp-packet.)
                                        0x217 (size before relaxing)
 .debug_str     0x0000000000004e9d      0x2d8 obj_cooja/mtype74.a(uip6.o)
                                        0x789 (size before relaxing)
 .debug_str     0x0000000000005175      0x1dd obj_cooja/mtype74.a(servreg-hack.o)
                                        0x4c7 (size before relaxing)
 .debug_str     0x0000000000005352       0x37 obj_cooja/mtype74.a(simEnvChange.o)
                                        0x185 (size before relaxing)
 .debug_str     0x0000000000005389       0x85 obj_cooja/mtype74.a(cooja_mt.o)
                                        0x1af (size before relaxing)
 .debug_str     0x000000000000540e      0x104 obj_cooja/mtype74.a(cooja_mtarch.o)
                                        0x235 (size before relaxing)
 .debug_str     0x0000000000005512       0xcc obj_cooja/mtype74.a(rtimer-arch.o)
                                        0x1d3 (size before relaxing)
 .debug_str     0x00000000000055de       0x80 obj_cooja/mtype74.a(watchdog.o)
                                         0xaa (size before relaxing)
 .debug_str     0x000000000000565e       0xcd obj_cooja/mtype74.a(beep.o)
                                        0x1cc (size before relaxing)
 .debug_str     0x000000000000572b       0x79 obj_cooja/mtype74.a(button-sensor.o)
                                        0x1fc (size before relaxing)
 .debug_str     0x00000000000057a4       0x71 obj_cooja/mtype74.a(leds-arch.o)
                                        0x197 (size before relaxing)
 .debug_str     0x0000000000005815       0x50 obj_cooja/mtype74.a(moteid.o)
                                        0x182 (size before relaxing)
 .debug_str     0x0000000000005865       0x5e obj_cooja/mtype74.a(pir-sensor.o)
                                        0x1b9 (size before relaxing)
 .debug_str     0x00000000000058c3       0xe4 obj_cooja/mtype74.a(rs232.o)
                                        0x222 (size before relaxing)
 .debug_str     0x00000000000059a7       0x5e obj_cooja/mtype74.a(vib-sensor.o)
                                        0x1b9 (size before relaxing)
 .debug_str     0x0000000000005a05       0x6b obj_cooja/mtype74.a(clock.o)
                                        0x1ae (size before relaxing)
 .debug_str     0x0000000000005a70       0xce obj_cooja/mtype74.a(log.o)
                                        0x23c (size before relaxing)
 .debug_str     0x0000000000005b3e      0x116 obj_cooja/mtype74.a(cfs-cooja.o)
                                        0x25a (size before relaxing)
 .debug_str     0x0000000000005c54      0x1a6 obj_cooja/mtype74.a(cooja-radio.o)
                                        0x59d (size before relaxing)
 .debug_str     0x0000000000005dfa       0xaa obj_cooja/mtype74.a(sensors.o)
                                        0x21e (size before relaxing)
 .debug_str     0x0000000000005ea4       0x2f obj_cooja/mtype74.a(rimestats.o)
                                         0xfe (size before relaxing)
 .debug_str     0x0000000000005ed3       0xd1 obj_cooja/mtype74.a(frame802154.o)
                                        0x30d (size before relaxing)
 .debug_str     0x0000000000005fa4       0xd2 obj_cooja/mtype74.a(rpl.o)
                                        0x717 (size before relaxing)
 .debug_str     0x0000000000006076      0x10b obj_cooja/mtype74.a(rpl-ext-header.)
                                        0x6ee (size before relaxing)
 .debug_str     0x0000000000006181       0x55 obj_cooja/mtype74.a(memb.o)
                                        0x10f (size before relaxing)
 .debug_str     0x00000000000061d6       0x26 obj_cooja/mtype74.a(timer.o)
                                        0x134 (size before relaxing)
 .debug_str     0x00000000000061fc       0xa7 obj_cooja/mtype74.a(rtimer.o)
                                        0x18c (size before relaxing)

.debug_loc      0x0000000000000000     0x73a0
 *(.debug_loc)
 .debug_loc     0x0000000000000000      0x118 server.co
 .debug_loc     0x0000000000000118      0x218 obj_cooja/mtype74.o
 .debug_loc     0x0000000000000330       0xa8 obj_cooja/mtype74.a(rimeaddr.o)
 .debug_loc     0x00000000000003d8      0x150 obj_cooja/mtype74.a(nullmac.o)
 .debug_loc     0x0000000000000528      0x2a0 obj_cooja/mtype74.a(nullrdc.o)
 .debug_loc     0x00000000000007c8       0x38 obj_cooja/mtype74.a(mac.o)
 .debug_loc     0x0000000000000800      0x188 obj_cooja/mtype74.a(framer-802154.o)
 .debug_loc     0x0000000000000988      0x930 obj_cooja/mtype74.a(rpl-dag.o)
 .debug_loc     0x00000000000012b8      0x380 obj_cooja/mtype74.a(rpl-icmp6.o)
 .debug_loc     0x0000000000001638      0x188 obj_cooja/mtype74.a(rpl-timers.o)
 .debug_loc     0x00000000000017c0      0x188 obj_cooja/mtype74.a(rpl-mrhof.o)
 .debug_loc     0x0000000000001948      0x310 obj_cooja/mtype74.a(process.o)
 .debug_loc     0x0000000000001c58       0x70 obj_cooja/mtype74.a(autostart.o)
 .debug_loc     0x0000000000001cc8       0xa8 obj_cooja/mtype74.a(serial-line.o)
 .debug_loc     0x0000000000001d70      0x2a0 obj_cooja/mtype74.a(list.o)
 .debug_loc     0x0000000000002010      0x310 obj_cooja/mtype74.a(etimer.o)
 .debug_loc     0x0000000000002320      0x188 obj_cooja/mtype74.a(ctimer.o)
 .debug_loc     0x00000000000024a8      0x150 obj_cooja/mtype74.a(stimer.o)
 .debug_loc     0x00000000000025f8       0x70 obj_cooja/mtype74.a(random.o)
 .debug_loc     0x0000000000002668      0x118 obj_cooja/mtype74.a(ringbuf.o)
 .debug_loc     0x0000000000002780      0x428 obj_cooja/mtype74.a(nbr-table.o)
 .debug_loc     0x0000000000002ba8       0x38 obj_cooja/mtype74.a(netstack.o)
 .debug_loc     0x0000000000002be0      0x498 obj_cooja/mtype74.a(packetbuf.o)
 .debug_loc     0x0000000000003078      0x268 obj_cooja/mtype74.a(queuebuf.o)
 .debug_loc     0x00000000000032e0      0x3f0 obj_cooja/mtype74.a(sicslowpan.o)
 .debug_loc     0x00000000000036d0      0x150 obj_cooja/mtype74.a(simple-udp.o)
 .debug_loc     0x0000000000003820      0x428 obj_cooja/mtype74.a(tcpip.o)
 .debug_loc     0x0000000000003c48       0x70 obj_cooja/mtype74.a(uip-debug.o)
 .debug_loc     0x0000000000003cb8      0x460 obj_cooja/mtype74.a(uip-ds6-route.o)
 .debug_loc     0x0000000000004118      0x310 obj_cooja/mtype74.a(uip-ds6-nbr.o)
 .debug_loc     0x0000000000004428      0x4d0 obj_cooja/mtype74.a(uip-ds6.o)
 .debug_loc     0x00000000000048f8       0xa8 obj_cooja/mtype74.a(uip-icmp6.o)
 .debug_loc     0x00000000000049a0       0xe0 obj_cooja/mtype74.a(uip-nd6.o)
 .debug_loc     0x0000000000004a80      0x188 obj_cooja/mtype74.a(uip-packetqueue)
 .debug_loc     0x0000000000004c08       0x70 obj_cooja/mtype74.a(uip-udp-packet.)
 .debug_loc     0x0000000000004c78      0x428 obj_cooja/mtype74.a(uip6.o)
 .debug_loc     0x00000000000050a0      0x268 obj_cooja/mtype74.a(servreg-hack.o)
 .debug_loc     0x0000000000005308       0x70 obj_cooja/mtype74.a(simEnvChange.o)
 .debug_loc     0x0000000000005378      0x150 obj_cooja/mtype74.a(cooja_mt.o)
 .debug_loc     0x00000000000054c8      0x1f8 obj_cooja/mtype74.a(cooja_mtarch.o)
 .debug_loc     0x00000000000056c0      0x150 obj_cooja/mtype74.a(rtimer-arch.o)
 .debug_loc     0x0000000000005810      0x118 obj_cooja/mtype74.a(watchdog.o)
 .debug_loc     0x0000000000005928      0x268 obj_cooja/mtype74.a(beep.o)
 .debug_loc     0x0000000000005b90      0x118 obj_cooja/mtype74.a(button-sensor.o)
 .debug_loc     0x0000000000005ca8      0x118 obj_cooja/mtype74.a(leds-arch.o)
 .debug_loc     0x0000000000005dc0       0x70 obj_cooja/mtype74.a(moteid.o)
 .debug_loc     0x0000000000005e30      0x118 obj_cooja/mtype74.a(pir-sensor.o)
 .debug_loc     0x0000000000005f48      0x1c0 obj_cooja/mtype74.a(rs232.o)
 .debug_loc     0x0000000000006108      0x118 obj_cooja/mtype74.a(vib-sensor.o)
 .debug_loc     0x0000000000006220      0x150 obj_cooja/mtype74.a(clock.o)
 .debug_loc     0x0000000000006370      0x1f8 obj_cooja/mtype74.a(log.o)
 .debug_loc     0x0000000000006568      0x268 obj_cooja/mtype74.a(cfs-cooja.o)
 .debug_loc     0x00000000000067d0      0x3b8 obj_cooja/mtype74.a(cooja-radio.o)
 .debug_loc     0x0000000000006b88      0x150 obj_cooja/mtype74.a(sensors.o)
 .debug_loc     0x0000000000006cd8      0x118 obj_cooja/mtype74.a(frame802154.o)
 .debug_loc     0x0000000000006df0      0x188 obj_cooja/mtype74.a(rpl.o)
 .debug_loc     0x0000000000006f78      0x188 obj_cooja/mtype74.a(rpl-ext-header.)
 .debug_loc     0x0000000000007100       0xe0 obj_cooja/mtype74.a(memb.o)
 .debug_loc     0x00000000000071e0      0x118 obj_cooja/mtype74.a(timer.o)
 .debug_loc     0x00000000000072f8       0xa8 obj_cooja/mtype74.a(rtimer.o)

.debug_macinfo
 *(.debug_macinfo)

.debug_weaknames
 *(.debug_weaknames)

.debug_funcnames
 *(.debug_funcnames)

.debug_typenames
 *(.debug_typenames)

.debug_varnames
 *(.debug_varnames)

.debug_pubtypes
 *(.debug_pubtypes)

.debug_ranges   0x0000000000000000     0x1388
 *(.debug_ranges)
 .debug_ranges  0x0000000000000000       0x30 server.co
 .debug_ranges  0x0000000000000030       0x58 obj_cooja/mtype74.o
 .debug_ranges  0x0000000000000088       0x20 obj_cooja/mtype74.a(rimeaddr.o)
 .debug_ranges  0x00000000000000a8       0x38 obj_cooja/mtype74.a(nullmac.o)
 .debug_ranges  0x00000000000000e0       0xb0 obj_cooja/mtype74.a(nullrdc.o)
 .debug_ranges  0x0000000000000190       0x10 obj_cooja/mtype74.a(mac.o)
 .debug_ranges  0x00000000000001a0       0x40 obj_cooja/mtype74.a(framer-802154.o)
 .debug_ranges  0x00000000000001e0      0x158 obj_cooja/mtype74.a(rpl-dag.o)
 .debug_ranges  0x0000000000000338       0x88 obj_cooja/mtype74.a(rpl-icmp6.o)
 .debug_ranges  0x00000000000003c0       0x40 obj_cooja/mtype74.a(rpl-timers.o)
 .debug_ranges  0x0000000000000400       0x40 obj_cooja/mtype74.a(rpl-mrhof.o)
 .debug_ranges  0x0000000000000440       0x78 obj_cooja/mtype74.a(process.o)
 .debug_ranges  0x00000000000004b8       0x18 obj_cooja/mtype74.a(autostart.o)
 .debug_ranges  0x00000000000004d0       0x38 obj_cooja/mtype74.a(serial-line.o)
 .debug_ranges  0x0000000000000508       0x68 obj_cooja/mtype74.a(list.o)
 .debug_ranges  0x0000000000000570       0x90 obj_cooja/mtype74.a(etimer.o)
 .debug_ranges  0x0000000000000600       0x40 obj_cooja/mtype74.a(ctimer.o)
 .debug_ranges  0x0000000000000640       0x38 obj_cooja/mtype74.a(stimer.o)
 .debug_ranges  0x0000000000000678       0x18 obj_cooja/mtype74.a(random.o)
 .debug_ranges  0x0000000000000690       0x30 obj_cooja/mtype74.a(ringbuf.o)
 .debug_ranges  0x00000000000006c0       0xd0 obj_cooja/mtype74.a(nbr-table.o)
 .debug_ranges  0x0000000000000790       0x10 obj_cooja/mtype74.a(netstack.o)
 .debug_ranges  0x00000000000007a0       0xb0 obj_cooja/mtype74.a(packetbuf.o)
 .debug_ranges  0x0000000000000850       0x60 obj_cooja/mtype74.a(queuebuf.o)
 .debug_ranges  0x00000000000008b0       0xe0 obj_cooja/mtype74.a(sicslowpan.o)
 .debug_ranges  0x0000000000000990       0x38 obj_cooja/mtype74.a(simple-udp.o)
 .debug_ranges  0x00000000000009c8       0xa0 obj_cooja/mtype74.a(tcpip.o)
 .debug_ranges  0x0000000000000a68       0x18 obj_cooja/mtype74.a(uip-debug.o)
 .debug_ranges  0x0000000000000a80       0xa8 obj_cooja/mtype74.a(uip-ds6-route.o)
 .debug_ranges  0x0000000000000b28       0x78 obj_cooja/mtype74.a(uip-ds6-nbr.o)
 .debug_ranges  0x0000000000000ba0       0xb8 obj_cooja/mtype74.a(uip-ds6.o)
 .debug_ranges  0x0000000000000c58       0x20 obj_cooja/mtype74.a(uip-icmp6.o)
 .debug_ranges  0x0000000000000c78       0x58 obj_cooja/mtype74.a(uip-nd6.o)
 .debug_ranges  0x0000000000000cd0       0x40 obj_cooja/mtype74.a(uip-packetqueue)
 .debug_ranges  0x0000000000000d10       0x18 obj_cooja/mtype74.a(uip-udp-packet.)
 .debug_ranges  0x0000000000000d28       0xa0 obj_cooja/mtype74.a(uip6.o)
 .debug_ranges  0x0000000000000dc8       0x60 obj_cooja/mtype74.a(servreg-hack.o)
 .debug_ranges  0x0000000000000e28       0x18 obj_cooja/mtype74.a(simEnvChange.o)
 .debug_ranges  0x0000000000000e40       0x38 obj_cooja/mtype74.a(cooja_mt.o)
 .debug_ranges  0x0000000000000e78       0x50 obj_cooja/mtype74.a(cooja_mtarch.o)
 .debug_ranges  0x0000000000000ec8       0x38 obj_cooja/mtype74.a(rtimer-arch.o)
 .debug_ranges  0x0000000000000f00       0x30 obj_cooja/mtype74.a(watchdog.o)
 .debug_ranges  0x0000000000000f30       0x60 obj_cooja/mtype74.a(beep.o)
 .debug_ranges  0x0000000000000f90       0x30 obj_cooja/mtype74.a(button-sensor.o)
 .debug_ranges  0x0000000000000fc0       0x30 obj_cooja/mtype74.a(leds-arch.o)
 .debug_ranges  0x0000000000000ff0       0x18 obj_cooja/mtype74.a(moteid.o)
 .debug_ranges  0x0000000000001008       0x30 obj_cooja/mtype74.a(pir-sensor.o)
 .debug_ranges  0x0000000000001038       0x48 obj_cooja/mtype74.a(rs232.o)
 .debug_ranges  0x0000000000001080       0x30 obj_cooja/mtype74.a(vib-sensor.o)
 .debug_ranges  0x00000000000010b0       0x38 obj_cooja/mtype74.a(clock.o)
 .debug_ranges  0x00000000000010e8       0x50 obj_cooja/mtype74.a(log.o)
 .debug_ranges  0x0000000000001138       0x60 obj_cooja/mtype74.a(cfs-cooja.o)
 .debug_ranges  0x0000000000001198       0x90 obj_cooja/mtype74.a(cooja-radio.o)
 .debug_ranges  0x0000000000001228       0x38 obj_cooja/mtype74.a(sensors.o)
 .debug_ranges  0x0000000000001260       0x30 obj_cooja/mtype74.a(frame802154.o)
 .debug_ranges  0x0000000000001290       0x40 obj_cooja/mtype74.a(rpl.o)
 .debug_ranges  0x00000000000012d0       0x40 obj_cooja/mtype74.a(rpl-ext-header.)
 .debug_ranges  0x0000000000001310       0x28 obj_cooja/mtype74.a(memb.o)
 .debug_ranges  0x0000000000001338       0x30 obj_cooja/mtype74.a(timer.o)
 .debug_ranges  0x0000000000001368       0x20 obj_cooja/mtype74.a(rtimer.o)

.gnu.attributes
 *(.gnu.attributes)

/DISCARD/
 *(.note.GNU-stack)
 *(.gnu_debuglink)
 *(.gnu.lto_*)
OUTPUT(obj_cooja/mtype74.cooja elf32-i386)
