Archive member included because of file (symbol)

obj_cooja/mtype782.a(rimeaddr.o)
                              obj_cooja/mtype782.o (rimeaddr_node_addr)
obj_cooja/mtype782.a(nullrdc.o)
                              obj_cooja/mtype782.o (nullrdc_driver)
obj_cooja/mtype782.a(mac.o)   obj_cooja/mtype782.a(nullrdc.o) (mac_call_sent_callback)
obj_cooja/mtype782.a(framer-802154.o)
                              obj_cooja/mtype782.a(nullrdc.o) (framer_802154)
obj_cooja/mtype782.a(csma.o)  obj_cooja/mtype782.o (csma_driver)
obj_cooja/mtype782.a(process.o)
                              obj_cooja/mtype782.o (process_start)
obj_cooja/mtype782.a(autostart.o)
                              obj_cooja/mtype782.o (autostart_start)
obj_cooja/mtype782.a(serial-line.o)
                              obj_cooja/mtype782.o (serial_line_init)
obj_cooja/mtype782.a(memb.o)  obj_cooja/mtype782.a(csma.o) (memb_init)
obj_cooja/mtype782.a(list.o)  obj_cooja/mtype782.a(csma.o) (list_init)
obj_cooja/mtype782.a(etimer.o)
                              obj_cooja/mtype782.o (etimer_process)
obj_cooja/mtype782.a(ctimer.o)
                              obj_cooja/mtype782.o (ctimer_init)
obj_cooja/mtype782.a(random.o)
                              obj_cooja/mtype782.a(framer-802154.o) (random_rand)
obj_cooja/mtype782.a(ringbuf.o)
                              obj_cooja/mtype782.a(serial-line.o) (ringbuf_init)
obj_cooja/mtype782.a(netstack.o)
                              obj_cooja/mtype782.o (netstack_init)
obj_cooja/mtype782.a(packetbuf.o)
                              obj_cooja/mtype782.a(nullrdc.o) (packetbuf_attrs)
obj_cooja/mtype782.a(queuebuf.o)
                              obj_cooja/mtype782.o (queuebuf_init)
obj_cooja/mtype782.a(sicslowpan.o)
                              obj_cooja/mtype782.o (sicslowpan_driver)
obj_cooja/mtype782.a(simple-udp.o)
                              jammer.co (simple_udp_sendto)
obj_cooja/mtype782.a(tcpip.o)
                              obj_cooja/mtype782.a(simple-udp.o) (tcpip_event)
obj_cooja/mtype782.a(uip-ds6-route.o)
                              obj_cooja/mtype782.a(tcpip.o) (uip_ds6_route_nexthop)
obj_cooja/mtype782.a(uip-ds6-nbr.o)
                              obj_cooja/mtype782.a(tcpip.o) (uip_ds6_nbr_add)
obj_cooja/mtype782.a(uip-ds6.o)
                              obj_cooja/mtype782.a(tcpip.o) (uip_ds6_timer_periodic)
obj_cooja/mtype782.a(uip-nd6.o)
                              obj_cooja/mtype782.a(tcpip.o) (uip_nd6_ns_output)
obj_cooja/mtype782.a(uip-packetqueue)
                              obj_cooja/mtype782.a(uip-ds6-nbr.o) (uip_packetqueue_new)
obj_cooja/mtype782.a(uip-udp-packet.)
                              obj_cooja/mtype782.a(simple-udp.o) (uip_udp_packet_sendto)
obj_cooja/mtype782.a(uip6.o)  obj_cooja/mtype782.o (uip_lladdr)
obj_cooja/mtype782.a(simEnvChange.o)
                              obj_cooja/mtype782.o (simDontFallAsleep)
obj_cooja/mtype782.a(cooja_mt.o)
                              obj_cooja/mtype782.o (cooja_mt_start)
obj_cooja/mtype782.a(cooja_mtarch.o)
                              obj_cooja/mtype782.a(cooja_mt.o) (cooja_mtarch_init)
obj_cooja/mtype782.a(rtimer-arch.o)
                              obj_cooja/mtype782.o (rtimer_arch_next)
obj_cooja/mtype782.a(watchdog.o)
                              obj_cooja/mtype782.a(nullrdc.o) (watchdog_periodic)
obj_cooja/mtype782.a(beep.o)  obj_cooja/mtype782.o (beep_interface)
obj_cooja/mtype782.a(button-sensor.o)
                              obj_cooja/mtype782.o (button_interface)
obj_cooja/mtype782.a(leds-arch.o)
                              obj_cooja/mtype782.o (leds_interface)
obj_cooja/mtype782.a(moteid.o)
                              obj_cooja/mtype782.o (moteid_interface)
obj_cooja/mtype782.a(pir-sensor.o)
                              obj_cooja/mtype782.o (pir_interface)
obj_cooja/mtype782.a(rs232.o)
                              obj_cooja/mtype782.o (rs232_interface)
obj_cooja/mtype782.a(vib-sensor.o)
                              obj_cooja/mtype782.o (vib_interface)
obj_cooja/mtype782.a(clock.o)
                              obj_cooja/mtype782.o (clock_interface)
obj_cooja/mtype782.a(log.o)   obj_cooja/mtype782.o (simlog_interface)
obj_cooja/mtype782.a(cfs-cooja.o)
                              obj_cooja/mtype782.o (cfs_interface)
obj_cooja/mtype782.a(cooja-radio.o)
                              obj_cooja/mtype782.o (radio_interface)
obj_cooja/mtype782.a(sensors.o)
                              obj_cooja/mtype782.o (sensors_process)
obj_cooja/mtype782.a(rimestats.o)
                              obj_cooja/mtype782.a(nullrdc.o) (rimestats)
obj_cooja/mtype782.a(frame802154.o)
                              obj_cooja/mtype782.a(framer-802154.o) (frame802154_hdrlen)
obj_cooja/mtype782.a(rpl.o)   obj_cooja/mtype782.a(uip-ds6-nbr.o) (rpl_link_neighbor_callback)
obj_cooja/mtype782.a(rpl-dag.o)
                              obj_cooja/mtype782.a(rpl.o) (instance_table)
obj_cooja/mtype782.a(rpl-icmp6.o)
                              obj_cooja/mtype782.a(rpl-dag.o) (dao_output)
obj_cooja/mtype782.a(rpl-timers.o)
                              obj_cooja/mtype782.a(rpl.o) (rpl_reset_periodic_timer)
obj_cooja/mtype782.a(rpl-mrhof.o)
                              obj_cooja/mtype782.a(rpl-dag.o) (rpl_mrhof)
obj_cooja/mtype782.a(rpl-ext-header.)
                              obj_cooja/mtype782.a(uip6.o) (rpl_verify_header)
obj_cooja/mtype782.a(timer.o)
                              obj_cooja/mtype782.a(etimer.o) (timer_set)
obj_cooja/mtype782.a(rtimer.o)
                              obj_cooja/mtype782.a(rtimer-arch.o) (rtimer_run_next)
obj_cooja/mtype782.a(stimer.o)
                              obj_cooja/mtype782.a(tcpip.o) (stimer_set)
obj_cooja/mtype782.a(nbr-table.o)
                              obj_cooja/mtype782.a(uip-ds6-route.o) (nbr_table_register)
obj_cooja/mtype782.a(uip-icmp6.o)
                              obj_cooja/mtype782.a(uip6.o) (uip_icmp6_echo_request_input)

Allocating common symbols
Common symbol       size              file

default_instance    0x4               obj_cooja/mtype782.a(rpl-dag.o)
simButtonIsActive   0x1               obj_cooja/mtype782.a(button-sensor.o)
simButtonIsDown     0x1               obj_cooja/mtype782.a(button-sensor.o)
simOutDataBuffer    0x80              obj_cooja/mtype782.a(cooja-radio.o)
uip_ds6_prefix_list
                    0x60              obj_cooja/mtype782.a(uip-ds6.o)
simSerialReceivingFlag
                    0x1               obj_cooja/mtype782.a(rs232.o)
simLoggedLength     0x4               obj_cooja/mtype782.a(log.o)
simSerialReceivingLength
                    0x4               obj_cooja/mtype782.a(rs232.o)
simEtimerPending    0x4               obj_cooja/mtype782.a(simEnvChange.o)
uip_slen            0x2               obj_cooja/mtype782.a(uip6.o)
uip_ds6_timer_periodic
                    0x10              obj_cooja/mtype782.a(uip-ds6.o)
uip_acc32           0x4               obj_cooja/mtype782.a(uip6.o)
uip_conns           0xc0              obj_cooja/mtype782.a(uip6.o)
simVibChanged       0x1               obj_cooja/mtype782.a(vib-sensor.o)
rimestats           0x48              obj_cooja/mtype782.a(rimestats.o)
uip_ds6_netif_addr_list_offset
                    0x1               obj_cooja/mtype782.a(uip-ds6.o)
uip_lladdr          0x8               obj_cooja/mtype782.a(uip6.o)
instance_table      0xf4              obj_cooja/mtype782.a(rpl-dag.o)
simProcessRunValue  0x4               obj_cooja/mtype782.a(simEnvChange.o)
serial_line_event_message
                    0x1               obj_cooja/mtype782.a(serial-line.o)
uip_appdata         0x4               obj_cooja/mtype782.a(uip6.o)
referenceVar        0x4               obj_cooja/mtype782.o
simCurrentTime      0x4               obj_cooja/mtype782.a(clock.o)
simVibIsActive      0x1               obj_cooja/mtype782.a(vib-sensor.o)
simNextExpirationTime
                    0x4               obj_cooja/mtype782.a(simEnvChange.o)
uip_ds6_if          0xf8              obj_cooja/mtype782.a(uip-ds6.o)
uip_flags           0x1               obj_cooja/mtype782.a(uip6.o)
uip_ds6_timer_ra    0x8               obj_cooja/mtype782.a(uip-ds6.o)
simSerialReceivingData
                    0x400             obj_cooja/mtype782.a(rs232.o)
simLoggedFlag       0x1               obj_cooja/mtype782.a(log.o)
packetbuf_attrs     0x30              obj_cooja/mtype782.a(packetbuf.o)
uip_ds6_addr_size   0x1               obj_cooja/mtype782.a(uip-ds6.o)
uip_aligned_buf     0xf0              obj_cooja/mtype782.a(uip6.o)
simRandomSeed       0x4               obj_cooja/mtype782.a(moteid.o)
simLoggedData       0x400             obj_cooja/mtype782.a(log.o)
simLedsValue        0x1               obj_cooja/mtype782.a(leds-arch.o)
uip_listenports     0x10              obj_cooja/mtype782.a(uip6.o)
uip_len             0x2               obj_cooja/mtype782.a(uip6.o)
simButtonChanged    0x1               obj_cooja/mtype782.a(button-sensor.o)
simPirIsActive      0x1               obj_cooja/mtype782.a(pir-sensor.o)
simInDataBuffer     0x80              obj_cooja/mtype782.a(cooja-radio.o)
simPirChanged       0x1               obj_cooja/mtype782.a(pir-sensor.o)
simBeeped           0x1               obj_cooja/mtype782.a(beep.o)
tcpip_event         0x1               obj_cooja/mtype782.a(tcpip.o)
uip_sappdata        0x4               obj_cooja/mtype782.a(uip6.o)
sensors_event       0x1               obj_cooja/mtype782.a(sensors.o)
uip_udp_conns       0x180             obj_cooja/mtype782.a(uip6.o)
rimeaddr_node_addr  0x8               obj_cooja/mtype782.a(rimeaddr.o)
frag_sender         0x8               obj_cooja/mtype782.a(sicslowpan.o)
packetbuf_addrs     0x20              obj_cooja/mtype782.a(packetbuf.o)
uip_udp_conn        0x4               obj_cooja/mtype782.a(uip6.o)
simMoteIDChanged    0x1               obj_cooja/mtype782.a(moteid.o)
sensors_flags       0x4               obj_cooja/mtype782.o
uip_next_hdr        0x4               obj_cooja/mtype782.a(uip6.o)
simMoteID           0x4               obj_cooja/mtype782.a(moteid.o)
uip_conn            0x4               obj_cooja/mtype782.a(uip6.o)

Discarded input sections

 .note.GNU-stack
                0x0000000000000000        0x0 /usr/lib/gcc/i686-linux-gnu/4.6/../../../i386-linux-gnu/crti.o
 .gnu_debuglink
                0x0000000000000000        0xc /usr/lib/gcc/i686-linux-gnu/4.6/../../../i386-linux-gnu/crti.o
 .group         0x0000000000000000        0x8 /usr/lib/gcc/i686-linux-gnu/4.6/crtbeginS.o
 .note.GNU-stack
                0x0000000000000000        0x0 /usr/lib/gcc/i686-linux-gnu/4.6/crtbeginS.o
 .note.GNU-stack
                0x0000000000000000        0x0 jammer.co
 .note.GNU-stack
                0x0000000000000000        0x0 obj_cooja/mtype782.o
 .note.GNU-stack
                0x0000000000000000        0x0 obj_cooja/mtype782.a(rimeaddr.o)
 .note.GNU-stack
                0x0000000000000000        0x0 obj_cooja/mtype782.a(nullrdc.o)
 .note.GNU-stack
                0x0000000000000000        0x0 obj_cooja/mtype782.a(mac.o)
 .note.GNU-stack
                0x0000000000000000        0x0 obj_cooja/mtype782.a(framer-802154.o)
 .note.GNU-stack
                0x0000000000000000        0x0 obj_cooja/mtype782.a(csma.o)
 .note.GNU-stack
                0x0000000000000000        0x0 obj_cooja/mtype782.a(process.o)
 .note.GNU-stack
                0x0000000000000000        0x0 obj_cooja/mtype782.a(autostart.o)
 .note.GNU-stack
                0x0000000000000000        0x0 obj_cooja/mtype782.a(serial-line.o)
 .note.GNU-stack
                0x0000000000000000        0x0 obj_cooja/mtype782.a(memb.o)
 .note.GNU-stack
                0x0000000000000000        0x0 obj_cooja/mtype782.a(list.o)
 .note.GNU-stack
                0x0000000000000000        0x0 obj_cooja/mtype782.a(etimer.o)
 .note.GNU-stack
                0x0000000000000000        0x0 obj_cooja/mtype782.a(ctimer.o)
 .note.GNU-stack
                0x0000000000000000        0x0 obj_cooja/mtype782.a(random.o)
 .note.GNU-stack
                0x0000000000000000        0x0 obj_cooja/mtype782.a(ringbuf.o)
 .note.GNU-stack
                0x0000000000000000        0x0 obj_cooja/mtype782.a(netstack.o)
 .note.GNU-stack
                0x0000000000000000        0x0 obj_cooja/mtype782.a(packetbuf.o)
 .note.GNU-stack
                0x0000000000000000        0x0 obj_cooja/mtype782.a(queuebuf.o)
 .note.GNU-stack
                0x0000000000000000        0x0 obj_cooja/mtype782.a(sicslowpan.o)
 .note.GNU-stack
                0x0000000000000000        0x0 obj_cooja/mtype782.a(simple-udp.o)
 .note.GNU-stack
                0x0000000000000000        0x0 obj_cooja/mtype782.a(tcpip.o)
 .note.GNU-stack
                0x0000000000000000        0x0 obj_cooja/mtype782.a(uip-ds6-route.o)
 .note.GNU-stack
                0x0000000000000000        0x0 obj_cooja/mtype782.a(uip-ds6-nbr.o)
 .note.GNU-stack
                0x0000000000000000        0x0 obj_cooja/mtype782.a(uip-ds6.o)
 .note.GNU-stack
                0x0000000000000000        0x0 obj_cooja/mtype782.a(uip-nd6.o)
 .note.GNU-stack
                0x0000000000000000        0x0 obj_cooja/mtype782.a(uip-packetqueue)
 .note.GNU-stack
                0x0000000000000000        0x0 obj_cooja/mtype782.a(uip-udp-packet.)
 .note.GNU-stack
                0x0000000000000000        0x0 obj_cooja/mtype782.a(uip6.o)
 .note.GNU-stack
                0x0000000000000000        0x0 obj_cooja/mtype782.a(simEnvChange.o)
 .note.GNU-stack
                0x0000000000000000        0x0 obj_cooja/mtype782.a(cooja_mt.o)
 .note.GNU-stack
                0x0000000000000000        0x0 obj_cooja/mtype782.a(cooja_mtarch.o)
 .note.GNU-stack
                0x0000000000000000        0x0 obj_cooja/mtype782.a(rtimer-arch.o)
 .note.GNU-stack
                0x0000000000000000        0x0 obj_cooja/mtype782.a(watchdog.o)
 .note.GNU-stack
                0x0000000000000000        0x0 obj_cooja/mtype782.a(beep.o)
 .note.GNU-stack
                0x0000000000000000        0x0 obj_cooja/mtype782.a(button-sensor.o)
 .note.GNU-stack
                0x0000000000000000        0x0 obj_cooja/mtype782.a(leds-arch.o)
 .note.GNU-stack
                0x0000000000000000        0x0 obj_cooja/mtype782.a(moteid.o)
 .note.GNU-stack
                0x0000000000000000        0x0 obj_cooja/mtype782.a(pir-sensor.o)
 .note.GNU-stack
                0x0000000000000000        0x0 obj_cooja/mtype782.a(rs232.o)
 .note.GNU-stack
                0x0000000000000000        0x0 obj_cooja/mtype782.a(vib-sensor.o)
 .note.GNU-stack
                0x0000000000000000        0x0 obj_cooja/mtype782.a(clock.o)
 .note.GNU-stack
                0x0000000000000000        0x0 obj_cooja/mtype782.a(log.o)
 .note.GNU-stack
                0x0000000000000000        0x0 obj_cooja/mtype782.a(cfs-cooja.o)
 .note.GNU-stack
                0x0000000000000000        0x0 obj_cooja/mtype782.a(cooja-radio.o)
 .note.GNU-stack
                0x0000000000000000        0x0 obj_cooja/mtype782.a(sensors.o)
 .note.GNU-stack
                0x0000000000000000        0x0 obj_cooja/mtype782.a(rimestats.o)
 .note.GNU-stack
                0x0000000000000000        0x0 obj_cooja/mtype782.a(frame802154.o)
 .note.GNU-stack
                0x0000000000000000        0x0 obj_cooja/mtype782.a(rpl.o)
 .note.GNU-stack
                0x0000000000000000        0x0 obj_cooja/mtype782.a(rpl-dag.o)
 .note.GNU-stack
                0x0000000000000000        0x0 obj_cooja/mtype782.a(rpl-icmp6.o)
 .note.GNU-stack
                0x0000000000000000        0x0 obj_cooja/mtype782.a(rpl-timers.o)
 .note.GNU-stack
                0x0000000000000000        0x0 obj_cooja/mtype782.a(rpl-mrhof.o)
 .note.GNU-stack
                0x0000000000000000        0x0 obj_cooja/mtype782.a(rpl-ext-header.)
 .note.GNU-stack
                0x0000000000000000        0x0 obj_cooja/mtype782.a(timer.o)
 .note.GNU-stack
                0x0000000000000000        0x0 obj_cooja/mtype782.a(rtimer.o)
 .note.GNU-stack
                0x0000000000000000        0x0 obj_cooja/mtype782.a(stimer.o)
 .note.GNU-stack
                0x0000000000000000        0x0 obj_cooja/mtype782.a(nbr-table.o)
 .note.GNU-stack
                0x0000000000000000        0x0 obj_cooja/mtype782.a(uip-icmp6.o)
 .group         0x0000000000000000        0x8 /usr/lib/gcc/i686-linux-gnu/4.6/crtendS.o
 .text.__i686.get_pc_thunk.bx
                0x0000000000000000        0x4 /usr/lib/gcc/i686-linux-gnu/4.6/crtendS.o
 .note.GNU-stack
                0x0000000000000000        0x0 /usr/lib/gcc/i686-linux-gnu/4.6/crtendS.o
 .note.GNU-stack
                0x0000000000000000        0x0 /usr/lib/gcc/i686-linux-gnu/4.6/../../../i386-linux-gnu/crtn.o
 .gnu_debuglink
                0x0000000000000000        0xc /usr/lib/gcc/i686-linux-gnu/4.6/../../../i386-linux-gnu/crtn.o

Memory Configuration

Name             Origin             Length             Attributes
*default*        0x0000000000000000 0xffffffffffffffff

Linker script and memory map

LOAD /usr/lib/gcc/i686-linux-gnu/4.6/../../../i386-linux-gnu/crti.o
LOAD /usr/lib/gcc/i686-linux-gnu/4.6/crtbeginS.o
LOAD jammer.co
LOAD obj_cooja/mtype782.o
LOAD obj_cooja/mtype782.a
LOAD /usr/lib/gcc/i686-linux-gnu/4.6/libgcc.a
LOAD /usr/lib/gcc/i686-linux-gnu/4.6/libgcc_s.so
LOAD /usr/lib/gcc/i686-linux-gnu/4.6/../../../i386-linux-gnu/libc.so
START GROUP
LOAD /lib/i386-linux-gnu/libc.so.6
LOAD /usr/lib/i386-linux-gnu/libc_nonshared.a
LOAD /lib/i386-linux-gnu/ld-linux.so.2
END GROUP
LOAD /usr/lib/gcc/i686-linux-gnu/4.6/libgcc.a
LOAD /usr/lib/gcc/i686-linux-gnu/4.6/libgcc_s.so
LOAD /usr/lib/gcc/i686-linux-gnu/4.6/crtendS.o
LOAD /usr/lib/gcc/i686-linux-gnu/4.6/../../../i386-linux-gnu/crtn.o
                0x0000000000000114                . = (0x0 + SIZEOF_HEADERS)

.note.gnu.build-id
                0x0000000000000114       0x24
 *(.note.gnu.build-id)
 .note.gnu.build-id
                0x0000000000000114       0x24 /usr/lib/gcc/i686-linux-gnu/4.6/../../../i386-linux-gnu/crti.o

.hash
 *(.hash)

.gnu.hash       0x0000000000000138      0xd78
 *(.gnu.hash)
 .gnu.hash      0x0000000000000138      0xd78 /usr/lib/gcc/i686-linux-gnu/4.6/../../../i386-linux-gnu/crti.o

.dynsym         0x0000000000000eb0     0x1e00
 *(.dynsym)
 .dynsym        0x0000000000000eb0     0x1e00 /usr/lib/gcc/i686-linux-gnu/4.6/../../../i386-linux-gnu/crti.o

.dynstr         0x0000000000002cb0     0x1e51
 *(.dynstr)
 .dynstr        0x0000000000002cb0     0x1e51 /usr/lib/gcc/i686-linux-gnu/4.6/../../../i386-linux-gnu/crti.o

.gnu.version    0x0000000000004b02      0x3c0
 *(.gnu.version)
 .gnu.version   0x0000000000004b02      0x3c0 /usr/lib/gcc/i686-linux-gnu/4.6/../../../i386-linux-gnu/crti.o

.gnu.version_d  0x0000000000004ec4        0x0
 *(.gnu.version_d)
 .gnu.version_d
                0x0000000000000000        0x0 /usr/lib/gcc/i686-linux-gnu/4.6/../../../i386-linux-gnu/crti.o

.gnu.version_r  0x0000000000004ec4       0x40
 *(.gnu.version_r)
 .gnu.version_r
                0x0000000000004ec4       0x40 /usr/lib/gcc/i686-linux-gnu/4.6/../../../i386-linux-gnu/crti.o

.rel.dyn        0x0000000000004f04     0x7d20
 *(.rel.init)
 *(.rel.text .rel.text.* .rel.gnu.linkonce.t.*)
 .rel.text      0x0000000000000000        0x0 /usr/lib/gcc/i686-linux-gnu/4.6/../../../i386-linux-gnu/crti.o
 .rel.text.process_thread_broadcast_example_process
                0x0000000000004f04       0x68 /usr/lib/gcc/i686-linux-gnu/4.6/../../../i386-linux-gnu/crti.o
 .rel.text.print_processes
                0x0000000000004f6c       0x28 /usr/lib/gcc/i686-linux-gnu/4.6/../../../i386-linux-gnu/crti.o
 .rel.text.rtimer_thread_loop
                0x0000000000004f94       0x10 /usr/lib/gcc/i686-linux-gnu/4.6/../../../i386-linux-gnu/crti.o
 .rel.text.set_rime_addr
                0x0000000000004fa4       0x50 /usr/lib/gcc/i686-linux-gnu/4.6/../../../i386-linux-gnu/crti.o
 .rel.text.contiki_init
                0x0000000000004ff4      0x1d0 /usr/lib/gcc/i686-linux-gnu/4.6/../../../i386-linux-gnu/crti.o
 .rel.text.process_run_thread_loop
                0x00000000000051c4       0x70 /usr/lib/gcc/i686-linux-gnu/4.6/../../../i386-linux-gnu/crti.o
 .rel.text.Java_se_sics_cooja_corecomm_Lib355_init
                0x0000000000005234       0x30 /usr/lib/gcc/i686-linux-gnu/4.6/../../../i386-linux-gnu/crti.o
 .rel.text.Java_se_sics_cooja_corecomm_Lib355_getMemory
                0x0000000000005264        0x8 /usr/lib/gcc/i686-linux-gnu/4.6/../../../i386-linux-gnu/crti.o
 .rel.text.Java_se_sics_cooja_corecomm_Lib355_setMemory
                0x000000000000526c       0x10 /usr/lib/gcc/i686-linux-gnu/4.6/../../../i386-linux-gnu/crti.o
 .rel.text.Java_se_sics_cooja_corecomm_Lib355_tick
                0x000000000000527c       0xc8 /usr/lib/gcc/i686-linux-gnu/4.6/../../../i386-linux-gnu/crti.o
 .rel.text.Java_se_sics_cooja_corecomm_Lib355_setReferenceAddress
                0x0000000000005344       0x10 /usr/lib/gcc/i686-linux-gnu/4.6/../../../i386-linux-gnu/crti.o
 .rel.text.rimeaddr_cmp
                0x0000000000005354        0x8 /usr/lib/gcc/i686-linux-gnu/4.6/../../../i386-linux-gnu/crti.o
 .rel.text.rimeaddr_set_node_addr
                0x000000000000535c       0x10 /usr/lib/gcc/i686-linux-gnu/4.6/../../../i386-linux-gnu/crti.o
 .rel.text.packetbuf_set_attr
                0x000000000000536c       0x20 /usr/lib/gcc/i686-linux-gnu/4.6/../../../i386-linux-gnu/crti.o
 .rel.text.packetbuf_attr
                0x000000000000538c       0x18 /usr/lib/gcc/i686-linux-gnu/4.6/../../../i386-linux-gnu/crti.o
 .rel.text.packetbuf_set_addr
                0x00000000000053a4       0x30 /usr/lib/gcc/i686-linux-gnu/4.6/../../../i386-linux-gnu/crti.o
 .rel.text.packetbuf_addr
                0x00000000000053d4       0x30 /usr/lib/gcc/i686-linux-gnu/4.6/../../../i386-linux-gnu/crti.o
 .rel.text.send_one_packet
                0x0000000000005404       0xd8 /usr/lib/gcc/i686-linux-gnu/4.6/../../../i386-linux-gnu/crti.o
 .rel.text.send_list
                0x00000000000054dc        0x8 /usr/lib/gcc/i686-linux-gnu/4.6/../../../i386-linux-gnu/crti.o
 .rel.text.packet_input
                0x00000000000054e4       0xd0 /usr/lib/gcc/i686-linux-gnu/4.6/../../../i386-linux-gnu/crti.o
 .rel.text.on   0x00000000000055b4       0x10 /usr/lib/gcc/i686-linux-gnu/4.6/../../../i386-linux-gnu/crti.o
 .rel.text.off  0x00000000000055c4       0x18 /usr/lib/gcc/i686-linux-gnu/4.6/../../../i386-linux-gnu/crti.o
 .rel.text.create
                0x00000000000055dc       0xb0 /usr/lib/gcc/i686-linux-gnu/4.6/../../../i386-linux-gnu/crti.o
 .rel.text.parse
                0x000000000000568c       0x30 /usr/lib/gcc/i686-linux-gnu/4.6/../../../i386-linux-gnu/crti.o
 .rel.text.neighbor_queue_from_addr
                0x00000000000056bc       0x20 /usr/lib/gcc/i686-linux-gnu/4.6/../../../i386-linux-gnu/crti.o
 .rel.text.default_timebase
                0x00000000000056dc        0x8 /usr/lib/gcc/i686-linux-gnu/4.6/../../../i386-linux-gnu/crti.o
 .rel.text.transmit_packet_list
                0x00000000000056e4       0x18 /usr/lib/gcc/i686-linux-gnu/4.6/../../../i386-linux-gnu/crti.o
 .rel.text.free_packet
                0x00000000000056fc       0x70 /usr/lib/gcc/i686-linux-gnu/4.6/../../../i386-linux-gnu/crti.o
 .rel.text.packet_sent
                0x000000000000576c       0x68 /usr/lib/gcc/i686-linux-gnu/4.6/../../../i386-linux-gnu/crti.o
 .rel.text.send_packet
                0x00000000000057d4      0x110 /usr/lib/gcc/i686-linux-gnu/4.6/../../../i386-linux-gnu/crti.o
 .rel.text.input_packet
                0x00000000000058e4        0x8 /usr/lib/gcc/i686-linux-gnu/4.6/../../../i386-linux-gnu/crti.o
 .rel.text.channel_check_interval
                0x00000000000058ec       0x10 /usr/lib/gcc/i686-linux-gnu/4.6/../../../i386-linux-gnu/crti.o
 .rel.text.init
                0x00000000000058fc       0x40 /usr/lib/gcc/i686-linux-gnu/4.6/../../../i386-linux-gnu/crti.o
 .rel.text.process_alloc_event
                0x000000000000593c       0x10 /usr/lib/gcc/i686-linux-gnu/4.6/../../../i386-linux-gnu/crti.o
 .rel.text.process_start
                0x000000000000594c       0x20 /usr/lib/gcc/i686-linux-gnu/4.6/../../../i386-linux-gnu/crti.o
 .rel.text.exit_process
                0x000000000000596c       0x50 /usr/lib/gcc/i686-linux-gnu/4.6/../../../i386-linux-gnu/crti.o
 .rel.text.call_process
                0x00000000000059bc        0x8 /usr/lib/gcc/i686-linux-gnu/4.6/../../../i386-linux-gnu/crti.o
 .rel.text.process_exit
                0x00000000000059c4        0x8 /usr/lib/gcc/i686-linux-gnu/4.6/../../../i386-linux-gnu/crti.o
 .rel.text.process_init
                0x00000000000059cc       0x38 /usr/lib/gcc/i686-linux-gnu/4.6/../../../i386-linux-gnu/crti.o
 .rel.text.do_poll
                0x0000000000005a04       0x10 /usr/lib/gcc/i686-linux-gnu/4.6/../../../i386-linux-gnu/crti.o
 .rel.text.do_event
                0x0000000000005a14       0xe8 /usr/lib/gcc/i686-linux-gnu/4.6/../../../i386-linux-gnu/crti.o
 .rel.text.process_run
                0x0000000000005afc       0x18 /usr/lib/gcc/i686-linux-gnu/4.6/../../../i386-linux-gnu/crti.o
 .rel.text.process_nevents
                0x0000000000005b14       0x10 /usr/lib/gcc/i686-linux-gnu/4.6/../../../i386-linux-gnu/crti.o
 .rel.text.process_post
                0x0000000000005b24       0x60 /usr/lib/gcc/i686-linux-gnu/4.6/../../../i386-linux-gnu/crti.o
 .rel.text.process_post_synch
                0x0000000000005b84       0x10 /usr/lib/gcc/i686-linux-gnu/4.6/../../../i386-linux-gnu/crti.o
 .rel.text.process_poll
                0x0000000000005b94        0x8 /usr/lib/gcc/i686-linux-gnu/4.6/../../../i386-linux-gnu/crti.o
 .rel.text.autostart_start
                0x0000000000005b9c        0x8 /usr/lib/gcc/i686-linux-gnu/4.6/../../../i386-linux-gnu/crti.o
 .rel.text.autostart_exit
                0x0000000000005ba4        0x8 /usr/lib/gcc/i686-linux-gnu/4.6/../../../i386-linux-gnu/crti.o
 .rel.text.serial_line_input_byte
                0x0000000000005bac       0x48 /usr/lib/gcc/i686-linux-gnu/4.6/../../../i386-linux-gnu/crti.o
 .rel.text.process_thread_serial_line_process
                0x0000000000005bf4       0x90 /usr/lib/gcc/i686-linux-gnu/4.6/../../../i386-linux-gnu/crti.o
 .rel.text.serial_line_init
                0x0000000000005c84       0x28 /usr/lib/gcc/i686-linux-gnu/4.6/../../../i386-linux-gnu/crti.o
 .rel.text.memb_init
                0x0000000000005cac       0x10 /usr/lib/gcc/i686-linux-gnu/4.6/../../../i386-linux-gnu/crti.o
 .rel.text.list_add
                0x0000000000005cbc       0x10 /usr/lib/gcc/i686-linux-gnu/4.6/../../../i386-linux-gnu/crti.o
 .rel.text.list_push
                0x0000000000005ccc        0x8 /usr/lib/gcc/i686-linux-gnu/4.6/../../../i386-linux-gnu/crti.o
 .rel.text.list_insert
                0x0000000000005cd4        0x8 /usr/lib/gcc/i686-linux-gnu/4.6/../../../i386-linux-gnu/crti.o
 .rel.text.update_time
                0x0000000000005cdc       0x28 /usr/lib/gcc/i686-linux-gnu/4.6/../../../i386-linux-gnu/crti.o
 .rel.text.process_thread_etimer_process
                0x0000000000005d04       0x60 /usr/lib/gcc/i686-linux-gnu/4.6/../../../i386-linux-gnu/crti.o
 .rel.text.etimer_request_poll
                0x0000000000005d64       0x10 /usr/lib/gcc/i686-linux-gnu/4.6/../../../i386-linux-gnu/crti.o
 .rel.text.add_timer
                0x0000000000005d74       0x30 /usr/lib/gcc/i686-linux-gnu/4.6/../../../i386-linux-gnu/crti.o
 .rel.text.etimer_set
                0x0000000000005da4        0x8 /usr/lib/gcc/i686-linux-gnu/4.6/../../../i386-linux-gnu/crti.o
 .rel.text.etimer_reset
                0x0000000000005dac        0x8 /usr/lib/gcc/i686-linux-gnu/4.6/../../../i386-linux-gnu/crti.o
 .rel.text.etimer_restart
                0x0000000000005db4        0x8 /usr/lib/gcc/i686-linux-gnu/4.6/../../../i386-linux-gnu/crti.o
 .rel.text.etimer_pending
                0x0000000000005dbc        0x8 /usr/lib/gcc/i686-linux-gnu/4.6/../../../i386-linux-gnu/crti.o
 .rel.text.etimer_next_expiration_time
                0x0000000000005dc4       0x10 /usr/lib/gcc/i686-linux-gnu/4.6/../../../i386-linux-gnu/crti.o
 .rel.text.etimer_stop
                0x0000000000005dd4       0x20 /usr/lib/gcc/i686-linux-gnu/4.6/../../../i386-linux-gnu/crti.o
 .rel.text.process_thread_ctimer_process
                0x0000000000005df4       0x58 /usr/lib/gcc/i686-linux-gnu/4.6/../../../i386-linux-gnu/crti.o
 .rel.text.ctimer_init
                0x0000000000005e4c       0x28 /usr/lib/gcc/i686-linux-gnu/4.6/../../../i386-linux-gnu/crti.o
 .rel.text.ctimer_set
                0x0000000000005e74       0x58 /usr/lib/gcc/i686-linux-gnu/4.6/../../../i386-linux-gnu/crti.o
 .rel.text.ctimer_reset
                0x0000000000005ecc       0x50 /usr/lib/gcc/i686-linux-gnu/4.6/../../../i386-linux-gnu/crti.o
 .rel.text.ctimer_restart
                0x0000000000005f1c       0x50 /usr/lib/gcc/i686-linux-gnu/4.6/../../../i386-linux-gnu/crti.o
 .rel.text.ctimer_stop
                0x0000000000005f6c       0x20 /usr/lib/gcc/i686-linux-gnu/4.6/../../../i386-linux-gnu/crti.o
 .rel.text.ctimer_expired
                0x0000000000005f8c       0x20 /usr/lib/gcc/i686-linux-gnu/4.6/../../../i386-linux-gnu/crti.o
 .rel.text.random_init
                0x0000000000005fac        0x8 /usr/lib/gcc/i686-linux-gnu/4.6/../../../i386-linux-gnu/crti.o
 .rel.text.random_rand
                0x0000000000005fb4        0x8 /usr/lib/gcc/i686-linux-gnu/4.6/../../../i386-linux-gnu/crti.o
 .rel.text.netstack_init
                0x0000000000005fbc       0x20 /usr/lib/gcc/i686-linux-gnu/4.6/../../../i386-linux-gnu/crti.o
 .rel.text.packetbuf_clear
                0x0000000000005fdc       0x38 /usr/lib/gcc/i686-linux-gnu/4.6/../../../i386-linux-gnu/crti.o
 .rel.text.packetbuf_clear_hdr
                0x0000000000006014        0x8 /usr/lib/gcc/i686-linux-gnu/4.6/../../../i386-linux-gnu/crti.o
 .rel.text.packetbuf_copyfrom
                0x000000000000601c       0x20 /usr/lib/gcc/i686-linux-gnu/4.6/../../../i386-linux-gnu/crti.o
 .rel.text.packetbuf_compact
                0x000000000000603c       0x58 /usr/lib/gcc/i686-linux-gnu/4.6/../../../i386-linux-gnu/crti.o
 .rel.text.packetbuf_copyto_hdr
                0x0000000000006094       0x28 /usr/lib/gcc/i686-linux-gnu/4.6/../../../i386-linux-gnu/crti.o
 .rel.text.packetbuf_copyto
                0x00000000000060bc       0x68 /usr/lib/gcc/i686-linux-gnu/4.6/../../../i386-linux-gnu/crti.o
 .rel.text.packetbuf_hdralloc
                0x0000000000006124       0x20 /usr/lib/gcc/i686-linux-gnu/4.6/../../../i386-linux-gnu/crti.o
 .rel.text.packetbuf_hdr_remove
                0x0000000000006144       0x10 /usr/lib/gcc/i686-linux-gnu/4.6/../../../i386-linux-gnu/crti.o
 .rel.text.packetbuf_hdrreduce
                0x0000000000006154       0x28 /usr/lib/gcc/i686-linux-gnu/4.6/../../../i386-linux-gnu/crti.o
 .rel.text.packetbuf_set_datalen
                0x000000000000617c        0x8 /usr/lib/gcc/i686-linux-gnu/4.6/../../../i386-linux-gnu/crti.o
 .rel.text.packetbuf_dataptr
                0x0000000000006184       0x10 /usr/lib/gcc/i686-linux-gnu/4.6/../../../i386-linux-gnu/crti.o
 .rel.text.packetbuf_hdrptr
                0x0000000000006194       0x10 /usr/lib/gcc/i686-linux-gnu/4.6/../../../i386-linux-gnu/crti.o
 .rel.text.packetbuf_reference
                0x00000000000061a4       0x18 /usr/lib/gcc/i686-linux-gnu/4.6/../../../i386-linux-gnu/crti.o
 .rel.text.packetbuf_is_reference
                0x00000000000061bc       0x10 /usr/lib/gcc/i686-linux-gnu/4.6/../../../i386-linux-gnu/crti.o
 .rel.text.packetbuf_reference_ptr
                0x00000000000061cc        0x8 /usr/lib/gcc/i686-linux-gnu/4.6/../../../i386-linux-gnu/crti.o
 .rel.text.packetbuf_datalen
                0x00000000000061d4        0x8 /usr/lib/gcc/i686-linux-gnu/4.6/../../../i386-linux-gnu/crti.o
 .rel.text.packetbuf_hdrlen
                0x00000000000061dc        0x8 /usr/lib/gcc/i686-linux-gnu/4.6/../../../i386-linux-gnu/crti.o
 .rel.text.packetbuf_totlen
                0x00000000000061e4       0x10 /usr/lib/gcc/i686-linux-gnu/4.6/../../../i386-linux-gnu/crti.o
 .rel.text.packetbuf_attr_clear
                0x00000000000061f4       0x20 /usr/lib/gcc/i686-linux-gnu/4.6/../../../i386-linux-gnu/crti.o
 .rel.text.packetbuf_attr_copyto
                0x0000000000006214       0x48 /usr/lib/gcc/i686-linux-gnu/4.6/../../../i386-linux-gnu/crti.o
 .rel.text.packetbuf_attr_copyfrom
                0x000000000000625c       0x48 /usr/lib/gcc/i686-linux-gnu/4.6/../../../i386-linux-gnu/crti.o
 .rel.text.queuebuf_init
                0x00000000000062a4       0x30 /usr/lib/gcc/i686-linux-gnu/4.6/../../../i386-linux-gnu/crti.o
 .rel.text.queuebuf_new_from_packetbuf
                0x00000000000062d4       0x60 /usr/lib/gcc/i686-linux-gnu/4.6/../../../i386-linux-gnu/crti.o
 .rel.text.queuebuf_update_attr_from_packetbuf
                0x0000000000006334        0x8 /usr/lib/gcc/i686-linux-gnu/4.6/../../../i386-linux-gnu/crti.o
 .rel.text.queuebuf_free
                0x000000000000633c       0x50 /usr/lib/gcc/i686-linux-gnu/4.6/../../../i386-linux-gnu/crti.o
 .rel.text.queuebuf_to_packetbuf
                0x000000000000638c       0x58 /usr/lib/gcc/i686-linux-gnu/4.6/../../../i386-linux-gnu/crti.o
 .rel.text.queuebuf_dataptr
                0x00000000000063e4       0x20 /usr/lib/gcc/i686-linux-gnu/4.6/../../../i386-linux-gnu/crti.o
 .rel.text.rime_sniffer_add
                0x0000000000006404        0x8 /usr/lib/gcc/i686-linux-gnu/4.6/../../../i386-linux-gnu/crti.o
 .rel.text.rime_sniffer_remove
                0x000000000000640c        0x8 /usr/lib/gcc/i686-linux-gnu/4.6/../../../i386-linux-gnu/crti.o
 .rel.text.set_packet_attrs
                0x0000000000006414       0x60 /usr/lib/gcc/i686-linux-gnu/4.6/../../../i386-linux-gnu/crti.o
 .rel.text.addr_context_lookup_by_prefix
                0x0000000000006474       0x20 /usr/lib/gcc/i686-linux-gnu/4.6/../../../i386-linux-gnu/crti.o
 .rel.text.addr_context_lookup_by_number
                0x0000000000006494       0x18 /usr/lib/gcc/i686-linux-gnu/4.6/../../../i386-linux-gnu/crti.o
 .rel.text.compress_addr_64
                0x00000000000064ac       0x30 /usr/lib/gcc/i686-linux-gnu/4.6/../../../i386-linux-gnu/crti.o
 .rel.text.uncompress_addr
                0x00000000000064dc       0x38 /usr/lib/gcc/i686-linux-gnu/4.6/../../../i386-linux-gnu/crti.o
 .rel.text.compress_hdr_hc06
                0x0000000000006514      0x5a0 /usr/lib/gcc/i686-linux-gnu/4.6/../../../i386-linux-gnu/crti.o
 .rel.text.uncompress_hdr_hc06
                0x0000000000006ab4      0x3e0 /usr/lib/gcc/i686-linux-gnu/4.6/../../../i386-linux-gnu/crti.o
 .rel.text.compress_hdr_ipv6
                0x0000000000006e94       0x50 /usr/lib/gcc/i686-linux-gnu/4.6/../../../i386-linux-gnu/crti.o
 .rel.text.output
                0x0000000000006ee4      0x2f8 /usr/lib/gcc/i686-linux-gnu/4.6/../../../i386-linux-gnu/crti.o
 .rel.text.input
                0x00000000000071dc      0x2e8 /usr/lib/gcc/i686-linux-gnu/4.6/../../../i386-linux-gnu/crti.o
 .rel.text.sicslowpan_init
                0x00000000000074c4       0x38 /usr/lib/gcc/i686-linux-gnu/4.6/../../../i386-linux-gnu/crti.o
 .rel.text.init_simple_udp
                0x00000000000074fc       0x20 /usr/lib/gcc/i686-linux-gnu/4.6/../../../i386-linux-gnu/crti.o
 .rel.text.simple_udp_send
                0x000000000000751c        0x8 /usr/lib/gcc/i686-linux-gnu/4.6/../../../i386-linux-gnu/crti.o
 .rel.text.simple_udp_sendto
                0x0000000000007524        0x8 /usr/lib/gcc/i686-linux-gnu/4.6/../../../i386-linux-gnu/crti.o
 .rel.text.simple_udp_sendto_port
                0x000000000000752c        0x8 /usr/lib/gcc/i686-linux-gnu/4.6/../../../i386-linux-gnu/crti.o
 .rel.text.simple_udp_register
                0x0000000000007534       0x28 /usr/lib/gcc/i686-linux-gnu/4.6/../../../i386-linux-gnu/crti.o
 .rel.text.process_thread_simple_udp_process
                0x000000000000755c       0x88 /usr/lib/gcc/i686-linux-gnu/4.6/../../../i386-linux-gnu/crti.o
 .rel.text.tcpip_output
                0x00000000000075e4       0x10 /usr/lib/gcc/i686-linux-gnu/4.6/../../../i386-linux-gnu/crti.o
 .rel.text.tcpip_set_outputfunc
                0x00000000000075f4        0x8 /usr/lib/gcc/i686-linux-gnu/4.6/../../../i386-linux-gnu/crti.o
 .rel.text.start_periodic_tcp_timer
                0x00000000000075fc       0x20 /usr/lib/gcc/i686-linux-gnu/4.6/../../../i386-linux-gnu/crti.o
 .rel.text.check_for_tcp_syn
                0x000000000000761c       0x10 /usr/lib/gcc/i686-linux-gnu/4.6/../../../i386-linux-gnu/crti.o
 .rel.text.tcp_connect
                0x000000000000762c       0x18 /usr/lib/gcc/i686-linux-gnu/4.6/../../../i386-linux-gnu/crti.o
 .rel.text.tcp_unlisten
                0x0000000000007644       0x38 /usr/lib/gcc/i686-linux-gnu/4.6/../../../i386-linux-gnu/crti.o
 .rel.text.tcp_listen
                0x000000000000767c       0x38 /usr/lib/gcc/i686-linux-gnu/4.6/../../../i386-linux-gnu/crti.o
 .rel.text.tcp_attach
                0x00000000000076b4        0x8 /usr/lib/gcc/i686-linux-gnu/4.6/../../../i386-linux-gnu/crti.o
 .rel.text.udp_attach
                0x00000000000076bc        0x8 /usr/lib/gcc/i686-linux-gnu/4.6/../../../i386-linux-gnu/crti.o
 .rel.text.udp_new
                0x00000000000076c4       0x10 /usr/lib/gcc/i686-linux-gnu/4.6/../../../i386-linux-gnu/crti.o
 .rel.text.udp_broadcast_new
                0x00000000000076d4       0x10 /usr/lib/gcc/i686-linux-gnu/4.6/../../../i386-linux-gnu/crti.o
 .rel.text.eventhandler
                0x00000000000076e4      0x128 /usr/lib/gcc/i686-linux-gnu/4.6/../../../i386-linux-gnu/crti.o
 .rel.text.tcpip_input
                0x000000000000780c       0x20 /usr/lib/gcc/i686-linux-gnu/4.6/../../../i386-linux-gnu/crti.o
 .rel.text.tcpip_ipv6_output
                0x000000000000782c      0x258 /usr/lib/gcc/i686-linux-gnu/4.6/../../../i386-linux-gnu/crti.o
 .rel.text.tcpip_poll_udp
                0x0000000000007a84       0x10 /usr/lib/gcc/i686-linux-gnu/4.6/../../../i386-linux-gnu/crti.o
 .rel.text.tcpip_poll_tcp
                0x0000000000007a94       0x10 /usr/lib/gcc/i686-linux-gnu/4.6/../../../i386-linux-gnu/crti.o
 .rel.text.tcpip_uipcall
                0x0000000000007aa4       0x60 /usr/lib/gcc/i686-linux-gnu/4.6/../../../i386-linux-gnu/crti.o
 .rel.text.process_thread_tcpip_process
                0x0000000000007b04       0x70 /usr/lib/gcc/i686-linux-gnu/4.6/../../../i386-linux-gnu/crti.o
 .rel.text.call_route_callback
                0x0000000000007b74       0x30 /usr/lib/gcc/i686-linux-gnu/4.6/../../../i386-linux-gnu/crti.o
 .rel.text.uip_ds6_notification_add
                0x0000000000007ba4       0x10 /usr/lib/gcc/i686-linux-gnu/4.6/../../../i386-linux-gnu/crti.o
 .rel.text.uip_ds6_notification_rm
                0x0000000000007bb4       0x10 /usr/lib/gcc/i686-linux-gnu/4.6/../../../i386-linux-gnu/crti.o
 .rel.text.uip_ds6_route_init
                0x0000000000007bc4       0x58 /usr/lib/gcc/i686-linux-gnu/4.6/../../../i386-linux-gnu/crti.o
 .rel.text.uip_ds6_route_nexthop_lladdr
                0x0000000000007c1c       0x10 /usr/lib/gcc/i686-linux-gnu/4.6/../../../i386-linux-gnu/crti.o
 .rel.text.uip_ds6_route_nexthop
                0x0000000000007c2c        0x8 /usr/lib/gcc/i686-linux-gnu/4.6/../../../i386-linux-gnu/crti.o
 .rel.text.uip_ds6_route_head
                0x0000000000007c34       0x20 /usr/lib/gcc/i686-linux-gnu/4.6/../../../i386-linux-gnu/crti.o
 .rel.text.uip_ds6_route_next
                0x0000000000007c54       0x20 /usr/lib/gcc/i686-linux-gnu/4.6/../../../i386-linux-gnu/crti.o
 .rel.text.uip_ds6_route_num_routes
                0x0000000000007c74        0x8 /usr/lib/gcc/i686-linux-gnu/4.6/../../../i386-linux-gnu/crti.o
 .rel.text.uip_ds6_route_lookup
                0x0000000000007c7c       0x18 /usr/lib/gcc/i686-linux-gnu/4.6/../../../i386-linux-gnu/crti.o
 .rel.text.uip_ds6_route_add
                0x0000000000007c94       0x60 /usr/lib/gcc/i686-linux-gnu/4.6/../../../i386-linux-gnu/crti.o
 .rel.text.uip_ds6_route_rm
                0x0000000000007cf4       0x48 /usr/lib/gcc/i686-linux-gnu/4.6/../../../i386-linux-gnu/crti.o
 .rel.text.rm_routelist
                0x0000000000007d3c       0x28 /usr/lib/gcc/i686-linux-gnu/4.6/../../../i386-linux-gnu/crti.o
 .rel.text.uip_ds6_route_rm_by_nexthop
                0x0000000000007d64       0x18 /usr/lib/gcc/i686-linux-gnu/4.6/../../../i386-linux-gnu/crti.o
 .rel.text.uip_ds6_defrt_add
                0x0000000000007d7c       0x30 /usr/lib/gcc/i686-linux-gnu/4.6/../../../i386-linux-gnu/crti.o
 .rel.text.uip_ds6_defrt_rm
                0x0000000000007dac       0x38 /usr/lib/gcc/i686-linux-gnu/4.6/../../../i386-linux-gnu/crti.o
 .rel.text.uip_ds6_defrt_lookup
                0x0000000000007de4       0x20 /usr/lib/gcc/i686-linux-gnu/4.6/../../../i386-linux-gnu/crti.o
 .rel.text.uip_ds6_defrt_choose
                0x0000000000007e04       0x20 /usr/lib/gcc/i686-linux-gnu/4.6/../../../i386-linux-gnu/crti.o
 .rel.text.uip_ds6_defrt_periodic
                0x0000000000007e24       0x38 /usr/lib/gcc/i686-linux-gnu/4.6/../../../i386-linux-gnu/crti.o
 .rel.text.uip_ds6_neighbors_init
                0x0000000000007e5c       0x18 /usr/lib/gcc/i686-linux-gnu/4.6/../../../i386-linux-gnu/crti.o
 .rel.text.uip_ds6_nbr_add
                0x0000000000007e74       0x30 /usr/lib/gcc/i686-linux-gnu/4.6/../../../i386-linux-gnu/crti.o
 .rel.text.uip_ds6_nbr_rm
                0x0000000000007ea4       0x20 /usr/lib/gcc/i686-linux-gnu/4.6/../../../i386-linux-gnu/crti.o
 .rel.text.uip_ds6_nbr_get_ll
                0x0000000000007ec4       0x10 /usr/lib/gcc/i686-linux-gnu/4.6/../../../i386-linux-gnu/crti.o
 .rel.text.uip_ds6_nbr_num
                0x0000000000007ed4       0x20 /usr/lib/gcc/i686-linux-gnu/4.6/../../../i386-linux-gnu/crti.o
 .rel.text.uip_ds6_nbr_lookup
                0x0000000000007ef4       0x28 /usr/lib/gcc/i686-linux-gnu/4.6/../../../i386-linux-gnu/crti.o
 .rel.text.uip_ds6_nbr_ll_lookup
                0x0000000000007f1c       0x10 /usr/lib/gcc/i686-linux-gnu/4.6/../../../i386-linux-gnu/crti.o
 .rel.text.uip_ds6_nbr_ipaddr_from_lladdr
                0x0000000000007f2c        0x8 /usr/lib/gcc/i686-linux-gnu/4.6/../../../i386-linux-gnu/crti.o
 .rel.text.uip_ds6_nbr_lladdr_from_ipaddr
                0x0000000000007f34       0x10 /usr/lib/gcc/i686-linux-gnu/4.6/../../../i386-linux-gnu/crti.o
 .rel.text.uip_ds6_link_neighbor_callback
                0x0000000000007f44       0x18 /usr/lib/gcc/i686-linux-gnu/4.6/../../../i386-linux-gnu/crti.o
 .rel.text.uip_ds6_neighbor_periodic
                0x0000000000007f5c       0xa8 /usr/lib/gcc/i686-linux-gnu/4.6/../../../i386-linux-gnu/crti.o
 .rel.text.uip_ds6_get_least_lifetime_neighbor
                0x0000000000008004       0x30 /usr/lib/gcc/i686-linux-gnu/4.6/../../../i386-linux-gnu/crti.o
 .rel.text.uip_ds6_init
                0x0000000000008034      0x170 /usr/lib/gcc/i686-linux-gnu/4.6/../../../i386-linux-gnu/crti.o
 .rel.text.uip_ds6_periodic
                0x00000000000081a4       0x80 /usr/lib/gcc/i686-linux-gnu/4.6/../../../i386-linux-gnu/crti.o
 .rel.text.uip_ds6_list_loop
                0x0000000000008224        0x8 /usr/lib/gcc/i686-linux-gnu/4.6/../../../i386-linux-gnu/crti.o
 .rel.text.uip_ds6_prefix_add
                0x000000000000822c       0x58 /usr/lib/gcc/i686-linux-gnu/4.6/../../../i386-linux-gnu/crti.o
 .rel.text.uip_ds6_prefix_lookup
                0x0000000000008284       0x20 /usr/lib/gcc/i686-linux-gnu/4.6/../../../i386-linux-gnu/crti.o
 .rel.text.uip_ds6_is_addr_onlink
                0x00000000000082a4       0x50 /usr/lib/gcc/i686-linux-gnu/4.6/../../../i386-linux-gnu/crti.o
 .rel.text.uip_ds6_addr_add
                0x00000000000082f4       0xc8 /usr/lib/gcc/i686-linux-gnu/4.6/../../../i386-linux-gnu/crti.o
 .rel.text.uip_ds6_addr_rm
                0x00000000000083bc       0x88 /usr/lib/gcc/i686-linux-gnu/4.6/../../../i386-linux-gnu/crti.o
 .rel.text.uip_ds6_addr_lookup
                0x0000000000008444       0x20 /usr/lib/gcc/i686-linux-gnu/4.6/../../../i386-linux-gnu/crti.o
 .rel.text.uip_ds6_get_link_local
                0x0000000000008464       0x58 /usr/lib/gcc/i686-linux-gnu/4.6/../../../i386-linux-gnu/crti.o
 .rel.text.uip_ds6_get_global
                0x00000000000084bc       0x58 /usr/lib/gcc/i686-linux-gnu/4.6/../../../i386-linux-gnu/crti.o
 .rel.text.uip_ds6_maddr_add
                0x0000000000008514       0x30 /usr/lib/gcc/i686-linux-gnu/4.6/../../../i386-linux-gnu/crti.o
 .rel.text.uip_ds6_maddr_lookup
                0x0000000000008544       0x20 /usr/lib/gcc/i686-linux-gnu/4.6/../../../i386-linux-gnu/crti.o
 .rel.text.uip_ds6_aaddr_add
                0x0000000000008564       0x30 /usr/lib/gcc/i686-linux-gnu/4.6/../../../i386-linux-gnu/crti.o
 .rel.text.uip_ds6_aaddr_lookup
                0x0000000000008594       0x20 /usr/lib/gcc/i686-linux-gnu/4.6/../../../i386-linux-gnu/crti.o
 .rel.text.uip_ds6_select_src
                0x00000000000085b4       0x70 /usr/lib/gcc/i686-linux-gnu/4.6/../../../i386-linux-gnu/crti.o
 .rel.text.uip_ds6_compute_reachable_time
                0x0000000000008624       0x30 /usr/lib/gcc/i686-linux-gnu/4.6/../../../i386-linux-gnu/crti.o
 .rel.text.create_llao
                0x0000000000008654       0x10 /usr/lib/gcc/i686-linux-gnu/4.6/../../../i386-linux-gnu/crti.o
 .rel.text.uip_nd6_ns_input
                0x0000000000008664      0x378 /usr/lib/gcc/i686-linux-gnu/4.6/../../../i386-linux-gnu/crti.o
 .rel.text.uip_nd6_ns_output
                0x00000000000089dc      0x1e0 /usr/lib/gcc/i686-linux-gnu/4.6/../../../i386-linux-gnu/crti.o
 .rel.text.uip_nd6_na_input
                0x0000000000008bbc      0x2d0 /usr/lib/gcc/i686-linux-gnu/4.6/../../../i386-linux-gnu/crti.o
 .rel.text.packet_timedout
                0x0000000000008e8c       0x10 /usr/lib/gcc/i686-linux-gnu/4.6/../../../i386-linux-gnu/crti.o
 .rel.text.uip_packetqueue_alloc
                0x0000000000008e9c       0x20 /usr/lib/gcc/i686-linux-gnu/4.6/../../../i386-linux-gnu/crti.o
 .rel.text.uip_packetqueue_free
                0x0000000000008ebc       0x18 /usr/lib/gcc/i686-linux-gnu/4.6/../../../i386-linux-gnu/crti.o
 .rel.text.uip_udp_packet_send
                0x0000000000008ed4       0x38 /usr/lib/gcc/i686-linux-gnu/4.6/../../../i386-linux-gnu/crti.o
 .rel.text.uip_udp_packet_sendto
                0x0000000000008f0c       0x10 /usr/lib/gcc/i686-linux-gnu/4.6/../../../i386-linux-gnu/crti.o
 .rel.text.uip_add32
                0x0000000000008f1c       0x98 /usr/lib/gcc/i686-linux-gnu/4.6/../../../i386-linux-gnu/crti.o
 .rel.text.uip_chksum
                0x0000000000008fb4        0x8 /usr/lib/gcc/i686-linux-gnu/4.6/../../../i386-linux-gnu/crti.o
 .rel.text.upper_layer_chksum
                0x0000000000008fbc       0x38 /usr/lib/gcc/i686-linux-gnu/4.6/../../../i386-linux-gnu/crti.o
 .rel.text.uip_init
                0x0000000000008ff4       0xa0 /usr/lib/gcc/i686-linux-gnu/4.6/../../../i386-linux-gnu/crti.o
 .rel.text.uip_connect
                0x0000000000009094       0xc0 /usr/lib/gcc/i686-linux-gnu/4.6/../../../i386-linux-gnu/crti.o
 .rel.text.remove_ext_hdr
                0x0000000000009154       0x98 /usr/lib/gcc/i686-linux-gnu/4.6/../../../i386-linux-gnu/crti.o
 .rel.text.uip_udp_new
                0x00000000000091ec       0xb8 /usr/lib/gcc/i686-linux-gnu/4.6/../../../i386-linux-gnu/crti.o
 .rel.text.uip_unlisten
                0x00000000000092a4       0x40 /usr/lib/gcc/i686-linux-gnu/4.6/../../../i386-linux-gnu/crti.o
 .rel.text.uip_listen
                0x00000000000092e4       0x40 /usr/lib/gcc/i686-linux-gnu/4.6/../../../i386-linux-gnu/crti.o
 .rel.text.uip_add_rcv_nxt
                0x0000000000009324       0x50 /usr/lib/gcc/i686-linux-gnu/4.6/../../../i386-linux-gnu/crti.o
 .rel.text.ext_hdr_options_process
                0x0000000000009374      0x108 /usr/lib/gcc/i686-linux-gnu/4.6/../../../i386-linux-gnu/crti.o
 .rel.text.uip_process
                0x000000000000947c     0x1188 /usr/lib/gcc/i686-linux-gnu/4.6/../../../i386-linux-gnu/crti.o
 .rel.text.uip_send
                0x000000000000a604       0x38 /usr/lib/gcc/i686-linux-gnu/4.6/../../../i386-linux-gnu/crti.o
 .rel.text.doActionsBeforeTick
                0x000000000000a63c       0x10 /usr/lib/gcc/i686-linux-gnu/4.6/../../../i386-linux-gnu/crti.o
 .rel.text.doActionsAfterTick
                0x000000000000a64c       0x10 /usr/lib/gcc/i686-linux-gnu/4.6/../../../i386-linux-gnu/crti.o
 .rel.text.cooja_mt_init
                0x000000000000a65c        0x8 /usr/lib/gcc/i686-linux-gnu/4.6/../../../i386-linux-gnu/crti.o
 .rel.text.cooja_mt_remove
                0x000000000000a664        0x8 /usr/lib/gcc/i686-linux-gnu/4.6/../../../i386-linux-gnu/crti.o
 .rel.text.cooja_mt_start
                0x000000000000a66c        0x8 /usr/lib/gcc/i686-linux-gnu/4.6/../../../i386-linux-gnu/crti.o
 .rel.text.cooja_mt_exec
                0x000000000000a674       0x10 /usr/lib/gcc/i686-linux-gnu/4.6/../../../i386-linux-gnu/crti.o
 .rel.text.cooja_mt_exit
                0x000000000000a684       0x18 /usr/lib/gcc/i686-linux-gnu/4.6/../../../i386-linux-gnu/crti.o
 .rel.text.cooja_mt_yield
                0x000000000000a69c       0x18 /usr/lib/gcc/i686-linux-gnu/4.6/../../../i386-linux-gnu/crti.o
 .rel.text.cooja_sw
                0x000000000000a6b4        0x8 /usr/lib/gcc/i686-linux-gnu/4.6/../../../i386-linux-gnu/crti.o
 .rel.text.cooja_mtarch_exec
                0x000000000000a6bc       0x18 /usr/lib/gcc/i686-linux-gnu/4.6/../../../i386-linux-gnu/crti.o
 .rel.text.cooja_mtarch_yield
                0x000000000000a6d4        0x8 /usr/lib/gcc/i686-linux-gnu/4.6/../../../i386-linux-gnu/crti.o
 .rel.text.rtimer_arch_init
                0x000000000000a6dc       0x18 /usr/lib/gcc/i686-linux-gnu/4.6/../../../i386-linux-gnu/crti.o
 .rel.text.rtimer_arch_schedule
                0x000000000000a6f4       0x10 /usr/lib/gcc/i686-linux-gnu/4.6/../../../i386-linux-gnu/crti.o
 .rel.text.rtimer_arch_next
                0x000000000000a704        0x8 /usr/lib/gcc/i686-linux-gnu/4.6/../../../i386-linux-gnu/crti.o
 .rel.text.rtimer_arch_pending
                0x000000000000a70c        0x8 /usr/lib/gcc/i686-linux-gnu/4.6/../../../i386-linux-gnu/crti.o
 .rel.text.rtimer_arch_check
                0x000000000000a714       0x20 /usr/lib/gcc/i686-linux-gnu/4.6/../../../i386-linux-gnu/crti.o
 .rel.text.rtimer_arch_now
                0x000000000000a734       0x48 /usr/lib/gcc/i686-linux-gnu/4.6/../../../i386-linux-gnu/crti.o
 .rel.text.beep_alarm
                0x000000000000a77c        0x8 /usr/lib/gcc/i686-linux-gnu/4.6/../../../i386-linux-gnu/crti.o
 .rel.text.beep_beep
                0x000000000000a784        0x8 /usr/lib/gcc/i686-linux-gnu/4.6/../../../i386-linux-gnu/crti.o
 .rel.text.beep
                0x000000000000a78c        0x8 /usr/lib/gcc/i686-linux-gnu/4.6/../../../i386-linux-gnu/crti.o
 .rel.text.beep_down
                0x000000000000a794        0x8 /usr/lib/gcc/i686-linux-gnu/4.6/../../../i386-linux-gnu/crti.o
 .rel.text.beep_on
                0x000000000000a79c        0x8 /usr/lib/gcc/i686-linux-gnu/4.6/../../../i386-linux-gnu/crti.o
 .rel.text.beep_off
                0x000000000000a7a4        0x8 /usr/lib/gcc/i686-linux-gnu/4.6/../../../i386-linux-gnu/crti.o
 .rel.text.beep_spinup
                0x000000000000a7ac        0x8 /usr/lib/gcc/i686-linux-gnu/4.6/../../../i386-linux-gnu/crti.o
 .rel.text.beep_quick
                0x000000000000a7b4        0x8 /usr/lib/gcc/i686-linux-gnu/4.6/../../../i386-linux-gnu/crti.o
 .rel.text.beep_long
                0x000000000000a7bc        0x8 /usr/lib/gcc/i686-linux-gnu/4.6/../../../i386-linux-gnu/crti.o
 .rel.text.value
                0x000000000000a7c4       0x28 /usr/lib/gcc/i686-linux-gnu/4.6/../../../i386-linux-gnu/crti.o
 .rel.text.configure
                0x000000000000a7ec       0x40 /usr/lib/gcc/i686-linux-gnu/4.6/../../../i386-linux-gnu/crti.o
 .rel.text.status
                0x000000000000a82c       0x18 /usr/lib/gcc/i686-linux-gnu/4.6/../../../i386-linux-gnu/crti.o
 .rel.text.doInterfaceActionsBeforeTick
                0x000000000000a844      0x188 /usr/lib/gcc/i686-linux-gnu/4.6/../../../i386-linux-gnu/crti.o
 .rel.text.leds_arch_init
                0x000000000000a9cc        0x8 /usr/lib/gcc/i686-linux-gnu/4.6/../../../i386-linux-gnu/crti.o
 .rel.text.leds_arch_get
                0x000000000000a9d4        0x8 /usr/lib/gcc/i686-linux-gnu/4.6/../../../i386-linux-gnu/crti.o
 .rel.text.leds_arch_set
                0x000000000000a9dc       0x10 /usr/lib/gcc/i686-linux-gnu/4.6/../../../i386-linux-gnu/crti.o
 .rel.text.rs232_set_input
                0x000000000000a9ec        0x8 /usr/lib/gcc/i686-linux-gnu/4.6/../../../i386-linux-gnu/crti.o
 .rel.text.rs232_send
                0x000000000000a9f4       0x10 /usr/lib/gcc/i686-linux-gnu/4.6/../../../i386-linux-gnu/crti.o
 .rel.text.rs232_print
                0x000000000000aa04       0x10 /usr/lib/gcc/i686-linux-gnu/4.6/../../../i386-linux-gnu/crti.o
 .rel.text.slip_arch_writeb
                0x000000000000aa14        0x8 /usr/lib/gcc/i686-linux-gnu/4.6/../../../i386-linux-gnu/crti.o
 .rel.text.clock_time
                0x000000000000aa1c        0x8 /usr/lib/gcc/i686-linux-gnu/4.6/../../../i386-linux-gnu/crti.o
 .rel.text.clock_seconds
                0x000000000000aa24        0x8 /usr/lib/gcc/i686-linux-gnu/4.6/../../../i386-linux-gnu/crti.o
 .rel.text.simlog_char
                0x000000000000aa2c       0x30 /usr/lib/gcc/i686-linux-gnu/4.6/../../../i386-linux-gnu/crti.o
 .rel.text.simlog
                0x000000000000aa5c       0x38 /usr/lib/gcc/i686-linux-gnu/4.6/../../../i386-linux-gnu/crti.o
 .rel.text.log_message
                0x000000000000aa94       0x10 /usr/lib/gcc/i686-linux-gnu/4.6/../../../i386-linux-gnu/crti.o
 .rel.text.log_set_putchar_with_slip
                0x000000000000aaa4        0x8 /usr/lib/gcc/i686-linux-gnu/4.6/../../../i386-linux-gnu/crti.o
 .rel.text.putchar
                0x000000000000aaac       0x50 /usr/lib/gcc/i686-linux-gnu/4.6/../../../i386-linux-gnu/crti.o
 .rel.text.puts
                0x000000000000aafc       0x10 /usr/lib/gcc/i686-linux-gnu/4.6/../../../i386-linux-gnu/crti.o
 .rel.text.printf
                0x000000000000ab0c       0x20 /usr/lib/gcc/i686-linux-gnu/4.6/../../../i386-linux-gnu/crti.o
 .rel.text.cfs_open
                0x000000000000ab2c       0x30 /usr/lib/gcc/i686-linux-gnu/4.6/../../../i386-linux-gnu/crti.o
 .rel.text.cfs_close
                0x000000000000ab5c        0x8 /usr/lib/gcc/i686-linux-gnu/4.6/../../../i386-linux-gnu/crti.o
 .rel.text.cfs_read
                0x000000000000ab64       0x70 /usr/lib/gcc/i686-linux-gnu/4.6/../../../i386-linux-gnu/crti.o
 .rel.text.cfs_write
                0x000000000000abd4       0x90 /usr/lib/gcc/i686-linux-gnu/4.6/../../../i386-linux-gnu/crti.o
 .rel.text.cfs_seek
                0x000000000000ac64       0x68 /usr/lib/gcc/i686-linux-gnu/4.6/../../../i386-linux-gnu/crti.o
 .rel.text.cfs_remove
                0x000000000000accc        0x8 /usr/lib/gcc/i686-linux-gnu/4.6/../../../i386-linux-gnu/crti.o
 .rel.text.radio_set_channel
                0x000000000000acd4        0x8 /usr/lib/gcc/i686-linux-gnu/4.6/../../../i386-linux-gnu/crti.o
 .rel.text.radio_set_txpower
                0x000000000000acdc        0x8 /usr/lib/gcc/i686-linux-gnu/4.6/../../../i386-linux-gnu/crti.o
 .rel.text.radio_signal_strength_last
                0x000000000000ace4        0x8 /usr/lib/gcc/i686-linux-gnu/4.6/../../../i386-linux-gnu/crti.o
 .rel.text.radio_signal_strength_current
                0x000000000000acec        0x8 /usr/lib/gcc/i686-linux-gnu/4.6/../../../i386-linux-gnu/crti.o
 .rel.text.radio_on
                0x000000000000acf4        0x8 /usr/lib/gcc/i686-linux-gnu/4.6/../../../i386-linux-gnu/crti.o
 .rel.text.radio_off
                0x000000000000acfc        0x8 /usr/lib/gcc/i686-linux-gnu/4.6/../../../i386-linux-gnu/crti.o
 .rel.text.radio_read
                0x000000000000ad04       0x50 /usr/lib/gcc/i686-linux-gnu/4.6/../../../i386-linux-gnu/crti.o
 .rel.text.channel_clear
                0x000000000000ad54        0x8 /usr/lib/gcc/i686-linux-gnu/4.6/../../../i386-linux-gnu/crti.o
 .rel.text.radio_send
                0x000000000000ad5c       0x70 /usr/lib/gcc/i686-linux-gnu/4.6/../../../i386-linux-gnu/crti.o
 .rel.text.prepare_packet
                0x000000000000adcc        0x8 /usr/lib/gcc/i686-linux-gnu/4.6/../../../i386-linux-gnu/crti.o
 .rel.text.transmit_packet
                0x000000000000add4       0x10 /usr/lib/gcc/i686-linux-gnu/4.6/../../../i386-linux-gnu/crti.o
 .rel.text.receiving_packet
                0x000000000000ade4        0x8 /usr/lib/gcc/i686-linux-gnu/4.6/../../../i386-linux-gnu/crti.o
 .rel.text.pending_packet
                0x000000000000adec       0x10 /usr/lib/gcc/i686-linux-gnu/4.6/../../../i386-linux-gnu/crti.o
 .rel.text.process_thread_cooja_radio_process
                0x000000000000adfc       0x20 /usr/lib/gcc/i686-linux-gnu/4.6/../../../i386-linux-gnu/crti.o
 .rel.text.get_sensor_index
                0x000000000000ae1c       0x10 /usr/lib/gcc/i686-linux-gnu/4.6/../../../i386-linux-gnu/crti.o
 .rel.text.sensors_first
                0x000000000000ae2c        0x8 /usr/lib/gcc/i686-linux-gnu/4.6/../../../i386-linux-gnu/crti.o
 .rel.text.sensors_next
                0x000000000000ae34        0x8 /usr/lib/gcc/i686-linux-gnu/4.6/../../../i386-linux-gnu/crti.o
 .rel.text.sensors_changed
                0x000000000000ae3c       0x20 /usr/lib/gcc/i686-linux-gnu/4.6/../../../i386-linux-gnu/crti.o
 .rel.text.sensors_find
                0x000000000000ae5c       0x20 /usr/lib/gcc/i686-linux-gnu/4.6/../../../i386-linux-gnu/crti.o
 .rel.text.process_thread_sensors_process
                0x000000000000ae7c      0x108 /usr/lib/gcc/i686-linux-gnu/4.6/../../../i386-linux-gnu/crti.o
 .rel.text.frame802154_parse
                0x000000000000af84       0x40 /usr/lib/gcc/i686-linux-gnu/4.6/../../../i386-linux-gnu/crti.o
 .rel.text.rpl_purge_routes
                0x000000000000afc4       0x50 /usr/lib/gcc/i686-linux-gnu/4.6/../../../i386-linux-gnu/crti.o
 .rel.text.rpl_remove_routes
                0x000000000000b014       0x20 /usr/lib/gcc/i686-linux-gnu/4.6/../../../i386-linux-gnu/crti.o
 .rel.text.rpl_remove_routes_by_nexthop
                0x000000000000b034       0x30 /usr/lib/gcc/i686-linux-gnu/4.6/../../../i386-linux-gnu/crti.o
 .rel.text.rpl_add_route
                0x000000000000b064        0x8 /usr/lib/gcc/i686-linux-gnu/4.6/../../../i386-linux-gnu/crti.o
 .rel.text.rpl_link_neighbor_callback
                0x000000000000b06c       0x20 /usr/lib/gcc/i686-linux-gnu/4.6/../../../i386-linux-gnu/crti.o
 .rel.text.rpl_ipv6_neighbor_callback
                0x000000000000b08c       0x10 /usr/lib/gcc/i686-linux-gnu/4.6/../../../i386-linux-gnu/crti.o
 .rel.text.rpl_init
                0x000000000000b09c       0x28 /usr/lib/gcc/i686-linux-gnu/4.6/../../../i386-linux-gnu/crti.o
 .rel.text.rpl_dag_init
                0x000000000000b0c4       0x18 /usr/lib/gcc/i686-linux-gnu/4.6/../../../i386-linux-gnu/crti.o
 .rel.text.rpl_get_parent_rank
                0x000000000000b0dc       0x10 /usr/lib/gcc/i686-linux-gnu/4.6/../../../i386-linux-gnu/crti.o
 .rel.text.rpl_get_parent_link_metric
                0x000000000000b0ec       0x10 /usr/lib/gcc/i686-linux-gnu/4.6/../../../i386-linux-gnu/crti.o
 .rel.text.rpl_get_parent_ipaddr
                0x000000000000b0fc       0x18 /usr/lib/gcc/i686-linux-gnu/4.6/../../../i386-linux-gnu/crti.o
 .rel.text.rpl_set_preferred_parent
                0x000000000000b114       0x20 /usr/lib/gcc/i686-linux-gnu/4.6/../../../i386-linux-gnu/crti.o
 .rel.text.remove_parents
                0x000000000000b134       0x28 /usr/lib/gcc/i686-linux-gnu/4.6/../../../i386-linux-gnu/crti.o
 .rel.text.nullify_parents
                0x000000000000b15c       0x28 /usr/lib/gcc/i686-linux-gnu/4.6/../../../i386-linux-gnu/crti.o
 .rel.text.get_dag
                0x000000000000b184       0x10 /usr/lib/gcc/i686-linux-gnu/4.6/../../../i386-linux-gnu/crti.o
 .rel.text.rpl_set_root
                0x000000000000b194       0x30 /usr/lib/gcc/i686-linux-gnu/4.6/../../../i386-linux-gnu/crti.o
 .rel.text.rpl_repair_root
                0x000000000000b1c4       0x10 /usr/lib/gcc/i686-linux-gnu/4.6/../../../i386-linux-gnu/crti.o
 .rel.text.set_ip_from_prefix
                0x000000000000b1d4       0x18 /usr/lib/gcc/i686-linux-gnu/4.6/../../../i386-linux-gnu/crti.o
 .rel.text.check_prefix
                0x000000000000b1ec       0x30 /usr/lib/gcc/i686-linux-gnu/4.6/../../../i386-linux-gnu/crti.o
 .rel.text.rpl_set_prefix
                0x000000000000b21c       0x10 /usr/lib/gcc/i686-linux-gnu/4.6/../../../i386-linux-gnu/crti.o
 .rel.text.rpl_set_default_route
                0x000000000000b22c       0x18 /usr/lib/gcc/i686-linux-gnu/4.6/../../../i386-linux-gnu/crti.o
 .rel.text.rpl_alloc_instance
                0x000000000000b244        0x8 /usr/lib/gcc/i686-linux-gnu/4.6/../../../i386-linux-gnu/crti.o
 .rel.text.rpl_alloc_dag
                0x000000000000b24c       0x18 /usr/lib/gcc/i686-linux-gnu/4.6/../../../i386-linux-gnu/crti.o
 .rel.text.rpl_set_default_instance
                0x000000000000b264        0x8 /usr/lib/gcc/i686-linux-gnu/4.6/../../../i386-linux-gnu/crti.o
 .rel.text.rpl_free_instance
                0x000000000000b26c       0x30 /usr/lib/gcc/i686-linux-gnu/4.6/../../../i386-linux-gnu/crti.o
 .rel.text.rpl_free_dag
                0x000000000000b29c        0x8 /usr/lib/gcc/i686-linux-gnu/4.6/../../../i386-linux-gnu/crti.o
 .rel.text.rpl_add_parent
                0x000000000000b2a4       0x18 /usr/lib/gcc/i686-linux-gnu/4.6/../../../i386-linux-gnu/crti.o
 .rel.text.find_parent_any_dag_any_instance
                0x000000000000b2bc       0x20 /usr/lib/gcc/i686-linux-gnu/4.6/../../../i386-linux-gnu/crti.o
 .rel.text.rpl_select_dag
                0x000000000000b2dc       0x40 /usr/lib/gcc/i686-linux-gnu/4.6/../../../i386-linux-gnu/crti.o
 .rel.text.rpl_select_parent
                0x000000000000b31c       0x20 /usr/lib/gcc/i686-linux-gnu/4.6/../../../i386-linux-gnu/crti.o
 .rel.text.rpl_remove_parent
                0x000000000000b33c       0x18 /usr/lib/gcc/i686-linux-gnu/4.6/../../../i386-linux-gnu/crti.o
 .rel.text.rpl_nullify_parent
                0x000000000000b354       0x10 /usr/lib/gcc/i686-linux-gnu/4.6/../../../i386-linux-gnu/crti.o
 .rel.text.rpl_move_parent
                0x000000000000b364       0x28 /usr/lib/gcc/i686-linux-gnu/4.6/../../../i386-linux-gnu/crti.o
 .rel.text.rpl_get_any_dag
                0x000000000000b38c       0x18 /usr/lib/gcc/i686-linux-gnu/4.6/../../../i386-linux-gnu/crti.o
 .rel.text.rpl_get_instance
                0x000000000000b3a4       0x18 /usr/lib/gcc/i686-linux-gnu/4.6/../../../i386-linux-gnu/crti.o
 .rel.text.rpl_find_of
                0x000000000000b3bc       0x10 /usr/lib/gcc/i686-linux-gnu/4.6/../../../i386-linux-gnu/crti.o
 .rel.text.rpl_join_instance
                0x000000000000b3cc       0x48 /usr/lib/gcc/i686-linux-gnu/4.6/../../../i386-linux-gnu/crti.o
 .rel.text.rpl_add_dag
                0x000000000000b414       0x38 /usr/lib/gcc/i686-linux-gnu/4.6/../../../i386-linux-gnu/crti.o
 .rel.text.global_repair
                0x000000000000b44c       0x10 /usr/lib/gcc/i686-linux-gnu/4.6/../../../i386-linux-gnu/crti.o
 .rel.text.rpl_local_repair
                0x000000000000b45c        0x8 /usr/lib/gcc/i686-linux-gnu/4.6/../../../i386-linux-gnu/crti.o
 .rel.text.rpl_recalculate_ranks
                0x000000000000b464       0x28 /usr/lib/gcc/i686-linux-gnu/4.6/../../../i386-linux-gnu/crti.o
 .rel.text.rpl_process_parent_event
                0x000000000000b48c       0x18 /usr/lib/gcc/i686-linux-gnu/4.6/../../../i386-linux-gnu/crti.o
 .rel.text.rpl_process_dio
                0x000000000000b4a4       0x78 /usr/lib/gcc/i686-linux-gnu/4.6/../../../i386-linux-gnu/crti.o
 .rel.text.get_global_addr
                0x000000000000b51c       0x28 /usr/lib/gcc/i686-linux-gnu/4.6/../../../i386-linux-gnu/crti.o
 .rel.text.dis_input
                0x000000000000b544       0x28 /usr/lib/gcc/i686-linux-gnu/4.6/../../../i386-linux-gnu/crti.o
 .rel.text.dis_output
                0x000000000000b56c       0x20 /usr/lib/gcc/i686-linux-gnu/4.6/../../../i386-linux-gnu/crti.o
 .rel.text.dio_input
                0x000000000000b58c       0x60 /usr/lib/gcc/i686-linux-gnu/4.6/../../../i386-linux-gnu/crti.o
 .rel.text.dio_output
                0x000000000000b5ec       0x28 /usr/lib/gcc/i686-linux-gnu/4.6/../../../i386-linux-gnu/crti.o
 .rel.text.dao_input
                0x000000000000b614       0x98 /usr/lib/gcc/i686-linux-gnu/4.6/../../../i386-linux-gnu/crti.o
 .rel.text.dao_output
                0x000000000000b6ac       0x10 /usr/lib/gcc/i686-linux-gnu/4.6/../../../i386-linux-gnu/crti.o
 .rel.text.dao_output_target
                0x000000000000b6bc       0x60 /usr/lib/gcc/i686-linux-gnu/4.6/../../../i386-linux-gnu/crti.o
 .rel.text.dao_ack_output
                0x000000000000b71c       0x18 /usr/lib/gcc/i686-linux-gnu/4.6/../../../i386-linux-gnu/crti.o
 .rel.text.uip_rpl_input
                0x000000000000b734       0x18 /usr/lib/gcc/i686-linux-gnu/4.6/../../../i386-linux-gnu/crti.o
 .rel.text.handle_periodic_timer
                0x000000000000b74c       0x50 /usr/lib/gcc/i686-linux-gnu/4.6/../../../i386-linux-gnu/crti.o
 .rel.text.new_dio_interval
                0x000000000000b79c       0x18 /usr/lib/gcc/i686-linux-gnu/4.6/../../../i386-linux-gnu/crti.o
 .rel.text.handle_dio_timer
                0x000000000000b7b4       0x40 /usr/lib/gcc/i686-linux-gnu/4.6/../../../i386-linux-gnu/crti.o
 .rel.text.rpl_reset_periodic_timer
                0x000000000000b7f4       0x28 /usr/lib/gcc/i686-linux-gnu/4.6/../../../i386-linux-gnu/crti.o
 .rel.text.handle_dao_timer
                0x000000000000b81c       0x30 /usr/lib/gcc/i686-linux-gnu/4.6/../../../i386-linux-gnu/crti.o
 .rel.text.rpl_schedule_dao
                0x000000000000b84c       0x28 /usr/lib/gcc/i686-linux-gnu/4.6/../../../i386-linux-gnu/crti.o
 .rel.text.rpl_verify_header
                0x000000000000b874       0xd0 /usr/lib/gcc/i686-linux-gnu/4.6/../../../i386-linux-gnu/crti.o
 .rel.text.set_rpl_opt
                0x000000000000b944      0x108 /usr/lib/gcc/i686-linux-gnu/4.6/../../../i386-linux-gnu/crti.o
 .rel.text.rpl_update_header_empty
                0x000000000000ba4c      0x120 /usr/lib/gcc/i686-linux-gnu/4.6/../../../i386-linux-gnu/crti.o
 .rel.text.rpl_update_header_final
                0x000000000000bb6c       0xc0 /usr/lib/gcc/i686-linux-gnu/4.6/../../../i386-linux-gnu/crti.o
 .rel.text.rpl_remove_header
                0x000000000000bc2c       0xb0 /usr/lib/gcc/i686-linux-gnu/4.6/../../../i386-linux-gnu/crti.o
 .rel.text.rpl_invert_header
                0x000000000000bcdc       0xa8 /usr/lib/gcc/i686-linux-gnu/4.6/../../../i386-linux-gnu/crti.o
 .rel.text.rpl_insert_header
                0x000000000000bd84       0x20 /usr/lib/gcc/i686-linux-gnu/4.6/../../../i386-linux-gnu/crti.o
 .rel.text.timer_set
                0x000000000000bda4        0x8 /usr/lib/gcc/i686-linux-gnu/4.6/../../../i386-linux-gnu/crti.o
 .rel.text.timer_restart
                0x000000000000bdac        0x8 /usr/lib/gcc/i686-linux-gnu/4.6/../../../i386-linux-gnu/crti.o
 .rel.text.timer_expired
                0x000000000000bdb4        0x8 /usr/lib/gcc/i686-linux-gnu/4.6/../../../i386-linux-gnu/crti.o
 .rel.text.timer_remaining
                0x000000000000bdbc        0x8 /usr/lib/gcc/i686-linux-gnu/4.6/../../../i386-linux-gnu/crti.o
 .rel.text.rtimer_init
                0x000000000000bdc4        0x8 /usr/lib/gcc/i686-linux-gnu/4.6/../../../i386-linux-gnu/crti.o
 .rel.text.rtimer_set
                0x000000000000bdcc       0x18 /usr/lib/gcc/i686-linux-gnu/4.6/../../../i386-linux-gnu/crti.o
 .rel.text.rtimer_run_next
                0x000000000000bde4       0x30 /usr/lib/gcc/i686-linux-gnu/4.6/../../../i386-linux-gnu/crti.o
 .rel.text.stimer_set
                0x000000000000be14        0x8 /usr/lib/gcc/i686-linux-gnu/4.6/../../../i386-linux-gnu/crti.o
 .rel.text.stimer_restart
                0x000000000000be1c        0x8 /usr/lib/gcc/i686-linux-gnu/4.6/../../../i386-linux-gnu/crti.o
 .rel.text.stimer_expired
                0x000000000000be24        0x8 /usr/lib/gcc/i686-linux-gnu/4.6/../../../i386-linux-gnu/crti.o
 .rel.text.stimer_remaining
                0x000000000000be2c        0x8 /usr/lib/gcc/i686-linux-gnu/4.6/../../../i386-linux-gnu/crti.o
 .rel.text.stimer_elapsed
                0x000000000000be34        0x8 /usr/lib/gcc/i686-linux-gnu/4.6/../../../i386-linux-gnu/crti.o
 .rel.text.key_from_index
                0x000000000000be3c        0x8 /usr/lib/gcc/i686-linux-gnu/4.6/../../../i386-linux-gnu/crti.o
 .rel.text.index_from_key
                0x000000000000be44        0x8 /usr/lib/gcc/i686-linux-gnu/4.6/../../../i386-linux-gnu/crti.o
 .rel.text.index_from_lladdr
                0x000000000000be4c       0x28 /usr/lib/gcc/i686-linux-gnu/4.6/../../../i386-linux-gnu/crti.o
 .rel.text.nbr_table_allocate
                0x000000000000be74       0x80 /usr/lib/gcc/i686-linux-gnu/4.6/../../../i386-linux-gnu/crti.o
 .rel.text.nbr_table_register
                0x000000000000bef4       0x20 /usr/lib/gcc/i686-linux-gnu/4.6/../../../i386-linux-gnu/crti.o
 .rel.text.nbr_table_head
                0x000000000000bf14       0x20 /usr/lib/gcc/i686-linux-gnu/4.6/../../../i386-linux-gnu/crti.o
 .rel.text.nbr_table_next
                0x000000000000bf34       0x10 /usr/lib/gcc/i686-linux-gnu/4.6/../../../i386-linux-gnu/crti.o
 .rel.text.nbr_table_add_lladdr
                0x000000000000bf44       0x30 /usr/lib/gcc/i686-linux-gnu/4.6/../../../i386-linux-gnu/crti.o
 .rel.text.nbr_table_get_from_lladdr
                0x000000000000bf74        0x8 /usr/lib/gcc/i686-linux-gnu/4.6/../../../i386-linux-gnu/crti.o
 .rel.text.nbr_table_remove
                0x000000000000bf7c       0x10 /usr/lib/gcc/i686-linux-gnu/4.6/../../../i386-linux-gnu/crti.o
 .rel.text.nbr_table_lock
                0x000000000000bf8c        0x8 /usr/lib/gcc/i686-linux-gnu/4.6/../../../i386-linux-gnu/crti.o
 .rel.text.nbr_table_unlock
                0x000000000000bf94        0x8 /usr/lib/gcc/i686-linux-gnu/4.6/../../../i386-linux-gnu/crti.o
 .rel.text.uip_icmp6_echo_request_input
                0x000000000000bf9c      0x1f0 /usr/lib/gcc/i686-linux-gnu/4.6/../../../i386-linux-gnu/crti.o
 .rel.text.uip_icmp6_error_output
                0x000000000000c18c      0x238 /usr/lib/gcc/i686-linux-gnu/4.6/../../../i386-linux-gnu/crti.o
 .rel.text.uip_icmp6_send
                0x000000000000c3c4       0xb8 /usr/lib/gcc/i686-linux-gnu/4.6/../../../i386-linux-gnu/crti.o
 *(.rel.fini)
 *(.rel.rodata .rel.rodata.* .rel.gnu.linkonce.r.*)
 .rel.rodata    0x000000000000c47c      0x568 /usr/lib/gcc/i686-linux-gnu/4.6/../../../i386-linux-gnu/crti.o
 *(.rel.data.rel.ro* .rel.gnu.linkonce.d.rel.ro.*)
 *(.rel.data .rel.data.* .rel.gnu.linkonce.d.*)
 .rel.data.rel  0x000000000000c9e4        0x8 /usr/lib/gcc/i686-linux-gnu/4.6/../../../i386-linux-gnu/crti.o
 .rel.data      0x000000000000c9ec      0x220 /usr/lib/gcc/i686-linux-gnu/4.6/../../../i386-linux-gnu/crti.o
 *(.rel.tdata .rel.tdata.* .rel.gnu.linkonce.td.*)
 *(.rel.tbss .rel.tbss.* .rel.gnu.linkonce.tb.*)
 *(.rel.ctors)
 *(.rel.dtors)
 *(.rel.got)
 .rel.got       0x000000000000cc0c       0x18 /usr/lib/gcc/i686-linux-gnu/4.6/../../../i386-linux-gnu/crti.o
 *(.rel.bss .rel.bss.* .rel.gnu.linkonce.b.*)
 *(.rel.ifunc)
 .rel.ifunc     0x0000000000000000        0x0 /usr/lib/gcc/i686-linux-gnu/4.6/../../../i386-linux-gnu/crti.o

.rel.plt        0x000000000000cc24       0x10
 *(.rel.plt)
 .rel.plt       0x000000000000cc24       0x10 /usr/lib/gcc/i686-linux-gnu/4.6/../../../i386-linux-gnu/crti.o
 *(.rel.iplt)

.init           0x000000000000cc34       0x2e
 *(.init)
 .init          0x000000000000cc34       0x1f /usr/lib/gcc/i686-linux-gnu/4.6/../../../i386-linux-gnu/crti.o
                0x000000000000cc34                _init
 .init          0x000000000000cc53        0x5 /usr/lib/gcc/i686-linux-gnu/4.6/crtbeginS.o
 .init          0x000000000000cc58        0x5 /usr/lib/gcc/i686-linux-gnu/4.6/crtendS.o
 .init          0x000000000000cc5d        0x5 /usr/lib/gcc/i686-linux-gnu/4.6/../../../i386-linux-gnu/crtn.o

.plt            0x000000000000cc70       0x30
 *(.plt)
 .plt           0x000000000000cc70       0x30 /usr/lib/gcc/i686-linux-gnu/4.6/../../../i386-linux-gnu/crti.o
 *(.iplt)

.text           0x000000000000cca0    0x12b78
 *(.text.unlikely .text.*_unlikely)
 *(.text.exit .text.exit.*)
 *(.text.startup .text.startup.*)
 *(.text.hot .text.hot.*)
 *(.text .stub .text.* .gnu.linkonce.t.*)
 .text          0x000000000000cca0        0x0 /usr/lib/gcc/i686-linux-gnu/4.6/../../../i386-linux-gnu/crti.o
 .text          0x000000000000cca0       0xb7 /usr/lib/gcc/i686-linux-gnu/4.6/crtbeginS.o
 .text.__i686.get_pc_thunk.bx
                0x000000000000cd57        0x4 /usr/lib/gcc/i686-linux-gnu/4.6/crtbeginS.o
                0x000000000000cd57                __i686.get_pc_thunk.bx
 *fill*         0x000000000000cd5b        0x1 90909090
 .text          0x000000000000cd5c        0x0 jammer.co
 .text.receiver
                0x000000000000cd5c       0x1d jammer.co
 .text.process_thread_broadcast_example_process
                0x000000000000cd79      0x12f jammer.co
 .text          0x000000000000cea8        0x0 obj_cooja/mtype782.o
 .text.print_processes
                0x000000000000cea8       0x49 obj_cooja/mtype782.o
 .text.rtimer_thread_loop
                0x000000000000cef1       0x12 obj_cooja/mtype782.o
 .text.set_rime_addr
                0x000000000000cf03       0xd1 obj_cooja/mtype782.o
 .text.contiki_init
                0x000000000000cfd4      0x3b0 obj_cooja/mtype782.o
                0x000000000000cfd4                contiki_init
 .text.process_run_thread_loop
                0x000000000000d384       0x6e obj_cooja/mtype782.o
 .text.Java_se_sics_cooja_corecomm_Lib355_init
                0x000000000000d3f2       0x40 obj_cooja/mtype782.o
                0x000000000000d3f2                Java_se_sics_cooja_corecomm_Lib355_init
 .text.Java_se_sics_cooja_corecomm_Lib355_getMemory
                0x000000000000d432       0x3d obj_cooja/mtype782.o
                0x000000000000d432                Java_se_sics_cooja_corecomm_Lib355_getMemory
 .text.Java_se_sics_cooja_corecomm_Lib355_setMemory
                0x000000000000d46f       0x74 obj_cooja/mtype782.o
                0x000000000000d46f                Java_se_sics_cooja_corecomm_Lib355_setMemory
 .text.Java_se_sics_cooja_corecomm_Lib355_tick
                0x000000000000d4e3       0xe1 obj_cooja/mtype782.o
                0x000000000000d4e3                Java_se_sics_cooja_corecomm_Lib355_tick
 .text.Java_se_sics_cooja_corecomm_Lib355_setReferenceAddress
                0x000000000000d5c4       0x12 obj_cooja/mtype782.o
                0x000000000000d5c4                Java_se_sics_cooja_corecomm_Lib355_setReferenceAddress
 *fill*         0x000000000000d5d6        0x2 90909090
 .text          0x000000000000d5d8        0x0 obj_cooja/mtype782.a(rimeaddr.o)
 .text.rimeaddr_copy
                0x000000000000d5d8       0x15 obj_cooja/mtype782.a(rimeaddr.o)
                0x000000000000d5d8                rimeaddr_copy
 .text.rimeaddr_cmp
                0x000000000000d5ed       0x2a obj_cooja/mtype782.a(rimeaddr.o)
                0x000000000000d5ed                rimeaddr_cmp
 .text.rimeaddr_set_node_addr
                0x000000000000d617       0x1b obj_cooja/mtype782.a(rimeaddr.o)
                0x000000000000d617                rimeaddr_set_node_addr
 *fill*         0x000000000000d632        0x2 90909090
 .text          0x000000000000d634        0x0 obj_cooja/mtype782.a(nullrdc.o)
 .text.packetbuf_set_attr
                0x000000000000d634       0x2a obj_cooja/mtype782.a(nullrdc.o)
 .text.packetbuf_attr
                0x000000000000d65e       0x1a obj_cooja/mtype782.a(nullrdc.o)
 .text.packetbuf_set_addr
                0x000000000000d678       0x32 obj_cooja/mtype782.a(nullrdc.o)
 .text.packetbuf_addr
                0x000000000000d6aa       0x1d obj_cooja/mtype782.a(nullrdc.o)
 .text.send_one_packet
                0x000000000000d6c7      0x1f9 obj_cooja/mtype782.a(nullrdc.o)
 .text.send_packet
                0x000000000000d8c0       0x1a obj_cooja/mtype782.a(nullrdc.o)
 .text.send_list
                0x000000000000d8da       0x4a obj_cooja/mtype782.a(nullrdc.o)
 .text.packet_input
                0x000000000000d924      0x212 obj_cooja/mtype782.a(nullrdc.o)
 .text.on       0x000000000000db36        0xf obj_cooja/mtype782.a(nullrdc.o)
 .text.off      0x000000000000db45       0x1e obj_cooja/mtype782.a(nullrdc.o)
 .text.channel_check_interval
                0x000000000000db63        0xa obj_cooja/mtype782.a(nullrdc.o)
 .text.init     0x000000000000db6d        0xd obj_cooja/mtype782.a(nullrdc.o)
 *fill*         0x000000000000db7a        0x2 90909090
 .text          0x000000000000db7c        0x0 obj_cooja/mtype782.a(mac.o)
 .text.mac_call_sent_callback
                0x000000000000db7c       0x3c obj_cooja/mtype782.a(mac.o)
                0x000000000000db7c                mac_call_sent_callback
 .text          0x000000000000dbb8        0x0 obj_cooja/mtype782.a(framer-802154.o)
 .text.packetbuf_set_attr
                0x000000000000dbb8       0x2a obj_cooja/mtype782.a(framer-802154.o)
 .text.packetbuf_attr
                0x000000000000dbe2       0x1a obj_cooja/mtype782.a(framer-802154.o)
 .text.packetbuf_set_addr
                0x000000000000dbfc       0x32 obj_cooja/mtype782.a(framer-802154.o)
 .text.packetbuf_addr
                0x000000000000dc2e       0x1d obj_cooja/mtype782.a(framer-802154.o)
 .text.is_broadcast_addr
                0x000000000000dc4b       0x4d obj_cooja/mtype782.a(framer-802154.o)
 .text.create   0x000000000000dc98      0x1cd obj_cooja/mtype782.a(framer-802154.o)
 .text.parse    0x000000000000de65      0x12c obj_cooja/mtype782.a(framer-802154.o)
 *fill*         0x000000000000df91        0x3 90909090
 .text          0x000000000000df94        0x0 obj_cooja/mtype782.a(csma.o)
 .text.packetbuf_set_attr
                0x000000000000df94       0x2a obj_cooja/mtype782.a(csma.o)
 .text.packetbuf_attr
                0x000000000000dfbe       0x1a obj_cooja/mtype782.a(csma.o)
 .text.packetbuf_addr
                0x000000000000dfd8       0x1d obj_cooja/mtype782.a(csma.o)
 .text.neighbor_queue_from_addr
                0x000000000000dff5       0x51 obj_cooja/mtype782.a(csma.o)
 .text.default_timebase
                0x000000000000e046       0x25 obj_cooja/mtype782.a(csma.o)
 .text.transmit_packet_list
                0x000000000000e06b       0x48 obj_cooja/mtype782.a(csma.o)
 .text.free_packet
                0x000000000000e0b3       0xe2 obj_cooja/mtype782.a(csma.o)
 .text.packet_sent
                0x000000000000e195      0x215 obj_cooja/mtype782.a(csma.o)
 .text.send_packet
                0x000000000000e3aa      0x28b obj_cooja/mtype782.a(csma.o)
 .text.input_packet
                0x000000000000e635        0xf obj_cooja/mtype782.a(csma.o)
 .text.on       0x000000000000e644        0xf obj_cooja/mtype782.a(csma.o)
 .text.off      0x000000000000e653       0x16 obj_cooja/mtype782.a(csma.o)
 .text.channel_check_interval
                0x000000000000e669       0x1f obj_cooja/mtype782.a(csma.o)
 .text.init     0x000000000000e688       0x2c obj_cooja/mtype782.a(csma.o)
 .text          0x000000000000e6b4        0x0 obj_cooja/mtype782.a(process.o)
 .text.process_alloc_event
                0x000000000000e6b4       0x18 obj_cooja/mtype782.a(process.o)
                0x000000000000e6b4                process_alloc_event
 .text.process_start
                0x000000000000e6cc       0x70 obj_cooja/mtype782.a(process.o)
                0x000000000000e6cc                process_start
 .text.exit_process
                0x000000000000e73c       0xec obj_cooja/mtype782.a(process.o)
 .text.call_process
                0x000000000000e828       0x90 obj_cooja/mtype782.a(process.o)
 .text.process_exit
                0x000000000000e8b8       0x1c obj_cooja/mtype782.a(process.o)
                0x000000000000e8b8                process_exit
 .text.process_init
                0x000000000000e8d4       0x33 obj_cooja/mtype782.a(process.o)
                0x000000000000e8d4                process_init
 .text.do_poll  0x000000000000e907       0x5b obj_cooja/mtype782.a(process.o)
 .text.do_event
                0x000000000000e962      0x145 obj_cooja/mtype782.a(process.o)
 .text.process_run
                0x000000000000eaa7       0x33 obj_cooja/mtype782.a(process.o)
                0x000000000000eaa7                process_run
 .text.process_nevents
                0x000000000000eada       0x1b obj_cooja/mtype782.a(process.o)
                0x000000000000eada                process_nevents
 .text.process_post
                0x000000000000eaf5       0xac obj_cooja/mtype782.a(process.o)
                0x000000000000eaf5                process_post
 .text.process_post_synch
                0x000000000000eba1       0x38 obj_cooja/mtype782.a(process.o)
                0x000000000000eba1                process_post_synch
 .text.process_poll
                0x000000000000ebd9       0x2f obj_cooja/mtype782.a(process.o)
                0x000000000000ebd9                process_poll
 .text.process_is_running
                0x000000000000ec08       0x14 obj_cooja/mtype782.a(process.o)
                0x000000000000ec08                process_is_running
 .text          0x000000000000ec1c        0x0 obj_cooja/mtype782.a(autostart.o)
 .text.autostart_start
                0x000000000000ec1c       0x3f obj_cooja/mtype782.a(autostart.o)
                0x000000000000ec1c                autostart_start
 .text.autostart_exit
                0x000000000000ec5b       0x37 obj_cooja/mtype782.a(autostart.o)
                0x000000000000ec5b                autostart_exit
 *fill*         0x000000000000ec92        0x2 90909090
 .text          0x000000000000ec94        0x0 obj_cooja/mtype782.a(serial-line.o)
 .text.serial_line_input_byte
                0x000000000000ec94       0x7d obj_cooja/mtype782.a(serial-line.o)
                0x000000000000ec94                serial_line_input_byte
 .text.process_thread_serial_line_process
                0x000000000000ed11      0x137 obj_cooja/mtype782.a(serial-line.o)
 .text.serial_line_init
                0x000000000000ee48       0x38 obj_cooja/mtype782.a(serial-line.o)
                0x000000000000ee48                serial_line_init
 .text          0x000000000000ee80        0x0 obj_cooja/mtype782.a(memb.o)
 .text.memb_init
                0x000000000000ee80       0x5e obj_cooja/mtype782.a(memb.o)
                0x000000000000ee80                memb_init
 .text.memb_alloc
                0x000000000000eede       0x65 obj_cooja/mtype782.a(memb.o)
                0x000000000000eede                memb_alloc
 .text.memb_free
                0x000000000000ef43       0x7b obj_cooja/mtype782.a(memb.o)
                0x000000000000ef43                memb_free
 .text.memb_inmemb
                0x000000000000efbe       0x3f obj_cooja/mtype782.a(memb.o)
                0x000000000000efbe                memb_inmemb
 *fill*         0x000000000000effd        0x3 90909090
 .text          0x000000000000f000        0x0 obj_cooja/mtype782.a(list.o)
 .text.list_init
                0x000000000000f000        0xe obj_cooja/mtype782.a(list.o)
                0x000000000000f000                list_init
 .text.list_head
                0x000000000000f00e        0xa obj_cooja/mtype782.a(list.o)
                0x000000000000f00e                list_head
 .text.list_copy
                0x000000000000f018        0xf obj_cooja/mtype782.a(list.o)
                0x000000000000f018                list_copy
 .text.list_tail
                0x000000000000f027       0x36 obj_cooja/mtype782.a(list.o)
                0x000000000000f027                list_tail
 .text.list_add
                0x000000000000f05d       0x49 obj_cooja/mtype782.a(list.o)
                0x000000000000f05d                list_add
 .text.list_push
                0x000000000000f0a6       0x2c obj_cooja/mtype782.a(list.o)
                0x000000000000f0a6                list_push
 .text.list_chop
                0x000000000000f0d2       0x6a obj_cooja/mtype782.a(list.o)
                0x000000000000f0d2                list_chop
 .text.list_pop
                0x000000000000f13c       0x28 obj_cooja/mtype782.a(list.o)
                0x000000000000f13c                list_pop
 .text.list_remove
                0x000000000000f164       0x68 obj_cooja/mtype782.a(list.o)
                0x000000000000f164                list_remove
 .text.list_length
                0x000000000000f1cc       0x2e obj_cooja/mtype782.a(list.o)
                0x000000000000f1cc                list_length
 .text.list_insert
                0x000000000000f1fa       0x34 obj_cooja/mtype782.a(list.o)
                0x000000000000f1fa                list_insert
 .text.list_item_next
                0x000000000000f22e       0x17 obj_cooja/mtype782.a(list.o)
                0x000000000000f22e                list_item_next
 *fill*         0x000000000000f245        0x3 90909090
 .text          0x000000000000f248        0x0 obj_cooja/mtype782.a(etimer.o)
 .text.update_time
                0x000000000000f248       0x8f obj_cooja/mtype782.a(etimer.o)
 .text.process_thread_etimer_process
                0x000000000000f2d7      0x190 obj_cooja/mtype782.a(etimer.o)
 .text.etimer_request_poll
                0x000000000000f467       0x14 obj_cooja/mtype782.a(etimer.o)
                0x000000000000f467                etimer_request_poll
 .text.add_timer
                0x000000000000f47b       0x70 obj_cooja/mtype782.a(etimer.o)
 .text.etimer_set
                0x000000000000f4eb       0x25 obj_cooja/mtype782.a(etimer.o)
                0x000000000000f4eb                etimer_set
 .text.etimer_reset
                0x000000000000f510       0x1e obj_cooja/mtype782.a(etimer.o)
                0x000000000000f510                etimer_reset
 .text.etimer_restart
                0x000000000000f52e       0x1e obj_cooja/mtype782.a(etimer.o)
                0x000000000000f52e                etimer_restart
 .text.etimer_adjust
                0x000000000000f54c       0x1c obj_cooja/mtype782.a(etimer.o)
                0x000000000000f54c                etimer_adjust
 .text.etimer_expired
                0x000000000000f568       0x13 obj_cooja/mtype782.a(etimer.o)
                0x000000000000f568                etimer_expired
 .text.etimer_expiration_time
                0x000000000000f57b       0x12 obj_cooja/mtype782.a(etimer.o)
                0x000000000000f57b                etimer_expiration_time
 .text.etimer_start_time
                0x000000000000f58d        0xa obj_cooja/mtype782.a(etimer.o)
                0x000000000000f58d                etimer_start_time
 .text.etimer_pending
                0x000000000000f597       0x12 obj_cooja/mtype782.a(etimer.o)
                0x000000000000f597                etimer_pending
 .text.etimer_next_expiration_time
                0x000000000000f5a9       0x1a obj_cooja/mtype782.a(etimer.o)
                0x000000000000f5a9                etimer_next_expiration_time
 .text.etimer_stop
                0x000000000000f5c3       0x75 obj_cooja/mtype782.a(etimer.o)
                0x000000000000f5c3                etimer_stop
 .text          0x000000000000f638        0x0 obj_cooja/mtype782.a(ctimer.o)
 .text.process_thread_ctimer_process
                0x000000000000f638      0x11b obj_cooja/mtype782.a(ctimer.o)
 .text.ctimer_init
                0x000000000000f753       0x30 obj_cooja/mtype782.a(ctimer.o)
                0x000000000000f753                ctimer_init
 .text.ctimer_set
                0x000000000000f783       0x93 obj_cooja/mtype782.a(ctimer.o)
                0x000000000000f783                ctimer_set
 .text.ctimer_reset
                0x000000000000f816       0x63 obj_cooja/mtype782.a(ctimer.o)
                0x000000000000f816                ctimer_reset
 .text.ctimer_restart
                0x000000000000f879       0x63 obj_cooja/mtype782.a(ctimer.o)
                0x000000000000f879                ctimer_restart
 .text.ctimer_stop
                0x000000000000f8dc       0x4b obj_cooja/mtype782.a(ctimer.o)
                0x000000000000f8dc                ctimer_stop
 .text.ctimer_expired
                0x000000000000f927       0x57 obj_cooja/mtype782.a(ctimer.o)
                0x000000000000f927                ctimer_expired
 *fill*         0x000000000000f97e        0x2 90909090
 .text          0x000000000000f980        0x0 obj_cooja/mtype782.a(random.o)
 .text.random_init
                0x000000000000f980       0x1b obj_cooja/mtype782.a(random.o)
                0x000000000000f980                random_init
 .text.random_rand
                0x000000000000f99b        0xd obj_cooja/mtype782.a(random.o)
                0x000000000000f99b                random_rand
 .text          0x000000000000f9a8        0x0 obj_cooja/mtype782.a(ringbuf.o)
 .text.ringbuf_init
                0x000000000000f9a8       0x31 obj_cooja/mtype782.a(ringbuf.o)
                0x000000000000f9a8                ringbuf_init
 .text.ringbuf_put
                0x000000000000f9d9       0x7e obj_cooja/mtype782.a(ringbuf.o)
                0x000000000000f9d9                ringbuf_put
 .text.ringbuf_get
                0x000000000000fa57       0x6d obj_cooja/mtype782.a(ringbuf.o)
                0x000000000000fa57                ringbuf_get
 .text.ringbuf_size
                0x000000000000fac4       0x12 obj_cooja/mtype782.a(ringbuf.o)
                0x000000000000fac4                ringbuf_size
 .text.ringbuf_elements
                0x000000000000fad6       0x27 obj_cooja/mtype782.a(ringbuf.o)
                0x000000000000fad6                ringbuf_elements
 *fill*         0x000000000000fafd        0x3 90909090
 .text          0x000000000000fb00        0x0 obj_cooja/mtype782.a(netstack.o)
 .text.netstack_init
                0x000000000000fb00       0x24 obj_cooja/mtype782.a(netstack.o)
                0x000000000000fb00                netstack_init
 .text          0x000000000000fb24        0x0 obj_cooja/mtype782.a(packetbuf.o)
 .text.packetbuf_clear
                0x000000000000fb24       0x37 obj_cooja/mtype782.a(packetbuf.o)
                0x000000000000fb24                packetbuf_clear
 .text.packetbuf_clear_hdr
                0x000000000000fb5b        0xc obj_cooja/mtype782.a(packetbuf.o)
                0x000000000000fb5b                packetbuf_clear_hdr
 .text.packetbuf_copyfrom
                0x000000000000fb67       0x52 obj_cooja/mtype782.a(packetbuf.o)
                0x000000000000fb67                packetbuf_copyfrom
 .text.packetbuf_compact
                0x000000000000fbb9       0x9e obj_cooja/mtype782.a(packetbuf.o)
                0x000000000000fbb9                packetbuf_compact
 .text.packetbuf_copyto_hdr
                0x000000000000fc57       0x5a obj_cooja/mtype782.a(packetbuf.o)
                0x000000000000fc57                packetbuf_copyto_hdr
 .text.packetbuf_copyto
                0x000000000000fcb1       0xe3 obj_cooja/mtype782.a(packetbuf.o)
                0x000000000000fcb1                packetbuf_copyto
 .text.packetbuf_hdralloc
                0x000000000000fd94       0x4a obj_cooja/mtype782.a(packetbuf.o)
                0x000000000000fd94                packetbuf_hdralloc
 .text.packetbuf_hdr_remove
                0x000000000000fdde       0x18 obj_cooja/mtype782.a(packetbuf.o)
                0x000000000000fdde                packetbuf_hdr_remove
 .text.packetbuf_hdrreduce
                0x000000000000fdf6       0x4b obj_cooja/mtype782.a(packetbuf.o)
                0x000000000000fdf6                packetbuf_hdrreduce
 .text.packetbuf_set_datalen
                0x000000000000fe41       0x19 obj_cooja/mtype782.a(packetbuf.o)
                0x000000000000fe41                packetbuf_set_datalen
 .text.packetbuf_dataptr
                0x000000000000fe5a       0x19 obj_cooja/mtype782.a(packetbuf.o)
                0x000000000000fe5a                packetbuf_dataptr
 .text.packetbuf_hdrptr
                0x000000000000fe73       0x17 obj_cooja/mtype782.a(packetbuf.o)
                0x000000000000fe73                packetbuf_hdrptr
 .text.packetbuf_reference
                0x000000000000fe8a       0x26 obj_cooja/mtype782.a(packetbuf.o)
                0x000000000000fe8a                packetbuf_reference
 .text.packetbuf_is_reference
                0x000000000000feb0       0x1a obj_cooja/mtype782.a(packetbuf.o)
                0x000000000000feb0                packetbuf_is_reference
 .text.packetbuf_reference_ptr
                0x000000000000feca        0xa obj_cooja/mtype782.a(packetbuf.o)
                0x000000000000feca                packetbuf_reference_ptr
 .text.packetbuf_datalen
                0x000000000000fed4        0xc obj_cooja/mtype782.a(packetbuf.o)
                0x000000000000fed4                packetbuf_datalen
 .text.packetbuf_hdrlen
                0x000000000000fee0       0x17 obj_cooja/mtype782.a(packetbuf.o)
                0x000000000000fee0                packetbuf_hdrlen
 .text.packetbuf_totlen
                0x000000000000fef7       0x16 obj_cooja/mtype782.a(packetbuf.o)
                0x000000000000fef7                packetbuf_totlen
 .text.packetbuf_attr_clear
                0x000000000000ff0d       0x56 obj_cooja/mtype782.a(packetbuf.o)
                0x000000000000ff0d                packetbuf_attr_clear
 .text.packetbuf_attr_copyto
                0x000000000000ff63       0x9d obj_cooja/mtype782.a(packetbuf.o)
                0x000000000000ff63                packetbuf_attr_copyto
 .text.packetbuf_attr_copyfrom
                0x0000000000010000       0x9c obj_cooja/mtype782.a(packetbuf.o)
                0x0000000000010000                packetbuf_attr_copyfrom
 .text          0x000000000001009c        0x0 obj_cooja/mtype782.a(queuebuf.o)
 .text.queuebuf_load_to_ram
                0x000000000001009c        0xa obj_cooja/mtype782.a(queuebuf.o)
 .text.queuebuf_init
                0x00000000000100a6       0x2c obj_cooja/mtype782.a(queuebuf.o)
                0x00000000000100a6                queuebuf_init
 .text.queuebuf_new_from_packetbuf
                0x00000000000100d2       0xcb obj_cooja/mtype782.a(queuebuf.o)
                0x00000000000100d2                queuebuf_new_from_packetbuf
 .text.queuebuf_update_attr_from_packetbuf
                0x000000000001019d       0x33 obj_cooja/mtype782.a(queuebuf.o)
                0x000000000001019d                queuebuf_update_attr_from_packetbuf
 .text.queuebuf_free
                0x00000000000101d0       0x73 obj_cooja/mtype782.a(queuebuf.o)
                0x00000000000101d0                queuebuf_free
 .text.queuebuf_to_packetbuf
                0x0000000000010243       0xe8 obj_cooja/mtype782.a(queuebuf.o)
                0x0000000000010243                queuebuf_to_packetbuf
 .text.queuebuf_dataptr
                0x000000000001032b       0x5f obj_cooja/mtype782.a(queuebuf.o)
                0x000000000001032b                queuebuf_dataptr
 .text.queuebuf_datalen
                0x000000000001038a       0x1f obj_cooja/mtype782.a(queuebuf.o)
                0x000000000001038a                queuebuf_datalen
 .text.queuebuf_addr
                0x00000000000103a9       0x2f obj_cooja/mtype782.a(queuebuf.o)
                0x00000000000103a9                queuebuf_addr
 .text.queuebuf_attr
                0x00000000000103d8       0x2b obj_cooja/mtype782.a(queuebuf.o)
                0x00000000000103d8                queuebuf_attr
 .text.queuebuf_debug_print
                0x0000000000010403        0x5 obj_cooja/mtype782.a(queuebuf.o)
                0x0000000000010403                queuebuf_debug_print
 .text          0x0000000000010408        0x0 obj_cooja/mtype782.a(sicslowpan.o)
 .text.packetbuf_set_attr
                0x0000000000010408       0x2a obj_cooja/mtype782.a(sicslowpan.o)
 .text.packetbuf_set_addr
                0x0000000000010432       0x32 obj_cooja/mtype782.a(sicslowpan.o)
 .text.packetbuf_addr
                0x0000000000010464       0x1d obj_cooja/mtype782.a(sicslowpan.o)
 .text.rime_sniffer_add
                0x0000000000010481        0xd obj_cooja/mtype782.a(sicslowpan.o)
                0x0000000000010481                rime_sniffer_add
 .text.rime_sniffer_remove
                0x000000000001048e        0xf obj_cooja/mtype782.a(sicslowpan.o)
                0x000000000001048e                rime_sniffer_remove
 .text.set_packet_attrs
                0x000000000001049d       0xe9 obj_cooja/mtype782.a(sicslowpan.o)
 .text.addr_context_lookup_by_prefix
                0x0000000000010586       0x7a obj_cooja/mtype782.a(sicslowpan.o)
 .text.addr_context_lookup_by_number
                0x0000000000010600       0x6a obj_cooja/mtype782.a(sicslowpan.o)
 .text.compress_addr_64
                0x000000000001066a      0x163 obj_cooja/mtype782.a(sicslowpan.o)
 .text.uncompress_addr
                0x00000000000107cd      0x12e obj_cooja/mtype782.a(sicslowpan.o)
 .text.compress_hdr_hc06
                0x00000000000108fb      0x942 obj_cooja/mtype782.a(sicslowpan.o)
 .text.uncompress_hdr_hc06
                0x000000000001123d      0x77d obj_cooja/mtype782.a(sicslowpan.o)
 .text.compress_hdr_ipv6
                0x00000000000119ba       0x8d obj_cooja/mtype782.a(sicslowpan.o)
 .text.packet_sent
                0x0000000000011a47       0x3b obj_cooja/mtype782.a(sicslowpan.o)
 .text.send_packet
                0x0000000000011a82       0x36 obj_cooja/mtype782.a(sicslowpan.o)
 .text.output   0x0000000000011ab8      0x54f obj_cooja/mtype782.a(sicslowpan.o)
 .text.input    0x0000000000012007      0x54f obj_cooja/mtype782.a(sicslowpan.o)
 .text.sicslowpan_init
                0x0000000000012556       0x57 obj_cooja/mtype782.a(sicslowpan.o)
                0x0000000000012556                sicslowpan_init
 *fill*         0x00000000000125ad        0x3 90909090
 .text          0x00000000000125b0        0x0 obj_cooja/mtype782.a(simple-udp.o)
 .text.init_simple_udp
                0x00000000000125b0       0x2e obj_cooja/mtype782.a(simple-udp.o)
 .text.simple_udp_send
                0x00000000000125de       0x6d obj_cooja/mtype782.a(simple-udp.o)
                0x00000000000125de                simple_udp_send
 .text.simple_udp_sendto
                0x000000000001264b       0x65 obj_cooja/mtype782.a(simple-udp.o)
                0x000000000001264b                simple_udp_sendto
 .text.simple_udp_sendto_port
                0x00000000000126b0       0x63 obj_cooja/mtype782.a(simple-udp.o)
                0x00000000000126b0                simple_udp_sendto_port
 .text.simple_udp_register
                0x0000000000012713       0xe6 obj_cooja/mtype782.a(simple-udp.o)
                0x0000000000012713                simple_udp_register
 .text.process_thread_simple_udp_process
                0x00000000000127f9      0x15b obj_cooja/mtype782.a(simple-udp.o)
 .text          0x0000000000012954        0x0 obj_cooja/mtype782.a(tcpip.o)
 .text.tcpip_output
                0x0000000000012954       0x2f obj_cooja/mtype782.a(tcpip.o)
                0x0000000000012954                tcpip_output
 .text.tcpip_set_outputfunc
                0x0000000000012983        0xd obj_cooja/mtype782.a(tcpip.o)
                0x0000000000012983                tcpip_set_outputfunc
 .text.start_periodic_tcp_timer
                0x0000000000012990       0x24 obj_cooja/mtype782.a(tcpip.o)
 .text.check_for_tcp_syn
                0x00000000000129b4       0x2d obj_cooja/mtype782.a(tcpip.o)
 .text.packet_input
                0x00000000000129e1       0x36 obj_cooja/mtype782.a(tcpip.o)
 .text.tcp_connect
                0x0000000000012a17       0x55 obj_cooja/mtype782.a(tcpip.o)
                0x0000000000012a17                tcp_connect
 .text.tcp_unlisten
                0x0000000000012a6c       0x6e obj_cooja/mtype782.a(tcpip.o)
                0x0000000000012a6c                tcp_unlisten
 .text.tcp_listen
                0x0000000000012ada       0x6c obj_cooja/mtype782.a(tcpip.o)
                0x0000000000012ada                tcp_listen
 .text.tcp_attach
                0x0000000000012b46       0x25 obj_cooja/mtype782.a(tcpip.o)
                0x0000000000012b46                tcp_attach
 .text.udp_attach
                0x0000000000012b6b       0x25 obj_cooja/mtype782.a(tcpip.o)
                0x0000000000012b6b                udp_attach
 .text.udp_new  0x0000000000012b90       0x52 obj_cooja/mtype782.a(tcpip.o)
                0x0000000000012b90                udp_new
 .text.udp_broadcast_new
                0x0000000000012be2       0x92 obj_cooja/mtype782.a(tcpip.o)
                0x0000000000012be2                udp_broadcast_new
 .text.eventhandler
                0x0000000000012c74      0x21b obj_cooja/mtype782.a(tcpip.o)
 .text.tcpip_input
                0x0000000000012e8f       0x34 obj_cooja/mtype782.a(tcpip.o)
                0x0000000000012e8f                tcpip_input
 .text.tcpip_ipv6_output
                0x0000000000012ec3      0x483 obj_cooja/mtype782.a(tcpip.o)
                0x0000000000012ec3                tcpip_ipv6_output
 .text.tcpip_poll_udp
                0x0000000000013346       0x23 obj_cooja/mtype782.a(tcpip.o)
                0x0000000000013346                tcpip_poll_udp
 .text.tcpip_poll_tcp
                0x0000000000013369       0x23 obj_cooja/mtype782.a(tcpip.o)
                0x0000000000013369                tcpip_poll_tcp
 .text.tcpip_uipcall
                0x000000000001338c       0xd0 obj_cooja/mtype782.a(tcpip.o)
                0x000000000001338c                tcpip_uipcall
 .text.process_thread_tcpip_process
                0x000000000001345c       0xd3 obj_cooja/mtype782.a(tcpip.o)
 *fill*         0x000000000001352f        0x1 90909090
 .text          0x0000000000013530        0x0 obj_cooja/mtype782.a(uip-ds6-route.o)
 .text.call_route_callback
                0x0000000000013530       0x77 obj_cooja/mtype782.a(uip-ds6-route.o)
 .text.uip_ds6_notification_add
                0x00000000000135a7       0x31 obj_cooja/mtype782.a(uip-ds6-route.o)
                0x00000000000135a7                uip_ds6_notification_add
 .text.uip_ds6_notification_rm
                0x00000000000135d8       0x1c obj_cooja/mtype782.a(uip-ds6-route.o)
                0x00000000000135d8                uip_ds6_notification_rm
 .text.uip_ds6_route_init
                0x00000000000135f4       0x4f obj_cooja/mtype782.a(uip-ds6-route.o)
                0x00000000000135f4                uip_ds6_route_init
 .text.uip_ds6_route_nexthop_lladdr
                0x0000000000013643       0x2c obj_cooja/mtype782.a(uip-ds6-route.o)
 .text.uip_ds6_route_nexthop
                0x000000000001366f       0x28 obj_cooja/mtype782.a(uip-ds6-route.o)
                0x000000000001366f                uip_ds6_route_nexthop
 .text.uip_ds6_route_head
                0x0000000000013697       0x41 obj_cooja/mtype782.a(uip-ds6-route.o)
                0x0000000000013697                uip_ds6_route_head
 .text.uip_ds6_route_next
                0x00000000000136d8       0x5c obj_cooja/mtype782.a(uip-ds6-route.o)
                0x00000000000136d8                uip_ds6_route_next
 .text.uip_ds6_route_num_routes
                0x0000000000013734        0xa obj_cooja/mtype782.a(uip-ds6-route.o)
                0x0000000000013734                uip_ds6_route_num_routes
 .text.uip_ds6_route_lookup
                0x000000000001373e       0x7a obj_cooja/mtype782.a(uip-ds6-route.o)
                0x000000000001373e                uip_ds6_route_lookup
 .text.uip_ds6_route_add
                0x00000000000137b8      0x150 obj_cooja/mtype782.a(uip-ds6-route.o)
                0x00000000000137b8                uip_ds6_route_add
 .text.uip_ds6_route_rm
                0x0000000000013908       0xac obj_cooja/mtype782.a(uip-ds6-route.o)
                0x0000000000013908                uip_ds6_route_rm
 .text.rm_routelist
                0x00000000000139b4       0x61 obj_cooja/mtype782.a(uip-ds6-route.o)
 .text.rm_routelist_callback
                0x0000000000013a15       0x13 obj_cooja/mtype782.a(uip-ds6-route.o)
 .text.uip_ds6_route_rm_by_nexthop
                0x0000000000013a28       0x38 obj_cooja/mtype782.a(uip-ds6-route.o)
                0x0000000000013a28                uip_ds6_route_rm_by_nexthop
 .text.uip_ds6_defrt_add
                0x0000000000013a60       0xb1 obj_cooja/mtype782.a(uip-ds6-route.o)
                0x0000000000013a60                uip_ds6_defrt_add
 .text.uip_ds6_defrt_rm
                0x0000000000013b11       0x7f obj_cooja/mtype782.a(uip-ds6-route.o)
                0x0000000000013b11                uip_ds6_defrt_rm
 .text.uip_ds6_defrt_lookup
                0x0000000000013b90       0x59 obj_cooja/mtype782.a(uip-ds6-route.o)
                0x0000000000013b90                uip_ds6_defrt_lookup
 .text.uip_ds6_defrt_choose
                0x0000000000013be9       0x6b obj_cooja/mtype782.a(uip-ds6-route.o)
                0x0000000000013be9                uip_ds6_defrt_choose
 .text.uip_ds6_defrt_periodic
                0x0000000000013c54       0x68 obj_cooja/mtype782.a(uip-ds6-route.o)
                0x0000000000013c54                uip_ds6_defrt_periodic
 .text          0x0000000000013cbc        0x0 obj_cooja/mtype782.a(uip-ds6-nbr.o)
 .text.packetbuf_addr
                0x0000000000013cbc       0x1d obj_cooja/mtype782.a(uip-ds6-nbr.o)
 .text.uip_ds6_neighbors_init
                0x0000000000013cd9       0x1d obj_cooja/mtype782.a(uip-ds6-nbr.o)
                0x0000000000013cd9                uip_ds6_neighbors_init
 .text.uip_ds6_nbr_add
                0x0000000000013cf6       0xbb obj_cooja/mtype782.a(uip-ds6-nbr.o)
                0x0000000000013cf6                uip_ds6_nbr_add
 .text.uip_ds6_nbr_rm
                0x0000000000013db1       0x3b obj_cooja/mtype782.a(uip-ds6-nbr.o)
                0x0000000000013db1                uip_ds6_nbr_rm
 .text.uip_ds6_nbr_get_ipaddr
                0x0000000000013dec       0x15 obj_cooja/mtype782.a(uip-ds6-nbr.o)
                0x0000000000013dec                uip_ds6_nbr_get_ipaddr
 .text.uip_ds6_nbr_get_ll
                0x0000000000013e01       0x1c obj_cooja/mtype782.a(uip-ds6-nbr.o)
                0x0000000000013e01                uip_ds6_nbr_get_ll
 .text.uip_ds6_nbr_num
                0x0000000000013e1d       0x45 obj_cooja/mtype782.a(uip-ds6-nbr.o)
                0x0000000000013e1d                uip_ds6_nbr_num
 .text.uip_ds6_nbr_lookup
                0x0000000000013e62       0x65 obj_cooja/mtype782.a(uip-ds6-nbr.o)
                0x0000000000013e62                uip_ds6_nbr_lookup
 .text.uip_ds6_nbr_ll_lookup
                0x0000000000013ec7       0x1c obj_cooja/mtype782.a(uip-ds6-nbr.o)
                0x0000000000013ec7                uip_ds6_nbr_ll_lookup
 .text.uip_ds6_nbr_ipaddr_from_lladdr
                0x0000000000013ee3       0x26 obj_cooja/mtype782.a(uip-ds6-nbr.o)
                0x0000000000013ee3                uip_ds6_nbr_ipaddr_from_lladdr
 .text.uip_ds6_nbr_lladdr_from_ipaddr
                0x0000000000013f09       0x2e obj_cooja/mtype782.a(uip-ds6-nbr.o)
                0x0000000000013f09                uip_ds6_nbr_lladdr_from_ipaddr
 .text.uip_ds6_link_neighbor_callback
                0x0000000000013f37       0x4a obj_cooja/mtype782.a(uip-ds6-nbr.o)
                0x0000000000013f37                uip_ds6_link_neighbor_callback
 .text.uip_ds6_neighbor_periodic
                0x0000000000013f81      0x22a obj_cooja/mtype782.a(uip-ds6-nbr.o)
                0x0000000000013f81                uip_ds6_neighbor_periodic
 .text.uip_ds6_get_least_lifetime_neighbor
                0x00000000000141ab       0x79 obj_cooja/mtype782.a(uip-ds6-nbr.o)
                0x00000000000141ab                uip_ds6_get_least_lifetime_neighbor
 .text          0x0000000000014224        0x0 obj_cooja/mtype782.a(uip-ds6.o)
 .text.uip_ds6_init
                0x0000000000014224      0x1cb obj_cooja/mtype782.a(uip-ds6.o)
                0x0000000000014224                uip_ds6_init
 .text.uip_ds6_periodic
                0x00000000000143ef       0x7d obj_cooja/mtype782.a(uip-ds6.o)
                0x00000000000143ef                uip_ds6_periodic
 .text.uip_ds6_list_loop
                0x000000000001446c       0xa3 obj_cooja/mtype782.a(uip-ds6.o)
                0x000000000001446c                uip_ds6_list_loop
 .text.uip_ds6_prefix_add
                0x000000000001450f       0xbe obj_cooja/mtype782.a(uip-ds6.o)
                0x000000000001450f                uip_ds6_prefix_add
 .text.uip_ds6_prefix_rm
                0x00000000000145cd       0x11 obj_cooja/mtype782.a(uip-ds6.o)
                0x00000000000145cd                uip_ds6_prefix_rm
 .text.uip_ds6_prefix_lookup
                0x00000000000145de       0x51 obj_cooja/mtype782.a(uip-ds6.o)
                0x00000000000145de                uip_ds6_prefix_lookup
 .text.uip_ds6_is_addr_onlink
                0x000000000001462f       0x74 obj_cooja/mtype782.a(uip-ds6.o)
                0x000000000001462f                uip_ds6_is_addr_onlink
 .text.uip_ds6_addr_add
                0x00000000000146a3      0x12e obj_cooja/mtype782.a(uip-ds6.o)
                0x00000000000146a3                uip_ds6_addr_add
 .text.uip_ds6_addr_rm
                0x00000000000147d1       0x9f obj_cooja/mtype782.a(uip-ds6.o)
                0x00000000000147d1                uip_ds6_addr_rm
 .text.uip_ds6_addr_lookup
                0x0000000000014870       0x4b obj_cooja/mtype782.a(uip-ds6.o)
                0x0000000000014870                uip_ds6_addr_lookup
 .text.uip_ds6_get_link_local
                0x00000000000148bb       0x7f obj_cooja/mtype782.a(uip-ds6.o)
                0x00000000000148bb                uip_ds6_get_link_local
 .text.uip_ds6_get_global
                0x000000000001493a       0x7f obj_cooja/mtype782.a(uip-ds6.o)
                0x000000000001493a                uip_ds6_get_global
 .text.uip_ds6_maddr_add
                0x00000000000149b9       0x72 obj_cooja/mtype782.a(uip-ds6.o)
                0x00000000000149b9                uip_ds6_maddr_add
 .text.uip_ds6_maddr_rm
                0x0000000000014a2b       0x11 obj_cooja/mtype782.a(uip-ds6.o)
                0x0000000000014a2b                uip_ds6_maddr_rm
 .text.uip_ds6_maddr_lookup
                0x0000000000014a3c       0x4b obj_cooja/mtype782.a(uip-ds6.o)
                0x0000000000014a3c                uip_ds6_maddr_lookup
 .text.uip_ds6_aaddr_add
                0x0000000000014a87       0x72 obj_cooja/mtype782.a(uip-ds6.o)
                0x0000000000014a87                uip_ds6_aaddr_add
 .text.uip_ds6_aaddr_rm
                0x0000000000014af9       0x11 obj_cooja/mtype782.a(uip-ds6.o)
                0x0000000000014af9                uip_ds6_aaddr_rm
 .text.uip_ds6_aaddr_lookup
                0x0000000000014b0a       0x4b obj_cooja/mtype782.a(uip-ds6.o)
                0x0000000000014b0a                uip_ds6_aaddr_lookup
 .text.uip_ds6_select_src
                0x0000000000014b55      0x145 obj_cooja/mtype782.a(uip-ds6.o)
                0x0000000000014b55                uip_ds6_select_src
 .text.uip_ds6_set_addr_iid
                0x0000000000014c9a       0x2a obj_cooja/mtype782.a(uip-ds6.o)
                0x0000000000014c9a                uip_ds6_set_addr_iid
 .text.get_match_length
                0x0000000000014cc4       0x7f obj_cooja/mtype782.a(uip-ds6.o)
                0x0000000000014cc4                get_match_length
 .text.uip_ds6_compute_reachable_time
                0x0000000000014d43       0x4c obj_cooja/mtype782.a(uip-ds6.o)
                0x0000000000014d43                uip_ds6_compute_reachable_time
 *fill*         0x0000000000014d8f        0x1 90909090
 .text          0x0000000000014d90        0x0 obj_cooja/mtype782.a(uip-nd6.o)
 .text.create_llao
                0x0000000000014d90       0x48 obj_cooja/mtype782.a(uip-nd6.o)
 .text.uip_nd6_ns_input
                0x0000000000014dd8      0x5b4 obj_cooja/mtype782.a(uip-nd6.o)
                0x0000000000014dd8                uip_nd6_ns_input
 .text.uip_nd6_ns_output
                0x000000000001538c      0x2f8 obj_cooja/mtype782.a(uip-nd6.o)
                0x000000000001538c                uip_nd6_ns_output
 .text.uip_nd6_na_input
                0x0000000000015684      0x467 obj_cooja/mtype782.a(uip-nd6.o)
                0x0000000000015684                uip_nd6_na_input
 *fill*         0x0000000000015aeb        0x1 90909090
 .text          0x0000000000015aec        0x0 obj_cooja/mtype782.a(uip-packetqueue)
 .text.packet_timedout
                0x0000000000015aec       0x2c obj_cooja/mtype782.a(uip-packetqueue)
 .text.uip_packetqueue_new
                0x0000000000015b18        0xe obj_cooja/mtype782.a(uip-packetqueue)
                0x0000000000015b18                uip_packetqueue_new
 .text.uip_packetqueue_alloc
                0x0000000000015b26       0x60 obj_cooja/mtype782.a(uip-packetqueue)
                0x0000000000015b26                uip_packetqueue_alloc
 .text.uip_packetqueue_free
                0x0000000000015b86       0x41 obj_cooja/mtype782.a(uip-packetqueue)
                0x0000000000015b86                uip_packetqueue_free
 .text.uip_packetqueue_buf
                0x0000000000015bc7       0x1d obj_cooja/mtype782.a(uip-packetqueue)
                0x0000000000015bc7                uip_packetqueue_buf
 .text.uip_packetqueue_buflen
                0x0000000000015be4       0x21 obj_cooja/mtype782.a(uip-packetqueue)
                0x0000000000015be4                uip_packetqueue_buflen
 .text.uip_packetqueue_set_buflen
                0x0000000000015c05       0x28 obj_cooja/mtype782.a(uip-packetqueue)
                0x0000000000015c05                uip_packetqueue_set_buflen
 *fill*         0x0000000000015c2d        0x3 90909090
 .text          0x0000000000015c30        0x0 obj_cooja/mtype782.a(uip-udp-packet.)
 .text.uip_udp_packet_send
                0x0000000000015c30       0x63 obj_cooja/mtype782.a(uip-udp-packet.)
                0x0000000000015c30                uip_udp_packet_send
 .text.uip_udp_packet_sendto
                0x0000000000015c93       0xd1 obj_cooja/mtype782.a(uip-udp-packet.)
                0x0000000000015c93                uip_udp_packet_sendto
 .text          0x0000000000015d64        0x0 obj_cooja/mtype782.a(uip6.o)
 .text.uip_add32
                0x0000000000015d64       0xed obj_cooja/mtype782.a(uip6.o)
                0x0000000000015d64                uip_add32
 .text.chksum   0x0000000000015e51       0xa1 obj_cooja/mtype782.a(uip6.o)
 .text.uip_chksum
                0x0000000000015ef2       0x35 obj_cooja/mtype782.a(uip6.o)
                0x0000000000015ef2                uip_chksum
 .text.upper_layer_chksum
                0x0000000000015f27       0xbc obj_cooja/mtype782.a(uip6.o)
 .text.uip_icmp6chksum
                0x0000000000015fe3       0x14 obj_cooja/mtype782.a(uip6.o)
                0x0000000000015fe3                uip_icmp6chksum
 .text.uip_tcpchksum
                0x0000000000015ff7       0x14 obj_cooja/mtype782.a(uip6.o)
                0x0000000000015ff7                uip_tcpchksum
 .text.uip_udpchksum
                0x000000000001600b       0x14 obj_cooja/mtype782.a(uip6.o)
                0x000000000001600b                uip_udpchksum
 .text.uip_init
                0x000000000001601f       0xc6 obj_cooja/mtype782.a(uip6.o)
                0x000000000001601f                uip_init
 .text.uip_connect
                0x00000000000160e5      0x1b0 obj_cooja/mtype782.a(uip6.o)
                0x00000000000160e5                uip_connect
 .text.remove_ext_hdr
                0x0000000000016295       0xda obj_cooja/mtype782.a(uip6.o)
                0x0000000000016295                remove_ext_hdr
 .text.uip_udp_new
                0x000000000001636f      0x160 obj_cooja/mtype782.a(uip6.o)
                0x000000000001636f                uip_udp_new
 .text.uip_unlisten
                0x00000000000164cf       0x60 obj_cooja/mtype782.a(uip6.o)
                0x00000000000164cf                uip_unlisten
 .text.uip_listen
                0x000000000001652f       0x61 obj_cooja/mtype782.a(uip6.o)
                0x000000000001652f                uip_listen
 .text.uip_add_rcv_nxt
                0x0000000000016590       0x64 obj_cooja/mtype782.a(uip6.o)
 .text.ext_hdr_options_process
                0x00000000000165f4      0x1fd obj_cooja/mtype782.a(uip6.o)
 .text.uip_process
                0x00000000000167f1     0x1dd3 obj_cooja/mtype782.a(uip6.o)
                0x00000000000167f1                uip_process
 .text.uip_htons
                0x00000000000185c4       0x22 obj_cooja/mtype782.a(uip6.o)
                0x00000000000185c4                uip_htons
 .text.uip_htonl
                0x00000000000185e6       0x40 obj_cooja/mtype782.a(uip6.o)
                0x00000000000185e6                uip_htonl
 .text.uip_send
                0x0000000000018626       0x60 obj_cooja/mtype782.a(uip6.o)
                0x0000000000018626                uip_send
 *fill*         0x0000000000018686        0x2 90909090
 .text          0x0000000000018688        0x0 obj_cooja/mtype782.a(simEnvChange.o)
 .text.doActionsBeforeTick
                0x0000000000018688       0x31 obj_cooja/mtype782.a(simEnvChange.o)
                0x0000000000018688                doActionsBeforeTick
 .text.doActionsAfterTick
                0x00000000000186b9       0x32 obj_cooja/mtype782.a(simEnvChange.o)
                0x00000000000186b9                doActionsAfterTick
 *fill*         0x00000000000186eb        0x1 90909090
 .text          0x00000000000186ec        0x0 obj_cooja/mtype782.a(cooja_mt.o)
 .text.cooja_mt_init
                0x00000000000186ec        0xd obj_cooja/mtype782.a(cooja_mt.o)
                0x00000000000186ec                cooja_mt_init
 .text.cooja_mt_remove
                0x00000000000186f9        0xd obj_cooja/mtype782.a(cooja_mt.o)
                0x00000000000186f9                cooja_mt_remove
 .text.cooja_mt_start
                0x0000000000018706       0x2d obj_cooja/mtype782.a(cooja_mt.o)
                0x0000000000018706                cooja_mt_start
 .text.cooja_mt_exec
                0x0000000000018733       0x31 obj_cooja/mtype782.a(cooja_mt.o)
                0x0000000000018733                cooja_mt_exec
 .text.cooja_mt_exit
                0x0000000000018764       0x22 obj_cooja/mtype782.a(cooja_mt.o)
                0x0000000000018764                cooja_mt_exit
 .text.cooja_mt_yield
                0x0000000000018786       0x22 obj_cooja/mtype782.a(cooja_mt.o)
                0x0000000000018786                cooja_mt_yield
 .text          0x00000000000187a8        0x0 obj_cooja/mtype782.a(cooja_mtarch.o)
 .text.cooja_mtarch_init
                0x00000000000187a8        0x5 obj_cooja/mtype782.a(cooja_mtarch.o)
                0x00000000000187a8                cooja_mtarch_init
 .text.cooja_mtarch_start
                0x00000000000187ad       0xc1 obj_cooja/mtype782.a(cooja_mtarch.o)
                0x00000000000187ad                cooja_mtarch_start
 .text.cooja_sw
                0x000000000001886e       0x22 obj_cooja/mtype782.a(cooja_mtarch.o)
                0x000000000001886e                cooja_sw
 .text.cooja_mtarch_exec
                0x0000000000018890       0x1c obj_cooja/mtype782.a(cooja_mtarch.o)
                0x0000000000018890                cooja_mtarch_exec
 .text.cooja_mtarch_remove
                0x00000000000188ac        0x5 obj_cooja/mtype782.a(cooja_mtarch.o)
                0x00000000000188ac                cooja_mtarch_remove
 .text.cooja_mtarch_yield
                0x00000000000188b1        0xa obj_cooja/mtype782.a(cooja_mtarch.o)
                0x00000000000188b1                cooja_mtarch_yield
 .text.cooja_mtarch_pstop
                0x00000000000188bb        0x5 obj_cooja/mtype782.a(cooja_mtarch.o)
                0x00000000000188bb                cooja_mtarch_pstop
 .text.cooja_mtarch_pstart
                0x00000000000188c0        0x5 obj_cooja/mtype782.a(cooja_mtarch.o)
                0x00000000000188c0                cooja_mtarch_pstart
 .text.cooja_mtarch_stack_usage
                0x00000000000188c5       0x3e obj_cooja/mtype782.a(cooja_mtarch.o)
                0x00000000000188c5                cooja_mtarch_stack_usage
 *fill*         0x0000000000018903        0x1 90909090
 .text          0x0000000000018904        0x0 obj_cooja/mtype782.a(rtimer-arch.o)
 .text.rtimer_arch_init
                0x0000000000018904       0x23 obj_cooja/mtype782.a(rtimer-arch.o)
                0x0000000000018904                rtimer_arch_init
 .text.rtimer_arch_schedule
                0x0000000000018927       0x17 obj_cooja/mtype782.a(rtimer-arch.o)
                0x0000000000018927                rtimer_arch_schedule
 .text.rtimer_arch_next
                0x000000000001893e        0xa obj_cooja/mtype782.a(rtimer-arch.o)
                0x000000000001893e                rtimer_arch_next
 .text.rtimer_arch_pending
                0x0000000000018948        0xa obj_cooja/mtype782.a(rtimer-arch.o)
                0x0000000000018948                rtimer_arch_pending
 .text.rtimer_arch_check
                0x0000000000018952       0x32 obj_cooja/mtype782.a(rtimer-arch.o)
                0x0000000000018952                rtimer_arch_check
 .text.rtimer_arch_now
                0x0000000000018984       0x42 obj_cooja/mtype782.a(rtimer-arch.o)
                0x0000000000018984                rtimer_arch_now
 *fill*         0x00000000000189c6        0x2 90909090
 .text          0x00000000000189c8        0x0 obj_cooja/mtype782.a(watchdog.o)
 .text.watchdog_init
                0x00000000000189c8        0x5 obj_cooja/mtype782.a(watchdog.o)
                0x00000000000189c8                watchdog_init
 .text.watchdog_start
                0x00000000000189cd        0x5 obj_cooja/mtype782.a(watchdog.o)
                0x00000000000189cd                watchdog_start
 .text.watchdog_periodic
                0x00000000000189d2        0x5 obj_cooja/mtype782.a(watchdog.o)
                0x00000000000189d2                watchdog_periodic
 .text.watchdog_stop
                0x00000000000189d7        0x5 obj_cooja/mtype782.a(watchdog.o)
                0x00000000000189d7                watchdog_stop
 .text.watchdog_reboot
                0x00000000000189dc        0x5 obj_cooja/mtype782.a(watchdog.o)
                0x00000000000189dc                watchdog_reboot
 *fill*         0x00000000000189e1        0x3 90909090
 .text          0x00000000000189e4        0x0 obj_cooja/mtype782.a(beep.o)
 .text.beep_alarm
                0x00000000000189e4        0xc obj_cooja/mtype782.a(beep.o)
                0x00000000000189e4                beep_alarm
 .text.beep_beep
                0x00000000000189f0        0xc obj_cooja/mtype782.a(beep.o)
                0x00000000000189f0                beep_beep
 .text.beep     0x00000000000189fc        0xc obj_cooja/mtype782.a(beep.o)
                0x00000000000189fc                beep
 .text.beep_down
                0x0000000000018a08        0xc obj_cooja/mtype782.a(beep.o)
                0x0000000000018a08                beep_down
 .text.beep_on  0x0000000000018a14        0xc obj_cooja/mtype782.a(beep.o)
                0x0000000000018a14                beep_on
 .text.beep_off
                0x0000000000018a20        0xc obj_cooja/mtype782.a(beep.o)
                0x0000000000018a20                beep_off
 .text.beep_spinup
                0x0000000000018a2c        0xc obj_cooja/mtype782.a(beep.o)
                0x0000000000018a2c                beep_spinup
 .text.beep_quick
                0x0000000000018a38        0xc obj_cooja/mtype782.a(beep.o)
                0x0000000000018a38                beep_quick
 .text.beep_long
                0x0000000000018a44        0xc obj_cooja/mtype782.a(beep.o)
                0x0000000000018a44                beep_long
 .text.doInterfaceActionsBeforeTick
                0x0000000000018a50        0x5 obj_cooja/mtype782.a(beep.o)
 .text.doInterfaceActionsAfterTick
                0x0000000000018a55        0x5 obj_cooja/mtype782.a(beep.o)
 *fill*         0x0000000000018a5a        0x2 90909090
 .text          0x0000000000018a5c        0x0 obj_cooja/mtype782.a(button-sensor.o)
 .text.value    0x0000000000018a5c       0x2f obj_cooja/mtype782.a(button-sensor.o)
 .text.configure
                0x0000000000018a8b       0x50 obj_cooja/mtype782.a(button-sensor.o)
 .text.status   0x0000000000018adb       0x1f obj_cooja/mtype782.a(button-sensor.o)
 .text.doInterfaceActionsBeforeTick
                0x0000000000018afa       0x60 obj_cooja/mtype782.a(button-sensor.o)
 .text.doInterfaceActionsAfterTick
                0x0000000000018b5a        0x5 obj_cooja/mtype782.a(button-sensor.o)
 *fill*         0x0000000000018b5f        0x1 90909090
 .text          0x0000000000018b60        0x0 obj_cooja/mtype782.a(leds-arch.o)
 .text.leds_arch_init
                0x0000000000018b60        0xc obj_cooja/mtype782.a(leds-arch.o)
                0x0000000000018b60                leds_arch_init
 .text.leds_arch_get
                0x0000000000018b6c        0xc obj_cooja/mtype782.a(leds-arch.o)
                0x0000000000018b6c                leds_arch_get
 .text.leds_arch_set
                0x0000000000018b78       0x23 obj_cooja/mtype782.a(leds-arch.o)
                0x0000000000018b78                leds_arch_set
 .text.doInterfaceActionsBeforeTick
                0x0000000000018b9b        0x5 obj_cooja/mtype782.a(leds-arch.o)
 .text.doInterfaceActionsAfterTick
                0x0000000000018ba0        0x5 obj_cooja/mtype782.a(leds-arch.o)
 *fill*         0x0000000000018ba5        0x3 90909090
 .text          0x0000000000018ba8        0x0 obj_cooja/mtype782.a(moteid.o)
 .text.doInterfaceActionsBeforeTick
                0x0000000000018ba8       0x2a obj_cooja/mtype782.a(moteid.o)
 .text.doInterfaceActionsAfterTick
                0x0000000000018bd2        0x5 obj_cooja/mtype782.a(moteid.o)
 *fill*         0x0000000000018bd7        0x1 90909090
 .text          0x0000000000018bd8        0x0 obj_cooja/mtype782.a(pir-sensor.o)
 .text.value    0x0000000000018bd8        0xf obj_cooja/mtype782.a(pir-sensor.o)
 .text.configure
                0x0000000000018be7       0x3a obj_cooja/mtype782.a(pir-sensor.o)
 .text.status   0x0000000000018c21       0x23 obj_cooja/mtype782.a(pir-sensor.o)
 .text.doInterfaceActionsBeforeTick
                0x0000000000018c44       0x40 obj_cooja/mtype782.a(pir-sensor.o)
 .text.doInterfaceActionsAfterTick
                0x0000000000018c84        0x5 obj_cooja/mtype782.a(pir-sensor.o)
 *fill*         0x0000000000018c89        0x3 90909090
 .text          0x0000000000018c8c        0x0 obj_cooja/mtype782.a(rs232.o)
 .text.rs232_init
                0x0000000000018c8c        0x5 obj_cooja/mtype782.a(rs232.o)
                0x0000000000018c8c                rs232_init
 .text.rs232_set_speed
                0x0000000000018c91        0xe obj_cooja/mtype782.a(rs232.o)
                0x0000000000018c91                rs232_set_speed
 .text.rs232_set_input
                0x0000000000018c9f        0xd obj_cooja/mtype782.a(rs232.o)
                0x0000000000018c9f                rs232_set_input
 .text.rs232_send
                0x0000000000018cac       0x23 obj_cooja/mtype782.a(rs232.o)
                0x0000000000018cac                rs232_send
 .text.rs232_print
                0x0000000000018ccf       0x1c obj_cooja/mtype782.a(rs232.o)
                0x0000000000018ccf                rs232_print
 .text.slip_arch_writeb
                0x0000000000018ceb       0x1a obj_cooja/mtype782.a(rs232.o)
                0x0000000000018ceb                slip_arch_writeb
 .text.doInterfaceActionsBeforeTick
                0x0000000000018d05       0xb4 obj_cooja/mtype782.a(rs232.o)
 .text.doInterfaceActionsAfterTick
                0x0000000000018db9        0x5 obj_cooja/mtype782.a(rs232.o)
 *fill*         0x0000000000018dbe        0x2 90909090
 .text          0x0000000000018dc0        0x0 obj_cooja/mtype782.a(vib-sensor.o)
 .text.value    0x0000000000018dc0        0xf obj_cooja/mtype782.a(vib-sensor.o)
 .text.configure
                0x0000000000018dcf       0x3a obj_cooja/mtype782.a(vib-sensor.o)
 .text.status   0x0000000000018e09       0x23 obj_cooja/mtype782.a(vib-sensor.o)
 .text.doInterfaceActionsBeforeTick
                0x0000000000018e2c       0x40 obj_cooja/mtype782.a(vib-sensor.o)
 .text.doInterfaceActionsAfterTick
                0x0000000000018e6c        0x5 obj_cooja/mtype782.a(vib-sensor.o)
 *fill*         0x0000000000018e71        0x3 90909090
 .text          0x0000000000018e74        0x0 obj_cooja/mtype782.a(clock.o)
 .text.clock_init
                0x0000000000018e74        0x5 obj_cooja/mtype782.a(clock.o)
                0x0000000000018e74                clock_init
 .text.clock_time
                0x0000000000018e79        0xa obj_cooja/mtype782.a(clock.o)
                0x0000000000018e79                clock_time
 .text.clock_seconds
                0x0000000000018e83       0x1f obj_cooja/mtype782.a(clock.o)
                0x0000000000018e83                clock_seconds
 .text.clock_delay
                0x0000000000018ea2        0x5 obj_cooja/mtype782.a(clock.o)
                0x0000000000018ea2                clock_delay
 .text.doInterfaceActionsBeforeTick
                0x0000000000018ea7        0x5 obj_cooja/mtype782.a(clock.o)
 .text.doInterfaceActionsAfterTick
                0x0000000000018eac        0x5 obj_cooja/mtype782.a(clock.o)
 *fill*         0x0000000000018eb1        0x3 90909090
 .text          0x0000000000018eb4        0x0 obj_cooja/mtype782.a(log.o)
 .text.simlog_char
                0x0000000000018eb4       0x43 obj_cooja/mtype782.a(log.o)
                0x0000000000018eb4                simlog_char
 .text.simlog   0x0000000000018ef7       0xb1 obj_cooja/mtype782.a(log.o)
                0x0000000000018ef7                simlog
 .text.log_message
                0x0000000000018fa8       0x1e obj_cooja/mtype782.a(log.o)
                0x0000000000018fa8                log_message
 .text.doInterfaceActionsBeforeTick
                0x0000000000018fc6        0x5 obj_cooja/mtype782.a(log.o)
 .text.doInterfaceActionsAfterTick
                0x0000000000018fcb        0x5 obj_cooja/mtype782.a(log.o)
 .text.log_set_putchar_with_slip
                0x0000000000018fd0        0xd obj_cooja/mtype782.a(log.o)
                0x0000000000018fd0                log_set_putchar_with_slip
 .text.putchar  0x0000000000018fdd       0x84 obj_cooja/mtype782.a(log.o)
                0x0000000000018fdd                log_putchar
 .text.puts     0x0000000000019061       0x24 obj_cooja/mtype782.a(log.o)
                0x0000000000019061                log_puts
 .text.printf   0x0000000000019085       0x63 obj_cooja/mtype782.a(log.o)
                0x0000000000019085                log_printf
 .text          0x00000000000190e8        0x0 obj_cooja/mtype782.a(cfs-cooja.o)
 .text.cfs_open
                0x00000000000190e8       0x4b obj_cooja/mtype782.a(cfs-cooja.o)
                0x00000000000190e8                cfs_open
 .text.cfs_close
                0x0000000000019133        0xc obj_cooja/mtype782.a(cfs-cooja.o)
                0x0000000000019133                cfs_close
 .text.cfs_read
                0x000000000001913f       0x93 obj_cooja/mtype782.a(cfs-cooja.o)
                0x000000000001913f                cfs_read
 .text.cfs_write
                0x00000000000191d2       0xbb obj_cooja/mtype782.a(cfs-cooja.o)
                0x00000000000191d2                cfs_write
 .text.cfs_seek
                0x000000000001928d       0x82 obj_cooja/mtype782.a(cfs-cooja.o)
                0x000000000001928d                cfs_seek
 .text.cfs_remove
                0x000000000001930f       0x23 obj_cooja/mtype782.a(cfs-cooja.o)
                0x000000000001930f                cfs_remove
 .text.cfs_opendir
                0x0000000000019332        0xa obj_cooja/mtype782.a(cfs-cooja.o)
                0x0000000000019332                cfs_opendir
 .text.cfs_readdir
                0x000000000001933c        0xa obj_cooja/mtype782.a(cfs-cooja.o)
                0x000000000001933c                cfs_readdir
 .text.cfs_closedir
                0x0000000000019346        0x5 obj_cooja/mtype782.a(cfs-cooja.o)
                0x0000000000019346                cfs_closedir
 .text.doInterfaceActionsBeforeTick
                0x000000000001934b        0x5 obj_cooja/mtype782.a(cfs-cooja.o)
 .text.doInterfaceActionsAfterTick
                0x0000000000019350        0x5 obj_cooja/mtype782.a(cfs-cooja.o)
 *fill*         0x0000000000019355        0x3 90909090
 .text          0x0000000000019358        0x0 obj_cooja/mtype782.a(cooja-radio.o)
 .text.radio_set_channel
                0x0000000000019358        0xd obj_cooja/mtype782.a(cooja-radio.o)
                0x0000000000019358                radio_set_channel
 .text.radio_set_txpower
                0x0000000000019365       0x17 obj_cooja/mtype782.a(cooja-radio.o)
                0x0000000000019365                radio_set_txpower
 .text.radio_signal_strength_last
                0x000000000001937c        0xa obj_cooja/mtype782.a(cooja-radio.o)
                0x000000000001937c                radio_signal_strength_last
 .text.radio_signal_strength_current
                0x0000000000019386        0xa obj_cooja/mtype782.a(cooja-radio.o)
                0x0000000000019386                radio_signal_strength_current
 .text.radio_on
                0x0000000000019390       0x11 obj_cooja/mtype782.a(cooja-radio.o)
 .text.radio_off
                0x00000000000193a1       0x11 obj_cooja/mtype782.a(cooja-radio.o)
 .text.doInterfaceActionsBeforeTick
                0x00000000000193b2       0x4b obj_cooja/mtype782.a(cooja-radio.o)
 .text.doInterfaceActionsAfterTick
                0x00000000000193fd        0x5 obj_cooja/mtype782.a(cooja-radio.o)
 .text.radio_read
                0x0000000000019402       0x7e obj_cooja/mtype782.a(cooja-radio.o)
 .text.channel_clear
                0x0000000000019480       0x1b obj_cooja/mtype782.a(cooja-radio.o)
 .text.radio_send
                0x000000000001949b       0xd2 obj_cooja/mtype782.a(cooja-radio.o)
 .text.prepare_packet
                0x000000000001956d       0x1c obj_cooja/mtype782.a(cooja-radio.o)
 .text.transmit_packet
                0x0000000000019589       0x3a obj_cooja/mtype782.a(cooja-radio.o)
 .text.receiving_packet
                0x00000000000195c3        0xf obj_cooja/mtype782.a(cooja-radio.o)
 .text.pending_packet
                0x00000000000195d2       0x25 obj_cooja/mtype782.a(cooja-radio.o)
 .text.process_thread_cooja_radio_process
                0x00000000000195f7       0x93 obj_cooja/mtype782.a(cooja-radio.o)
 .text.init     0x000000000001968a       0x21 obj_cooja/mtype782.a(cooja-radio.o)
 *fill*         0x00000000000196ab        0x1 90909090
 .text          0x00000000000196ac        0x0 obj_cooja/mtype782.a(sensors.o)
 .text.get_sensor_index
                0x00000000000196ac       0x3b obj_cooja/mtype782.a(sensors.o)
 .text.sensors_first
                0x00000000000196e7        0xa obj_cooja/mtype782.a(sensors.o)
                0x00000000000196e7                sensors_first
 .text.sensors_next
                0x00000000000196f1       0x1d obj_cooja/mtype782.a(sensors.o)
                0x00000000000196f1                sensors_next
 .text.sensors_changed
                0x000000000001970e       0x2f obj_cooja/mtype782.a(sensors.o)
                0x000000000001970e                sensors_changed
 .text.sensors_find
                0x000000000001973d       0x84 obj_cooja/mtype782.a(sensors.o)
                0x000000000001973d                sensors_find
 .text.process_thread_sensors_process
                0x00000000000197c1      0x1a5 obj_cooja/mtype782.a(sensors.o)
 *fill*         0x0000000000019966        0x2 90909090
 .text          0x0000000000019968        0x0 obj_cooja/mtype782.a(rimestats.o)
 .text          0x0000000000019968        0x0 obj_cooja/mtype782.a(frame802154.o)
 .text.addr_len
                0x0000000000019968       0x31 obj_cooja/mtype782.a(frame802154.o)
 .text.field_len
                0x0000000000019999       0xc6 obj_cooja/mtype782.a(frame802154.o)
 .text.frame802154_hdrlen
                0x0000000000019a5f       0x48 obj_cooja/mtype782.a(frame802154.o)
                0x0000000000019a5f                frame802154_hdrlen
 .text.frame802154_create
                0x0000000000019aa7      0x1d3 obj_cooja/mtype782.a(frame802154.o)
                0x0000000000019aa7                frame802154_create
 .text.frame802154_parse
                0x0000000000019c7a      0x29b obj_cooja/mtype782.a(frame802154.o)
                0x0000000000019c7a                frame802154_parse
 *fill*         0x0000000000019f15        0x3 90909090
 .text          0x0000000000019f18        0x0 obj_cooja/mtype782.a(rpl.o)
 .text.rpl_purge_routes
                0x0000000000019f18       0xfa obj_cooja/mtype782.a(rpl.o)
                0x0000000000019f18                rpl_purge_routes
 .text.rpl_remove_routes
                0x000000000001a012       0x46 obj_cooja/mtype782.a(rpl.o)
                0x000000000001a012                rpl_remove_routes
 .text.rpl_remove_routes_by_nexthop
                0x000000000001a058       0x6c obj_cooja/mtype782.a(rpl.o)
                0x000000000001a058                rpl_remove_routes_by_nexthop
 .text.rpl_add_route
                0x000000000001a0c4       0x70 obj_cooja/mtype782.a(rpl.o)
                0x000000000001a0c4                rpl_add_route
 .text.rpl_link_neighbor_callback
                0x000000000001a134       0xeb obj_cooja/mtype782.a(rpl.o)
                0x000000000001a134                rpl_link_neighbor_callback
 .text.rpl_ipv6_neighbor_callback
                0x000000000001a21f       0x64 obj_cooja/mtype782.a(rpl.o)
                0x000000000001a21f                rpl_ipv6_neighbor_callback
 .text.rpl_init
                0x000000000001a283       0x73 obj_cooja/mtype782.a(rpl.o)
                0x000000000001a283                rpl_init
 *fill*         0x000000000001a2f6        0x2 90909090
 .text          0x000000000001a2f8        0x0 obj_cooja/mtype782.a(rpl-dag.o)
 .text.rpl_dag_init
                0x000000000001a2f8       0x1d obj_cooja/mtype782.a(rpl-dag.o)
                0x000000000001a2f8                rpl_dag_init
 .text.rpl_get_parent_rank
                0x000000000001a315       0x33 obj_cooja/mtype782.a(rpl-dag.o)
                0x000000000001a315                rpl_get_parent_rank
 .text.rpl_get_parent_link_metric
                0x000000000001a348       0x33 obj_cooja/mtype782.a(rpl-dag.o)
                0x000000000001a348                rpl_get_parent_link_metric
 .text.rpl_get_parent_ipaddr
                0x000000000001a37b       0x2a obj_cooja/mtype782.a(rpl-dag.o)
                0x000000000001a37b                rpl_get_parent_ipaddr
 .text.rpl_set_preferred_parent
                0x000000000001a3a5       0x4d obj_cooja/mtype782.a(rpl-dag.o)
 .text.lollipop_greater_than
                0x000000000001a3f2       0x65 obj_cooja/mtype782.a(rpl-dag.o)
 .text.remove_parents
                0x000000000001a457       0x61 obj_cooja/mtype782.a(rpl-dag.o)
 .text.nullify_parents
                0x000000000001a4b8       0x61 obj_cooja/mtype782.a(rpl-dag.o)
 .text.should_send_dao
                0x000000000001a519       0x5b obj_cooja/mtype782.a(rpl-dag.o)
 .text.acceptable_rank
                0x000000000001a574       0x98 obj_cooja/mtype782.a(rpl-dag.o)
 .text.get_dag  0x000000000001a60c       0x88 obj_cooja/mtype782.a(rpl-dag.o)
 .text.rpl_set_root
                0x000000000001a694      0x1d1 obj_cooja/mtype782.a(rpl-dag.o)
                0x000000000001a694                rpl_set_root
 .text.rpl_repair_root
                0x000000000001a865       0xd6 obj_cooja/mtype782.a(rpl-dag.o)
                0x000000000001a865                rpl_repair_root
 .text.set_ip_from_prefix
                0x000000000001a93b       0x6b obj_cooja/mtype782.a(rpl-dag.o)
 .text.check_prefix
                0x000000000001a9a6      0x103 obj_cooja/mtype782.a(rpl-dag.o)
 .text.rpl_set_prefix
                0x000000000001aaa9      0x10e obj_cooja/mtype782.a(rpl-dag.o)
                0x000000000001aaa9                rpl_set_prefix
 .text.rpl_set_default_route
                0x000000000001abb7       0xa5 obj_cooja/mtype782.a(rpl-dag.o)
                0x000000000001abb7                rpl_set_default_route
 .text.rpl_alloc_instance
                0x000000000001ac5c       0xd9 obj_cooja/mtype782.a(rpl-dag.o)
                0x000000000001ac5c                rpl_alloc_instance
 .text.rpl_alloc_dag
                0x000000000001ad35      0x112 obj_cooja/mtype782.a(rpl-dag.o)
                0x000000000001ad35                rpl_alloc_dag
 .text.rpl_set_default_instance
                0x000000000001ae47        0xd obj_cooja/mtype782.a(rpl-dag.o)
                0x000000000001ae47                rpl_set_default_instance
 .text.rpl_free_instance
                0x000000000001ae54       0x91 obj_cooja/mtype782.a(rpl-dag.o)
                0x000000000001ae54                rpl_free_instance
 .text.rpl_free_dag
                0x000000000001aee5       0x66 obj_cooja/mtype782.a(rpl-dag.o)
                0x000000000001aee5                rpl_free_dag
 .text.rpl_add_parent
                0x000000000001af4b       0x6a obj_cooja/mtype782.a(rpl-dag.o)
                0x000000000001af4b                rpl_add_parent
 .text.find_parent_any_dag_any_instance
                0x000000000001afb5       0x38 obj_cooja/mtype782.a(rpl-dag.o)
 .text.rpl_find_parent
                0x000000000001afed       0x31 obj_cooja/mtype782.a(rpl-dag.o)
                0x000000000001afed                rpl_find_parent
 .text.find_parent_dag
                0x000000000001b01e       0x29 obj_cooja/mtype782.a(rpl-dag.o)
 .text.rpl_find_parent_any_dag
                0x000000000001b047       0x3e obj_cooja/mtype782.a(rpl-dag.o)
                0x000000000001b047                rpl_find_parent_any_dag
 .text.rpl_select_dag
                0x000000000001b085      0x31b obj_cooja/mtype782.a(rpl-dag.o)
                0x000000000001b085                rpl_select_dag
 .text.rpl_select_parent
                0x000000000001b3a0       0x92 obj_cooja/mtype782.a(rpl-dag.o)
                0x000000000001b3a0                rpl_select_parent
 .text.rpl_remove_parent
                0x000000000001b432       0x27 obj_cooja/mtype782.a(rpl-dag.o)
                0x000000000001b432                rpl_remove_parent
 .text.rpl_nullify_parent
                0x000000000001b459       0x94 obj_cooja/mtype782.a(rpl-dag.o)
                0x000000000001b459                rpl_nullify_parent
 .text.rpl_move_parent
                0x000000000001b4ed       0xc8 obj_cooja/mtype782.a(rpl-dag.o)
                0x000000000001b4ed                rpl_move_parent
 .text.rpl_get_any_dag
                0x000000000001b5b5       0x62 obj_cooja/mtype782.a(rpl-dag.o)
                0x000000000001b5b5                rpl_get_any_dag
 .text.rpl_get_instance
                0x000000000001b617       0x63 obj_cooja/mtype782.a(rpl-dag.o)
                0x000000000001b617                rpl_get_instance
 .text.rpl_find_of
                0x000000000001b67a       0x47 obj_cooja/mtype782.a(rpl-dag.o)
                0x000000000001b67a                rpl_find_of
 .text.rpl_join_instance
                0x000000000001b6c1      0x2a6 obj_cooja/mtype782.a(rpl-dag.o)
                0x000000000001b6c1                rpl_join_instance
 .text.rpl_add_dag
                0x000000000001b967      0x280 obj_cooja/mtype782.a(rpl-dag.o)
                0x000000000001b967                rpl_add_dag
 .text.global_repair
                0x000000000001bbe7      0x105 obj_cooja/mtype782.a(rpl-dag.o)
 .text.rpl_local_repair
                0x000000000001bcec       0x8c obj_cooja/mtype782.a(rpl-dag.o)
                0x000000000001bcec                rpl_local_repair
 .text.rpl_recalculate_ranks
                0x000000000001bd78       0x78 obj_cooja/mtype782.a(rpl-dag.o)
                0x000000000001bd78                rpl_recalculate_ranks
 .text.rpl_process_parent_event
                0x000000000001bdf0       0x81 obj_cooja/mtype782.a(rpl-dag.o)
                0x000000000001bdf0                rpl_process_parent_event
 .text.rpl_process_dio
                0x000000000001be71      0x43a obj_cooja/mtype782.a(rpl-dag.o)
                0x000000000001be71                rpl_process_dio
 *fill*         0x000000000001c2ab        0x1 90909090
 .text          0x000000000001c2ac        0x0 obj_cooja/mtype782.a(rpl-icmp6.o)
 .text.packetbuf_addr
                0x000000000001c2ac       0x1d obj_cooja/mtype782.a(rpl-icmp6.o)
 .text.get_global_addr
                0x000000000001c2c9       0xb7 obj_cooja/mtype782.a(rpl-icmp6.o)
 .text.get32    0x000000000001c380       0x4f obj_cooja/mtype782.a(rpl-icmp6.o)
 .text.set32    0x000000000001c3cf       0x4a obj_cooja/mtype782.a(rpl-icmp6.o)
 .text.get16    0x000000000001c419       0x27 obj_cooja/mtype782.a(rpl-icmp6.o)
 .text.set16    0x000000000001c440       0x33 obj_cooja/mtype782.a(rpl-icmp6.o)
 .text.dis_input
                0x000000000001c473       0x65 obj_cooja/mtype782.a(rpl-icmp6.o)
 .text.dis_output
                0x000000000001c4d8       0xaf obj_cooja/mtype782.a(rpl-icmp6.o)
                0x000000000001c4d8                dis_output
 .text.dio_input
                0x000000000001c587      0x5d8 obj_cooja/mtype782.a(rpl-icmp6.o)
 .text.dio_output
                0x000000000001cb5f      0x53e obj_cooja/mtype782.a(rpl-icmp6.o)
                0x000000000001cb5f                dio_output
 .text.dao_input
                0x000000000001d09d      0x40b obj_cooja/mtype782.a(rpl-icmp6.o)
 .text.dao_output
                0x000000000001d4a8       0x5c obj_cooja/mtype782.a(rpl-icmp6.o)
                0x000000000001d4a8                dao_output
 .text.dao_output_target
                0x000000000001d504      0x243 obj_cooja/mtype782.a(rpl-icmp6.o)
                0x000000000001d504                dao_output_target
 .text.dao_ack_input
                0x000000000001d747        0x5 obj_cooja/mtype782.a(rpl-icmp6.o)
 .text.dao_ack_output
                0x000000000001d74c       0x73 obj_cooja/mtype782.a(rpl-icmp6.o)
                0x000000000001d74c                dao_ack_output
 .text.uip_rpl_input
                0x000000000001d7bf       0x63 obj_cooja/mtype782.a(rpl-icmp6.o)
                0x000000000001d7bf                uip_rpl_input
 *fill*         0x000000000001d822        0x2 90909090
 .text          0x000000000001d824        0x0 obj_cooja/mtype782.a(rpl-timers.o)
 .text.handle_periodic_timer
                0x000000000001d824       0x59 obj_cooja/mtype782.a(rpl-timers.o)
 .text.new_dio_interval
                0x000000000001d87d       0xda obj_cooja/mtype782.a(rpl-timers.o)
 .text.handle_dio_timer
                0x000000000001d957      0x11f obj_cooja/mtype782.a(rpl-timers.o)
 .text.rpl_reset_periodic_timer
                0x000000000001da76       0x5b obj_cooja/mtype782.a(rpl-timers.o)
                0x000000000001da76                rpl_reset_periodic_timer
 .text.rpl_reset_dio_timer
                0x000000000001dad1       0x48 obj_cooja/mtype782.a(rpl-timers.o)
                0x000000000001dad1                rpl_reset_dio_timer
 .text.handle_dao_timer
                0x000000000001db19       0x92 obj_cooja/mtype782.a(rpl-timers.o)
 .text.rpl_schedule_dao
                0x000000000001dbab       0x89 obj_cooja/mtype782.a(rpl-timers.o)
                0x000000000001dbab                rpl_schedule_dao
 .text          0x000000000001dc34        0x0 obj_cooja/mtype782.a(rpl-mrhof.o)
 .text.calculate_path_metric
                0x000000000001dc34       0x22 obj_cooja/mtype782.a(rpl-mrhof.o)
 .text.reset    0x000000000001dc56        0x5 obj_cooja/mtype782.a(rpl-mrhof.o)
 .text.neighbor_link_callback
                0x000000000001dc5b       0x6c obj_cooja/mtype782.a(rpl-mrhof.o)
 .text.calculate_rank
                0x000000000001dcc7       0x75 obj_cooja/mtype782.a(rpl-mrhof.o)
 .text.best_dag
                0x000000000001dd3c       0x75 obj_cooja/mtype782.a(rpl-mrhof.o)
 .text.best_parent
                0x000000000001ddb1       0x92 obj_cooja/mtype782.a(rpl-mrhof.o)
 .text.update_metric_container
                0x000000000001de43        0xb obj_cooja/mtype782.a(rpl-mrhof.o)
 *fill*         0x000000000001de4e        0x2 90909090
 .text          0x000000000001de50        0x0 obj_cooja/mtype782.a(rpl-ext-header.)
 .text.rpl_verify_header
                0x000000000001de50      0x1fa obj_cooja/mtype782.a(rpl-ext-header.)
                0x000000000001de50                rpl_verify_header
 .text.set_rpl_opt
                0x000000000001e04a      0x18b obj_cooja/mtype782.a(rpl-ext-header.)
 .text.rpl_update_header_empty
                0x000000000001e1d5      0x22f obj_cooja/mtype782.a(rpl-ext-header.)
                0x000000000001e1d5                rpl_update_header_empty
 .text.rpl_update_header_final
                0x000000000001e404      0x174 obj_cooja/mtype782.a(rpl-ext-header.)
                0x000000000001e404                rpl_update_header_final
 .text.rpl_remove_header
                0x000000000001e578      0x114 obj_cooja/mtype782.a(rpl-ext-header.)
                0x000000000001e578                rpl_remove_header
 .text.rpl_invert_header
                0x000000000001e68c      0x14c obj_cooja/mtype782.a(rpl-ext-header.)
                0x000000000001e68c                rpl_invert_header
 .text.rpl_insert_header
                0x000000000001e7d8       0x39 obj_cooja/mtype782.a(rpl-ext-header.)
                0x000000000001e7d8                rpl_insert_header
 *fill*         0x000000000001e811        0x3 90909090
 .text          0x000000000001e814        0x0 obj_cooja/mtype782.a(timer.o)
 .text.timer_set
                0x000000000001e814       0x1b obj_cooja/mtype782.a(timer.o)
                0x000000000001e814                timer_set
 .text.timer_reset
                0x000000000001e82f       0x17 obj_cooja/mtype782.a(timer.o)
                0x000000000001e82f                timer_reset
 .text.timer_restart
                0x000000000001e846       0x12 obj_cooja/mtype782.a(timer.o)
                0x000000000001e846                timer_restart
 .text.timer_expired
                0x000000000001e858       0x29 obj_cooja/mtype782.a(timer.o)
                0x000000000001e858                timer_expired
 .text.timer_remaining
                0x000000000001e881       0x26 obj_cooja/mtype782.a(timer.o)
                0x000000000001e881                timer_remaining
 *fill*         0x000000000001e8a7        0x1 90909090
 .text          0x000000000001e8a8        0x0 obj_cooja/mtype782.a(rtimer.o)
 .text.rtimer_init
                0x000000000001e8a8        0xd obj_cooja/mtype782.a(rtimer.o)
                0x000000000001e8a8                rtimer_init
 .text.rtimer_set
                0x000000000001e8b5       0x57 obj_cooja/mtype782.a(rtimer.o)
                0x000000000001e8b5                rtimer_set
 .text.rtimer_run_next
                0x000000000001e90c       0x59 obj_cooja/mtype782.a(rtimer.o)
                0x000000000001e90c                rtimer_run_next
 *fill*         0x000000000001e965        0x3 90909090
 .text          0x000000000001e968        0x0 obj_cooja/mtype782.a(stimer.o)
 .text.stimer_set
                0x000000000001e968       0x1b obj_cooja/mtype782.a(stimer.o)
                0x000000000001e968                stimer_set
 .text.stimer_reset
                0x000000000001e983       0x17 obj_cooja/mtype782.a(stimer.o)
                0x000000000001e983                stimer_reset
 .text.stimer_restart
                0x000000000001e99a       0x12 obj_cooja/mtype782.a(stimer.o)
                0x000000000001e99a                stimer_restart
 .text.stimer_expired
                0x000000000001e9ac       0x27 obj_cooja/mtype782.a(stimer.o)
                0x000000000001e9ac                stimer_expired
 .text.stimer_remaining
                0x000000000001e9d3       0x26 obj_cooja/mtype782.a(stimer.o)
                0x000000000001e9d3                stimer_remaining
 .text.stimer_elapsed
                0x000000000001e9f9       0x14 obj_cooja/mtype782.a(stimer.o)
                0x000000000001e9f9                stimer_elapsed
 *fill*         0x000000000001ea0d        0x3 90909090
 .text          0x000000000001ea10        0x0 obj_cooja/mtype782.a(nbr-table.o)
 .text.key_from_index
                0x000000000001ea10       0x26 obj_cooja/mtype782.a(nbr-table.o)
 .text.item_from_index
                0x000000000001ea36       0x2a obj_cooja/mtype782.a(nbr-table.o)
 .text.index_from_key
                0x000000000001ea60       0x29 obj_cooja/mtype782.a(nbr-table.o)
 .text.index_from_item
                0x000000000001ea89       0x3b obj_cooja/mtype782.a(nbr-table.o)
 .text.item_from_key
                0x000000000001eac4       0x22 obj_cooja/mtype782.a(nbr-table.o)
 .text.key_from_item
                0x000000000001eae6       0x22 obj_cooja/mtype782.a(nbr-table.o)
 .text.index_from_lladdr
                0x000000000001eb08       0x6c obj_cooja/mtype782.a(nbr-table.o)
 .text.nbr_get_bit
                0x000000000001eb74       0x51 obj_cooja/mtype782.a(nbr-table.o)
 .text.nbr_set_bit
                0x000000000001ebc5       0x96 obj_cooja/mtype782.a(nbr-table.o)
 .text.nbr_table_allocate
                0x000000000001ec5b      0x19b obj_cooja/mtype782.a(nbr-table.o)
 .text.nbr_table_register
                0x000000000001edf6       0x47 obj_cooja/mtype782.a(nbr-table.o)
                0x000000000001edf6                nbr_table_register
 .text.nbr_table_head
                0x000000000001ee3d       0x5c obj_cooja/mtype782.a(nbr-table.o)
                0x000000000001ee3d                nbr_table_head
 .text.nbr_table_next
                0x000000000001ee99       0x67 obj_cooja/mtype782.a(nbr-table.o)
                0x000000000001ee99                nbr_table_next
 .text.nbr_table_add_lladdr
                0x000000000001ef00       0xd1 obj_cooja/mtype782.a(nbr-table.o)
                0x000000000001ef00                nbr_table_add_lladdr
 .text.nbr_table_get_from_lladdr
                0x000000000001efd1       0x4d obj_cooja/mtype782.a(nbr-table.o)
                0x000000000001efd1                nbr_table_get_from_lladdr
 .text.nbr_table_remove
                0x000000000001f01e       0x52 obj_cooja/mtype782.a(nbr-table.o)
                0x000000000001f01e                nbr_table_remove
 .text.nbr_table_lock
                0x000000000001f070       0x2a obj_cooja/mtype782.a(nbr-table.o)
                0x000000000001f070                nbr_table_lock
 .text.nbr_table_unlock
                0x000000000001f09a       0x2a obj_cooja/mtype782.a(nbr-table.o)
                0x000000000001f09a                nbr_table_unlock
 .text.nbr_table_get_lladdr
                0x000000000001f0c4       0x30 obj_cooja/mtype782.a(nbr-table.o)
                0x000000000001f0c4                nbr_table_get_lladdr
 .text          0x000000000001f0f4        0x0 obj_cooja/mtype782.a(uip-icmp6.o)
 .text.uip_icmp6_echo_request_input
                0x000000000001f0f4      0x2b5 obj_cooja/mtype782.a(uip-icmp6.o)
                0x000000000001f0f4                uip_icmp6_echo_request_input
 .text.uip_icmp6_error_output
                0x000000000001f3a9      0x32b obj_cooja/mtype782.a(uip-icmp6.o)
                0x000000000001f3a9                uip_icmp6_error_output
 .text.uip_icmp6_send
                0x000000000001f6d4      0x10a obj_cooja/mtype782.a(uip-icmp6.o)
                0x000000000001f6d4                uip_icmp6_send
 *fill*         0x000000000001f7de        0x2 90909090
 .text          0x000000000001f7e0       0x38 /usr/lib/gcc/i686-linux-gnu/4.6/crtendS.o
 .text          0x000000000001f818        0x0 /usr/lib/gcc/i686-linux-gnu/4.6/../../../i386-linux-gnu/crtn.o
 *(.gnu.warning)

.fini           0x000000000001f818       0x1a
 *(.fini)
 .fini          0x000000000001f818       0x10 /usr/lib/gcc/i686-linux-gnu/4.6/../../../i386-linux-gnu/crti.o
                0x000000000001f818                _fini
 .fini          0x000000000001f828        0x5 /usr/lib/gcc/i686-linux-gnu/4.6/crtbeginS.o
 .fini          0x000000000001f82d        0x5 /usr/lib/gcc/i686-linux-gnu/4.6/../../../i386-linux-gnu/crtn.o
                0x000000000001f832                PROVIDE (__etext, .)
                0x000000000001f832                PROVIDE (_etext, .)
                0x000000000001f832                PROVIDE (etext, .)

.rodata         0x000000000001f840      0x534
 *(.rodata .rodata.* .gnu.linkonce.r.*)
 .rodata        0x000000000001f840       0x30 jammer.co
                0x000000000001f860                autostart_processes
 .rodata        0x000000000001f870      0x123 obj_cooja/mtype782.o
 .rodata        0x000000000001f993        0x8 obj_cooja/mtype782.a(rimeaddr.o)
                0x000000000001f993                rimeaddr_null
 *fill*         0x000000000001f99b        0x5 00
 .rodata        0x000000000001f9a0       0x40 obj_cooja/mtype782.a(nullrdc.o)
                0x000000000001f9c0                nullrdc_driver
 .rodata        0x000000000001f9e0        0xc obj_cooja/mtype782.a(framer-802154.o)
                0x000000000001f9e4                framer_802154
 .rodata        0x000000000001f9ec       0x24 obj_cooja/mtype782.a(csma.o)
                0x000000000001f9f4                csma_driver
 .rodata        0x000000000001fa10        0xe obj_cooja/mtype782.a(serial-line.o)
 .rodata        0x000000000001fa1e        0xc obj_cooja/mtype782.a(etimer.o)
 .rodata        0x000000000001fa2a        0xf obj_cooja/mtype782.a(ctimer.o)
 *fill*         0x000000000001fa39        0x3 00
 .rodata        0x000000000001fa3c       0x2c obj_cooja/mtype782.a(sicslowpan.o)
                0x000000000001fa3c                unc_llconf
                0x000000000001fa40                unc_ctxconf
                0x000000000001fa44                unc_mxconf
                0x000000000001fa48                llprefix
                0x000000000001fa5c                sicslowpan_driver
 .rodata        0x000000000001fa68       0x13 obj_cooja/mtype782.a(simple-udp.o)
 .rodata        0x000000000001fa7b       0x29 obj_cooja/mtype782.a(tcpip.o)
 .rodata        0x000000000001faa4      0x1ac obj_cooja/mtype782.a(uip6.o)
 .rodata        0x000000000001fc50        0x8 obj_cooja/mtype782.a(beep.o)
                0x000000000001fc50                beep_interface
 .rodata        0x000000000001fc58       0x20 obj_cooja/mtype782.a(button-sensor.o)
                0x000000000001fc58                button_interface
                0x000000000001fc68                button_sensor
 .rodata        0x000000000001fc78        0x8 obj_cooja/mtype782.a(leds-arch.o)
                0x000000000001fc78                leds_interface
 .rodata        0x000000000001fc80        0x8 obj_cooja/mtype782.a(moteid.o)
                0x000000000001fc80                moteid_interface
 .rodata        0x000000000001fc88       0x1c obj_cooja/mtype782.a(pir-sensor.o)
                0x000000000001fc88                pir_interface
                0x000000000001fc94                pir_sensor
 .rodata        0x000000000001fca4        0xe obj_cooja/mtype782.a(rs232.o)
                0x000000000001fca4                rs232_interface
 *fill*         0x000000000001fcb2        0x2 00
 .rodata        0x000000000001fcb4       0x24 obj_cooja/mtype782.a(vib-sensor.o)
                0x000000000001fcb4                vib_interface
                0x000000000001fcc8                vib_sensor
 .rodata        0x000000000001fcd8        0x8 obj_cooja/mtype782.a(clock.o)
                0x000000000001fcd8                clock_interface
 .rodata        0x000000000001fce0        0x8 obj_cooja/mtype782.a(log.o)
                0x000000000001fce0                simlog_interface
 .rodata        0x000000000001fce8       0x2f obj_cooja/mtype782.a(cfs-cooja.o)
                0x000000000001fce8                cfs_interface
 *fill*         0x000000000001fd17        0x9 00
 .rodata        0x000000000001fd20       0x48 obj_cooja/mtype782.a(cooja-radio.o)
                0x000000000001fd20                radio_interface
                0x000000000001fd40                cooja_radio_driver
 .rodata        0x000000000001fd68        0x8 obj_cooja/mtype782.a(sensors.o)
 .rodata        0x000000000001fd70        0x4 obj_cooja/mtype782.a(rpl-dag.o)

.rodata1
 *(.rodata1)

.eh_frame_hdr   0x000000000001fd74     0x105c
 *(.eh_frame_hdr)
 .eh_frame_hdr  0x000000000001fd74     0x105c /usr/lib/gcc/i686-linux-gnu/4.6/../../../i386-linux-gnu/crti.o

.eh_frame       0x0000000000020dd0     0x4304
 *(.eh_frame)
 .eh_frame      0x0000000000020dd0       0x3c /usr/lib/gcc/i686-linux-gnu/4.6/../../../i386-linux-gnu/crti.o
                                         0x40 (size before relaxing)
 .eh_frame      0x0000000000020e0c       0x40 jammer.co
                                         0x58 (size before relaxing)
 .eh_frame      0x0000000000020e4c      0x148 obj_cooja/mtype782.o
                                        0x160 (size before relaxing)
 .eh_frame      0x0000000000020f94       0x60 obj_cooja/mtype782.a(rimeaddr.o)
                                         0x78 (size before relaxing)
 .eh_frame      0x0000000000020ff4      0x194 obj_cooja/mtype782.a(nullrdc.o)
                                        0x1ac (size before relaxing)
 .eh_frame      0x0000000000021188       0x20 obj_cooja/mtype782.a(mac.o)
                                         0x38 (size before relaxing)
 .eh_frame      0x00000000000211a8       0xec obj_cooja/mtype782.a(framer-802154.o)
                                        0x104 (size before relaxing)
 .eh_frame      0x0000000000021294      0x1c8 obj_cooja/mtype782.a(csma.o)
                                        0x1e0 (size before relaxing)
 .eh_frame      0x000000000002145c      0x1c8 obj_cooja/mtype782.a(process.o)
                                        0x1e0 (size before relaxing)
 .eh_frame      0x0000000000021624       0x40 obj_cooja/mtype782.a(autostart.o)
                                         0x58 (size before relaxing)
 .eh_frame      0x0000000000021664       0x60 obj_cooja/mtype782.a(serial-line.o)
                                         0x78 (size before relaxing)
 .eh_frame      0x00000000000216c4       0x80 obj_cooja/mtype782.a(memb.o)
                                         0x98 (size before relaxing)
 .eh_frame      0x0000000000021744      0x180 obj_cooja/mtype782.a(list.o)
                                        0x198 (size before relaxing)
 .eh_frame      0x00000000000218c4      0x1c0 obj_cooja/mtype782.a(etimer.o)
                                        0x1d8 (size before relaxing)
 .eh_frame      0x0000000000021a84       0xe0 obj_cooja/mtype782.a(ctimer.o)
                                         0xf8 (size before relaxing)
 .eh_frame      0x0000000000021b64       0x40 obj_cooja/mtype782.a(random.o)
                                         0x58 (size before relaxing)
 .eh_frame      0x0000000000021ba4       0xa0 obj_cooja/mtype782.a(ringbuf.o)
                                         0xb8 (size before relaxing)
 .eh_frame      0x0000000000021c44       0x20 obj_cooja/mtype782.a(netstack.o)
                                         0x38 (size before relaxing)
 .eh_frame      0x0000000000021c64      0x2b4 obj_cooja/mtype782.a(packetbuf.o)
                                        0x2cc (size before relaxing)
 .eh_frame      0x0000000000021f18      0x168 obj_cooja/mtype782.a(queuebuf.o)
                                        0x180 (size before relaxing)
 .eh_frame      0x0000000000022080      0x27c obj_cooja/mtype782.a(sicslowpan.o)
                                        0x294 (size before relaxing)
 .eh_frame      0x00000000000222fc       0xd0 obj_cooja/mtype782.a(simple-udp.o)
                                         0xe8 (size before relaxing)
 .eh_frame      0x00000000000223cc      0x274 obj_cooja/mtype782.a(tcpip.o)
                                        0x28c (size before relaxing)
 .eh_frame      0x0000000000022640      0x280 obj_cooja/mtype782.a(uip-ds6-route.o)
                                        0x298 (size before relaxing)
 .eh_frame      0x00000000000228c0      0x1c0 obj_cooja/mtype782.a(uip-ds6-nbr.o)
                                        0x1d8 (size before relaxing)
 .eh_frame      0x0000000000022a80      0x2d4 obj_cooja/mtype782.a(uip-ds6.o)
                                        0x2ec (size before relaxing)
 .eh_frame      0x0000000000022d54       0x98 obj_cooja/mtype782.a(uip-nd6.o)
                                         0xb0 (size before relaxing)
 .eh_frame      0x0000000000022dec       0xe0 obj_cooja/mtype782.a(uip-packetqueue)
                                         0xf8 (size before relaxing)
 .eh_frame      0x0000000000022ecc       0x40 obj_cooja/mtype782.a(uip-udp-packet.)
                                         0x58 (size before relaxing)
 .eh_frame      0x0000000000022f0c      0x280 obj_cooja/mtype782.a(uip6.o)
                                        0x298 (size before relaxing)
 .eh_frame      0x000000000002318c       0x40 obj_cooja/mtype782.a(simEnvChange.o)
                                         0x58 (size before relaxing)
 .eh_frame      0x00000000000231cc       0xc0 obj_cooja/mtype782.a(cooja_mt.o)
                                         0xd8 (size before relaxing)
 .eh_frame      0x000000000002328c      0x128 obj_cooja/mtype782.a(cooja_mtarch.o)
                                        0x140 (size before relaxing)
 .eh_frame      0x00000000000233b4       0xc0 obj_cooja/mtype782.a(rtimer-arch.o)
                                         0xd8 (size before relaxing)
 .eh_frame      0x0000000000023474       0xa0 obj_cooja/mtype782.a(watchdog.o)
                                         0xb8 (size before relaxing)
 .eh_frame      0x0000000000023514      0x160 obj_cooja/mtype782.a(beep.o)
                                        0x178 (size before relaxing)
 .eh_frame      0x0000000000023674       0xa0 obj_cooja/mtype782.a(button-sensor.o)
                                         0xb8 (size before relaxing)
 .eh_frame      0x0000000000023714       0xa0 obj_cooja/mtype782.a(leds-arch.o)
                                         0xb8 (size before relaxing)
 .eh_frame      0x00000000000237b4       0x40 obj_cooja/mtype782.a(moteid.o)
                                         0x58 (size before relaxing)
 .eh_frame      0x00000000000237f4       0xa0 obj_cooja/mtype782.a(pir-sensor.o)
                                         0xb8 (size before relaxing)
 .eh_frame      0x0000000000023894      0x100 obj_cooja/mtype782.a(rs232.o)
                                        0x118 (size before relaxing)
 .eh_frame      0x0000000000023994       0xa0 obj_cooja/mtype782.a(vib-sensor.o)
                                         0xb8 (size before relaxing)
 .eh_frame      0x0000000000023a34       0xc0 obj_cooja/mtype782.a(clock.o)
                                         0xd8 (size before relaxing)
 .eh_frame      0x0000000000023af4      0x128 obj_cooja/mtype782.a(log.o)
                                        0x140 (size before relaxing)
 .eh_frame      0x0000000000023c1c      0x168 obj_cooja/mtype782.a(cfs-cooja.o)
                                        0x180 (size before relaxing)
 .eh_frame      0x0000000000023d84      0x220 obj_cooja/mtype782.a(cooja-radio.o)
                                        0x238 (size before relaxing)
 .eh_frame      0x0000000000023fa4       0xc4 obj_cooja/mtype782.a(sensors.o)
                                         0xdc (size before relaxing)
 .eh_frame      0x0000000000024068       0xa0 obj_cooja/mtype782.a(frame802154.o)
                                         0xb8 (size before relaxing)
 .eh_frame      0x0000000000024108       0xe0 obj_cooja/mtype782.a(rpl.o)
                                         0xf8 (size before relaxing)
 .eh_frame      0x00000000000241e8      0x554 obj_cooja/mtype782.a(rpl-dag.o)
                                        0x56c (size before relaxing)
 .eh_frame      0x000000000002473c      0x224 obj_cooja/mtype782.a(rpl-icmp6.o)
                                        0x23c (size before relaxing)
 .eh_frame      0x0000000000024960       0xe8 obj_cooja/mtype782.a(rpl-timers.o)
                                        0x100 (size before relaxing)
 .eh_frame      0x0000000000024a48       0xe4 obj_cooja/mtype782.a(rpl-mrhof.o)
                                         0xfc (size before relaxing)
 .eh_frame      0x0000000000024b2c       0xec obj_cooja/mtype782.a(rpl-ext-header.)
                                        0x104 (size before relaxing)
 .eh_frame      0x0000000000024c18       0xa4 obj_cooja/mtype782.a(timer.o)
                                         0xbc (size before relaxing)
 .eh_frame      0x0000000000024cbc       0x60 obj_cooja/mtype782.a(rtimer.o)
                                         0x78 (size before relaxing)
 .eh_frame      0x0000000000024d1c       0xc4 obj_cooja/mtype782.a(stimer.o)
                                         0xdc (size before relaxing)
 .eh_frame      0x0000000000024de0      0x270 obj_cooja/mtype782.a(nbr-table.o)
                                        0x288 (size before relaxing)
 .eh_frame      0x0000000000025050       0x80 obj_cooja/mtype782.a(uip-icmp6.o)
                                         0x98 (size before relaxing)
 .eh_frame      0x00000000000250d0        0x4 /usr/lib/gcc/i686-linux-gnu/4.6/crtendS.o

.gcc_except_table
 *(.gcc_except_table .gcc_except_table.*)

.exception_ranges
 *(.exception_ranges .exception_ranges*)
                0x00000000000250d4                . = (ALIGN (0x1000) - ((0x1000 - .) & 0xfff))
                0x0000000000026f0c                . = DATA_SEGMENT_ALIGN (0x1000, 0x1000)

.eh_frame
 *(.eh_frame)

.gcc_except_table
 *(.gcc_except_table .gcc_except_table.*)

.exception_ranges
 *(.exception_ranges .exception_ranges*)

.tdata
 *(.tdata .tdata.* .gnu.linkonce.td.*)

.tbss
 *(.tbss .tbss.* .gnu.linkonce.tb.*)
 *(.tcommon)

.preinit_array
 *(.preinit_array)

.init_array
 *(SORT(.init_array.*) SORT(.ctors.*))
 *(.init_array)
 *(EXCLUDE_FILE(*crtend?.o *crtend.o *crtbegin?.o *crtbegin.o) .ctors)

.fini_array
 *(SORT(.fini_array.*) SORT(.dtors.*))
 *(.fini_array)
 *(EXCLUDE_FILE(*crtend?.o *crtend.o *crtbegin?.o *crtbegin.o) .dtors)

.ctors          0x0000000000026f0c        0x8
 *crtbegin.o(.ctors)
 *crtbegin?.o(.ctors)
 .ctors         0x0000000000026f0c        0x4 /usr/lib/gcc/i686-linux-gnu/4.6/crtbeginS.o
 *(EXCLUDE_FILE(*crtend?.o *crtend.o) .ctors)
 *(SORT(.ctors.*))
 *(.ctors)
 .ctors         0x0000000000026f10        0x4 /usr/lib/gcc/i686-linux-gnu/4.6/crtendS.o

.dtors          0x0000000000026f14        0x8
 *crtbegin.o(.dtors)
 *crtbegin?.o(.dtors)
 .dtors         0x0000000000026f14        0x4 /usr/lib/gcc/i686-linux-gnu/4.6/crtbeginS.o
 *(EXCLUDE_FILE(*crtend?.o *crtend.o) .dtors)
 *(SORT(.dtors.*))
 *(.dtors)
 .dtors         0x0000000000026f18        0x4 /usr/lib/gcc/i686-linux-gnu/4.6/crtendS.o
                0x0000000000026f18                __DTOR_END__

.jcr            0x0000000000026f1c        0x4
 *(.jcr)
 .jcr           0x0000000000026f1c        0x0 /usr/lib/gcc/i686-linux-gnu/4.6/crtbeginS.o
 .jcr           0x0000000000026f1c        0x4 /usr/lib/gcc/i686-linux-gnu/4.6/crtendS.o

.data.rel.ro
 *(.data.rel.ro.local* .gnu.linkonce.d.rel.ro.local.*)
 *(.data.rel.ro* .gnu.linkonce.d.rel.ro.*)

.dynamic        0x0000000000026f20       0xc8
 *(.dynamic)
 .dynamic       0x0000000000026f20       0xc8 /usr/lib/gcc/i686-linux-gnu/4.6/../../../i386-linux-gnu/crti.o
                0x0000000000026f20                _DYNAMIC

.got            0x0000000000026fe8        0xc
 *(.got)
 .got           0x0000000000026fe8        0xc /usr/lib/gcc/i686-linux-gnu/4.6/../../../i386-linux-gnu/crti.o
 *(.igot)
                0x0000000000026ff4                . = DATA_SEGMENT_RELRO_END (., 0xc)

.got.plt        0x0000000000026ff4       0x14
 *(.got.plt)
 .got.plt       0x0000000000026ff4       0x14 /usr/lib/gcc/i686-linux-gnu/4.6/../../../i386-linux-gnu/crti.o
                0x0000000000026ff4                _GLOBAL_OFFSET_TABLE_
 *(.igot.plt)

.data           0x0000000000027020      0x1d0
 *(.data .data.* .gnu.linkonce.d.*)
 .data          0x0000000000027020        0x0 /usr/lib/gcc/i686-linux-gnu/4.6/../../../i386-linux-gnu/crti.o
 .data          0x0000000000027020        0x0 /usr/lib/gcc/i686-linux-gnu/4.6/crtbeginS.o
 .data.rel      0x0000000000027020        0x4 /usr/lib/gcc/i686-linux-gnu/4.6/crtbeginS.o
                0x0000000000027020                __dso_handle
 .data          0x0000000000027024       0x10 jammer.co
                0x0000000000027024                broadcast_example_process
 *fill*         0x0000000000027034        0xc 00
 .data          0x0000000000027040       0x40 obj_cooja/mtype782.o
                0x0000000000027040                simInterfaces
                0x0000000000027070                sensors
 .data          0x0000000000027080        0x0 obj_cooja/mtype782.a(rimeaddr.o)
 .data          0x0000000000027080        0x0 obj_cooja/mtype782.a(nullrdc.o)
 .data          0x0000000000027080        0x0 obj_cooja/mtype782.a(mac.o)
 .data          0x0000000000027080        0x0 obj_cooja/mtype782.a(framer-802154.o)
 .data          0x0000000000027080       0x28 obj_cooja/mtype782.a(csma.o)
 .data          0x00000000000270a8        0x0 obj_cooja/mtype782.a(process.o)
 .data          0x00000000000270a8        0x0 obj_cooja/mtype782.a(autostart.o)
 .data          0x00000000000270a8       0x10 obj_cooja/mtype782.a(serial-line.o)
                0x00000000000270a8                serial_line_process
 .data          0x00000000000270b8        0x0 obj_cooja/mtype782.a(memb.o)
 .data          0x00000000000270b8        0x0 obj_cooja/mtype782.a(list.o)
 .data          0x00000000000270b8       0x10 obj_cooja/mtype782.a(etimer.o)
                0x00000000000270b8                etimer_process
 .data          0x00000000000270c8       0x14 obj_cooja/mtype782.a(ctimer.o)
                0x00000000000270cc                ctimer_process
 .data          0x00000000000270dc        0x0 obj_cooja/mtype782.a(random.o)
 .data          0x00000000000270dc        0x0 obj_cooja/mtype782.a(ringbuf.o)
 .data          0x00000000000270dc        0x0 obj_cooja/mtype782.a(netstack.o)
 .data          0x00000000000270dc        0x4 obj_cooja/mtype782.a(packetbuf.o)
 .data          0x00000000000270e0       0x24 obj_cooja/mtype782.a(queuebuf.o)
 .data          0x0000000000027104        0x0 obj_cooja/mtype782.a(sicslowpan.o)
 .data          0x0000000000027104       0x10 obj_cooja/mtype782.a(simple-udp.o)
                0x0000000000027104                simple_udp_process
 .data          0x0000000000027114       0x10 obj_cooja/mtype782.a(tcpip.o)
                0x0000000000027114                tcpip_process
 .data          0x0000000000027124       0x34 obj_cooja/mtype782.a(uip-ds6-route.o)
 .data          0x0000000000027158       0x14 obj_cooja/mtype782.a(uip-ds6-nbr.o)
                0x0000000000027168                ds6_neighbors
 .data          0x000000000002716c        0x0 obj_cooja/mtype782.a(uip-ds6.o)
 .data          0x000000000002716c        0x0 obj_cooja/mtype782.a(uip-nd6.o)
 .data          0x000000000002716c        0xc obj_cooja/mtype782.a(uip-packetqueue)
 .data          0x0000000000027178        0x0 obj_cooja/mtype782.a(uip-udp-packet.)
 .data          0x0000000000027178        0x0 obj_cooja/mtype782.a(uip6.o)
 .data          0x0000000000027178        0x0 obj_cooja/mtype782.a(simEnvChange.o)
 .data          0x0000000000027178        0x0 obj_cooja/mtype782.a(cooja_mt.o)
 .data          0x0000000000027178        0x0 obj_cooja/mtype782.a(cooja_mtarch.o)
 .data          0x0000000000027178        0x0 obj_cooja/mtype782.a(rtimer-arch.o)
 .data          0x0000000000027178        0x0 obj_cooja/mtype782.a(watchdog.o)
 .data          0x0000000000027178        0x0 obj_cooja/mtype782.a(beep.o)
 .data          0x0000000000027178        0x0 obj_cooja/mtype782.a(button-sensor.o)
 .data          0x0000000000027178        0x0 obj_cooja/mtype782.a(leds-arch.o)
 .data          0x0000000000027178        0x0 obj_cooja/mtype782.a(moteid.o)
 .data          0x0000000000027178        0x0 obj_cooja/mtype782.a(pir-sensor.o)
 .data          0x0000000000027178        0x0 obj_cooja/mtype782.a(rs232.o)
 .data          0x0000000000027178        0x0 obj_cooja/mtype782.a(vib-sensor.o)
 .data          0x0000000000027178        0x0 obj_cooja/mtype782.a(clock.o)
 .data          0x0000000000027178        0x0 obj_cooja/mtype782.a(log.o)
 .data          0x0000000000027178        0x0 obj_cooja/mtype782.a(cfs-cooja.o)
 .data          0x0000000000027178       0x24 obj_cooja/mtype782.a(cooja-radio.o)
                0x0000000000027178                simRadioHWOn
                0x000000000002717c                simSignalStrength
                0x0000000000027180                simLastSignalStrength
                0x0000000000027184                simPower
                0x0000000000027188                simRadioChannel
                0x000000000002718c                cooja_radio_process
 .data          0x000000000002719c       0x10 obj_cooja/mtype782.a(sensors.o)
                0x000000000002719c                sensors_process
 .data          0x00000000000271ac        0x0 obj_cooja/mtype782.a(rimestats.o)
 .data          0x00000000000271ac        0x0 obj_cooja/mtype782.a(frame802154.o)
 .data          0x00000000000271ac        0x0 obj_cooja/mtype782.a(rpl.o)
 .data          0x00000000000271ac       0x14 obj_cooja/mtype782.a(rpl-dag.o)
 .data          0x00000000000271c0        0x1 obj_cooja/mtype782.a(rpl-icmp6.o)
 *fill*         0x00000000000271c1        0x3 00
 .data          0x00000000000271c4        0x0 obj_cooja/mtype782.a(rpl-timers.o)
 .data          0x00000000000271c4       0x1c obj_cooja/mtype782.a(rpl-mrhof.o)
                0x00000000000271c4                rpl_mrhof
 .data          0x00000000000271e0        0x0 obj_cooja/mtype782.a(rpl-ext-header.)
 .data          0x00000000000271e0        0x0 obj_cooja/mtype782.a(timer.o)
 .data          0x00000000000271e0        0x0 obj_cooja/mtype782.a(rtimer.o)
 .data          0x00000000000271e0        0x0 obj_cooja/mtype782.a(stimer.o)
 .data          0x00000000000271e0       0x10 obj_cooja/mtype782.a(nbr-table.o)
 .data          0x00000000000271f0        0x0 obj_cooja/mtype782.a(uip-icmp6.o)
 .data          0x00000000000271f0        0x0 /usr/lib/gcc/i686-linux-gnu/4.6/crtendS.o
 .data          0x00000000000271f0        0x0 /usr/lib/gcc/i686-linux-gnu/4.6/../../../i386-linux-gnu/crtn.o

.data1
 *(.data1)
                0x00000000000271f0                _edata = .
                0x00000000000271f0                PROVIDE (edata, .)
                0x00000000000271f0                __bss_start = .

.bss            0x0000000000027200     0xeeb4
 *(.dynbss)
 .dynbss        0x0000000000000000        0x0 /usr/lib/gcc/i686-linux-gnu/4.6/../../../i386-linux-gnu/crti.o
 *(.bss .bss.* .gnu.linkonce.b.*)
 .bss           0x0000000000027200        0x0 /usr/lib/gcc/i686-linux-gnu/4.6/../../../i386-linux-gnu/crti.o
 .bss           0x0000000000027200        0x8 /usr/lib/gcc/i686-linux-gnu/4.6/crtbeginS.o
 *fill*         0x0000000000027208       0x18 00
 .bss           0x0000000000027220       0x44 jammer.co
 *fill*         0x0000000000027264       0x1c 00
 .bss           0x0000000000027280     0x2030 obj_cooja/mtype782.o
 .bss           0x00000000000292b0        0x0 obj_cooja/mtype782.a(rimeaddr.o)
 *fill*         0x00000000000292b0       0x10 00
 .bss           0x00000000000292c0       0x48 obj_cooja/mtype782.a(nullrdc.o)
 .bss           0x0000000000029308        0x0 obj_cooja/mtype782.a(mac.o)
 .bss           0x0000000000029308        0x2 obj_cooja/mtype782.a(framer-802154.o)
 *fill*         0x000000000002930a       0x16 00
 .bss           0x0000000000029320      0x246 obj_cooja/mtype782.a(csma.o)
 *fill*         0x0000000000029566       0x1a 00
 .bss           0x0000000000029580      0x1b0 obj_cooja/mtype782.a(process.o)
                0x0000000000029580                process_list
                0x0000000000029584                process_current
 .bss           0x0000000000029730        0x0 obj_cooja/mtype782.a(autostart.o)
 *fill*         0x0000000000029730       0x10 00
 .bss           0x0000000000029740      0x141 obj_cooja/mtype782.a(serial-line.o)
 *fill*         0x0000000000029881        0x3 00
 .bss           0x0000000000029884        0x0 obj_cooja/mtype782.a(memb.o)
 .bss           0x0000000000029884        0x0 obj_cooja/mtype782.a(list.o)
 .bss           0x0000000000029884        0x8 obj_cooja/mtype782.a(etimer.o)
 .bss           0x000000000002988c        0x5 obj_cooja/mtype782.a(ctimer.o)
 *fill*         0x0000000000029891        0x3 00
 .bss           0x0000000000029894        0x0 obj_cooja/mtype782.a(random.o)
 .bss           0x0000000000029894        0x0 obj_cooja/mtype782.a(ringbuf.o)
 .bss           0x0000000000029894        0x0 obj_cooja/mtype782.a(netstack.o)
 *fill*         0x0000000000029894        0xc 00
 .bss           0x00000000000298a0       0xd8 obj_cooja/mtype782.a(packetbuf.o)
 *fill*         0x0000000000029978        0x8 00
 .bss           0x0000000000029980      0xe40 obj_cooja/mtype782.a(queuebuf.o)
 .bss           0x000000000002a7c0      0x140 obj_cooja/mtype782.a(sicslowpan.o)
 .bss           0x000000000002a900      0x110 obj_cooja/mtype782.a(simple-udp.o)
 *fill*         0x000000000002aa10       0x10 00
 .bss           0x000000000002aa20       0x6f obj_cooja/mtype782.a(tcpip.o)
 *fill*         0x000000000002aa8f       0x11 00
 .bss           0x000000000002aaa0     0x39e8 obj_cooja/mtype782.a(uip-ds6-route.o)
 *fill*         0x000000000002e488       0x18 00
 .bss           0x000000000002e4a0     0x2ee0 obj_cooja/mtype782.a(uip-ds6-nbr.o)
 .bss           0x0000000000031380       0x20 obj_cooja/mtype782.a(uip-ds6.o)
 .bss           0x00000000000313a0       0x14 obj_cooja/mtype782.a(uip-nd6.o)
 *fill*         0x00000000000313b4        0xc 00
 .bss           0x00000000000313c0      0x258 obj_cooja/mtype782.a(uip-packetqueue)
 .bss           0x0000000000031618        0x0 obj_cooja/mtype782.a(uip-udp-packet.)
 .bss           0x0000000000031618        0xe obj_cooja/mtype782.a(uip6.o)
                0x0000000000031618                uip_ext_bitmap
                0x0000000000031619                uip_ext_len
                0x000000000003161a                uip_ext_opt_offset
 *fill*         0x0000000000031626        0x2 00
 .bss           0x0000000000031628        0x1 obj_cooja/mtype782.a(simEnvChange.o)
                0x0000000000031628                simDontFallAsleep
 *fill*         0x0000000000031629        0x3 00
 .bss           0x000000000003162c        0x4 obj_cooja/mtype782.a(cooja_mt.o)
 .bss           0x0000000000031630        0x4 obj_cooja/mtype782.a(cooja_mtarch.o)
 .bss           0x0000000000031634        0xc obj_cooja/mtype782.a(rtimer-arch.o)
 .bss           0x0000000000031640        0x0 obj_cooja/mtype782.a(watchdog.o)
 .bss           0x0000000000031640        0x0 obj_cooja/mtype782.a(beep.o)
 .bss           0x0000000000031640        0x8 obj_cooja/mtype782.a(button-sensor.o)
 .bss           0x0000000000031648        0x0 obj_cooja/mtype782.a(leds-arch.o)
 .bss           0x0000000000031648        0x0 obj_cooja/mtype782.a(moteid.o)
 .bss           0x0000000000031648        0x1 obj_cooja/mtype782.a(pir-sensor.o)
                0x0000000000031648                simPirValue
 *fill*         0x0000000000031649        0x3 00
 .bss           0x000000000003164c        0x4 obj_cooja/mtype782.a(rs232.o)
 .bss           0x0000000000031650        0x1 obj_cooja/mtype782.a(vib-sensor.o)
                0x0000000000031650                simVibValue
 *fill*         0x0000000000031651        0x3 00
 .bss           0x0000000000031654        0x0 obj_cooja/mtype782.a(clock.o)
 *fill*         0x0000000000031654        0xc 00
 .bss           0x0000000000031660      0x421 obj_cooja/mtype782.a(log.o)
 *fill*         0x0000000000031a81       0x1f 00
 .bss           0x0000000000031aa0      0xfbc obj_cooja/mtype782.a(cfs-cooja.o)
                0x0000000000031aa0                simCFSData
                0x0000000000032a40                simCFSChanged
                0x0000000000032a44                simCFSRead
                0x0000000000032a48                simCFSWritten
 .bss           0x0000000000032a5c       0x10 obj_cooja/mtype782.a(cooja-radio.o)
                0x0000000000032a5c                simReceiving
                0x0000000000032a60                simInSize
                0x0000000000032a64                simOutSize
 .bss           0x0000000000032a6c        0xc obj_cooja/mtype782.a(sensors.o)
 .bss           0x0000000000032a78        0x0 obj_cooja/mtype782.a(rimestats.o)
 .bss           0x0000000000032a78        0x0 obj_cooja/mtype782.a(frame802154.o)
 .bss           0x0000000000032a78        0x0 obj_cooja/mtype782.a(rpl.o)
 *fill*         0x0000000000032a78        0x8 00
 .bss           0x0000000000032a80     0x12c0 obj_cooja/mtype782.a(rpl-dag.o)
 .bss           0x0000000000033d40        0x0 obj_cooja/mtype782.a(rpl-icmp6.o)
 .bss           0x0000000000033d40       0x23 obj_cooja/mtype782.a(rpl-timers.o)
 *fill*         0x0000000000033d63        0x1 00
 .bss           0x0000000000033d64        0x0 obj_cooja/mtype782.a(rpl-mrhof.o)
 .bss           0x0000000000033d64        0x0 obj_cooja/mtype782.a(rpl-ext-header.)
 .bss           0x0000000000033d64        0x0 obj_cooja/mtype782.a(timer.o)
 .bss           0x0000000000033d64        0x4 obj_cooja/mtype782.a(rtimer.o)
 .bss           0x0000000000033d68        0x0 obj_cooja/mtype782.a(stimer.o)
 *fill*         0x0000000000033d68       0x18 00
 .bss           0x0000000000033d80     0x1214 obj_cooja/mtype782.a(nbr-table.o)
 .bss           0x0000000000034f94       0x10 obj_cooja/mtype782.a(uip-icmp6.o)
 .bss           0x0000000000034fa4        0x0 /usr/lib/gcc/i686-linux-gnu/4.6/crtendS.o
 .bss           0x0000000000034fa4        0x0 /usr/lib/gcc/i686-linux-gnu/4.6/../../../i386-linux-gnu/crtn.o
 *(COMMON)
 COMMON         0x0000000000034fa4        0x8 obj_cooja/mtype782.o
                0x0000000000034fa4                referenceVar
                0x0000000000034fa8                sensors_flags
 COMMON         0x0000000000034fac        0x8 obj_cooja/mtype782.a(rimeaddr.o)
                0x0000000000034fac                rimeaddr_node_addr
 COMMON         0x0000000000034fb4        0x1 obj_cooja/mtype782.a(serial-line.o)
                0x0000000000034fb4                serial_line_event_message
 *fill*         0x0000000000034fb5        0xb 00
 COMMON         0x0000000000034fc0       0x60 obj_cooja/mtype782.a(packetbuf.o)
                0x0000000000034fc0                packetbuf_attrs
                0x0000000000035000                packetbuf_addrs
 COMMON         0x0000000000035020        0x8 obj_cooja/mtype782.a(sicslowpan.o)
                0x0000000000035020                frag_sender
 COMMON         0x0000000000035028        0x1 obj_cooja/mtype782.a(tcpip.o)
                0x0000000000035028                tcpip_event
 *fill*         0x0000000000035029       0x17 00
 COMMON         0x0000000000035040      0x181 obj_cooja/mtype782.a(uip-ds6.o)
                0x0000000000035040                uip_ds6_prefix_list
                0x00000000000350a0                uip_ds6_timer_periodic
                0x00000000000350b0                uip_ds6_netif_addr_list_offset
                0x00000000000350c0                uip_ds6_if
                0x00000000000351b8                uip_ds6_timer_ra
                0x00000000000351c0                uip_ds6_addr_size
 *fill*         0x00000000000351c1       0x1f 00
 COMMON         0x00000000000351e0      0x3ac obj_cooja/mtype782.a(uip6.o)
                0x00000000000351e0                uip_slen
                0x00000000000351e2                uip_acc32
                0x0000000000035200                uip_conns
                0x00000000000352c0                uip_lladdr
                0x00000000000352c8                uip_appdata
                0x00000000000352cc                uip_flags
                0x00000000000352e0                uip_aligned_buf
                0x00000000000353d0                uip_listenports
                0x00000000000353e0                uip_len
                0x00000000000353e4                uip_sappdata
                0x0000000000035400                uip_udp_conns
                0x0000000000035580                uip_udp_conn
                0x0000000000035584                uip_next_hdr
                0x0000000000035588                uip_conn
 COMMON         0x000000000003558c        0xc obj_cooja/mtype782.a(simEnvChange.o)
                0x000000000003558c                simEtimerPending
                0x0000000000035590                simProcessRunValue
                0x0000000000035594                simNextExpirationTime
 COMMON         0x0000000000035598        0x1 obj_cooja/mtype782.a(beep.o)
                0x0000000000035598                simBeeped
 COMMON         0x0000000000035599        0x3 obj_cooja/mtype782.a(button-sensor.o)
                0x0000000000035599                simButtonIsActive
                0x000000000003559a                simButtonIsDown
                0x000000000003559b                simButtonChanged
 COMMON         0x000000000003559c        0x1 obj_cooja/mtype782.a(leds-arch.o)
                0x000000000003559c                simLedsValue
 *fill*         0x000000000003559d        0x3 00
 COMMON         0x00000000000355a0        0xc obj_cooja/mtype782.a(moteid.o)
                0x00000000000355a0                simRandomSeed
                0x00000000000355a4                simMoteIDChanged
                0x00000000000355a8                simMoteID
 COMMON         0x00000000000355ac        0x2 obj_cooja/mtype782.a(pir-sensor.o)
                0x00000000000355ac                simPirIsActive
                0x00000000000355ad                simPirChanged
 *fill*         0x00000000000355ae       0x12 00
 COMMON         0x00000000000355c0      0x420 obj_cooja/mtype782.a(rs232.o)
                0x00000000000355c0                simSerialReceivingFlag
                0x00000000000355c4                simSerialReceivingLength
                0x00000000000355e0                simSerialReceivingData
 COMMON         0x00000000000359e0        0x2 obj_cooja/mtype782.a(vib-sensor.o)
                0x00000000000359e0                simVibChanged
                0x00000000000359e1                simVibIsActive
 *fill*         0x00000000000359e2        0x2 00
 COMMON         0x00000000000359e4        0x4 obj_cooja/mtype782.a(clock.o)
                0x00000000000359e4                simCurrentTime
 *fill*         0x00000000000359e8       0x18 00
 COMMON         0x0000000000035a00      0x420 obj_cooja/mtype782.a(log.o)
                0x0000000000035a00                simLoggedLength
                0x0000000000035a04                simLoggedFlag
                0x0000000000035a20                simLoggedData
 COMMON         0x0000000000035e20      0x100 obj_cooja/mtype782.a(cooja-radio.o)
                0x0000000000035e20                simOutDataBuffer
                0x0000000000035ea0                simInDataBuffer
 COMMON         0x0000000000035f20        0x1 obj_cooja/mtype782.a(sensors.o)
                0x0000000000035f20                sensors_event
 *fill*         0x0000000000035f21       0x1f 00
 COMMON         0x0000000000035f40       0x48 obj_cooja/mtype782.a(rimestats.o)
                0x0000000000035f40                rimestats
 *fill*         0x0000000000035f88       0x18 00
 COMMON         0x0000000000035fa0      0x114 obj_cooja/mtype782.a(rpl-dag.o)
                0x0000000000035fa0                default_instance
                0x0000000000035fc0                instance_table
                0x00000000000360b4                . = ALIGN ((. != 0x0)?0x4:0x1)
                0x00000000000360b4                . = ALIGN (0x4)
                0x00000000000360b4                . = ALIGN (0x4)
                0x00000000000360b4                _end = .
                0x00000000000360b4                PROVIDE (end, .)
                0x00000000000360b4                . = DATA_SEGMENT_END (.)

.stab
 *(.stab)

.stabstr
 *(.stabstr)

.stab.excl
 *(.stab.excl)

.stab.exclstr
 *(.stab.exclstr)

.stab.index
 *(.stab.index)

.stab.indexstr
 *(.stab.indexstr)

.comment        0x0000000000000000       0x2a
 *(.comment)
 .comment       0x0000000000000000       0x2a /usr/lib/gcc/i686-linux-gnu/4.6/crtbeginS.o
                                         0x2b (size before relaxing)
 .comment       0x0000000000000000       0x2b jammer.co
 .comment       0x0000000000000000       0x2b obj_cooja/mtype782.o
 .comment       0x0000000000000000       0x2b obj_cooja/mtype782.a(rimeaddr.o)
 .comment       0x0000000000000000       0x2b obj_cooja/mtype782.a(nullrdc.o)
 .comment       0x0000000000000000       0x2b obj_cooja/mtype782.a(mac.o)
 .comment       0x0000000000000000       0x2b obj_cooja/mtype782.a(framer-802154.o)
 .comment       0x0000000000000000       0x2b obj_cooja/mtype782.a(csma.o)
 .comment       0x0000000000000000       0x2b obj_cooja/mtype782.a(process.o)
 .comment       0x0000000000000000       0x2b obj_cooja/mtype782.a(autostart.o)
 .comment       0x0000000000000000       0x2b obj_cooja/mtype782.a(serial-line.o)
 .comment       0x0000000000000000       0x2b obj_cooja/mtype782.a(memb.o)
 .comment       0x0000000000000000       0x2b obj_cooja/mtype782.a(list.o)
 .comment       0x0000000000000000       0x2b obj_cooja/mtype782.a(etimer.o)
 .comment       0x0000000000000000       0x2b obj_cooja/mtype782.a(ctimer.o)
 .comment       0x0000000000000000       0x2b obj_cooja/mtype782.a(random.o)
 .comment       0x0000000000000000       0x2b obj_cooja/mtype782.a(ringbuf.o)
 .comment       0x0000000000000000       0x2b obj_cooja/mtype782.a(netstack.o)
 .comment       0x0000000000000000       0x2b obj_cooja/mtype782.a(packetbuf.o)
 .comment       0x0000000000000000       0x2b obj_cooja/mtype782.a(queuebuf.o)
 .comment       0x0000000000000000       0x2b obj_cooja/mtype782.a(sicslowpan.o)
 .comment       0x0000000000000000       0x2b obj_cooja/mtype782.a(simple-udp.o)
 .comment       0x0000000000000000       0x2b obj_cooja/mtype782.a(tcpip.o)
 .comment       0x0000000000000000       0x2b obj_cooja/mtype782.a(uip-ds6-route.o)
 .comment       0x0000000000000000       0x2b obj_cooja/mtype782.a(uip-ds6-nbr.o)
 .comment       0x0000000000000000       0x2b obj_cooja/mtype782.a(uip-ds6.o)
 .comment       0x0000000000000000       0x2b obj_cooja/mtype782.a(uip-nd6.o)
 .comment       0x0000000000000000       0x2b obj_cooja/mtype782.a(uip-packetqueue)
 .comment       0x0000000000000000       0x2b obj_cooja/mtype782.a(uip-udp-packet.)
 .comment       0x0000000000000000       0x2b obj_cooja/mtype782.a(uip6.o)
 .comment       0x0000000000000000       0x2b obj_cooja/mtype782.a(simEnvChange.o)
 .comment       0x0000000000000000       0x2b obj_cooja/mtype782.a(cooja_mt.o)
 .comment       0x0000000000000000       0x2b obj_cooja/mtype782.a(cooja_mtarch.o)
 .comment       0x0000000000000000       0x2b obj_cooja/mtype782.a(rtimer-arch.o)
 .comment       0x0000000000000000       0x2b obj_cooja/mtype782.a(watchdog.o)
 .comment       0x0000000000000000       0x2b obj_cooja/mtype782.a(beep.o)
 .comment       0x0000000000000000       0x2b obj_cooja/mtype782.a(button-sensor.o)
 .comment       0x0000000000000000       0x2b obj_cooja/mtype782.a(leds-arch.o)
 .comment       0x0000000000000000       0x2b obj_cooja/mtype782.a(moteid.o)
 .comment       0x0000000000000000       0x2b obj_cooja/mtype782.a(pir-sensor.o)
 .comment       0x0000000000000000       0x2b obj_cooja/mtype782.a(rs232.o)
 .comment       0x0000000000000000       0x2b obj_cooja/mtype782.a(vib-sensor.o)
 .comment       0x0000000000000000       0x2b obj_cooja/mtype782.a(clock.o)
 .comment       0x0000000000000000       0x2b obj_cooja/mtype782.a(log.o)
 .comment       0x0000000000000000       0x2b obj_cooja/mtype782.a(cfs-cooja.o)
 .comment       0x0000000000000000       0x2b obj_cooja/mtype782.a(cooja-radio.o)
 .comment       0x0000000000000000       0x2b obj_cooja/mtype782.a(sensors.o)
 .comment       0x0000000000000000       0x2b obj_cooja/mtype782.a(rimestats.o)
 .comment       0x0000000000000000       0x2b obj_cooja/mtype782.a(frame802154.o)
 .comment       0x0000000000000000       0x2b obj_cooja/mtype782.a(rpl.o)
 .comment       0x0000000000000000       0x2b obj_cooja/mtype782.a(rpl-dag.o)
 .comment       0x0000000000000000       0x2b obj_cooja/mtype782.a(rpl-icmp6.o)
 .comment       0x0000000000000000       0x2b obj_cooja/mtype782.a(rpl-timers.o)
 .comment       0x0000000000000000       0x2b obj_cooja/mtype782.a(rpl-mrhof.o)
 .comment       0x0000000000000000       0x2b obj_cooja/mtype782.a(rpl-ext-header.)
 .comment       0x0000000000000000       0x2b obj_cooja/mtype782.a(timer.o)
 .comment       0x0000000000000000       0x2b obj_cooja/mtype782.a(rtimer.o)
 .comment       0x0000000000000000       0x2b obj_cooja/mtype782.a(stimer.o)
 .comment       0x0000000000000000       0x2b obj_cooja/mtype782.a(nbr-table.o)
 .comment       0x0000000000000000       0x2b obj_cooja/mtype782.a(uip-icmp6.o)
 .comment       0x0000000000000000       0x2b /usr/lib/gcc/i686-linux-gnu/4.6/crtendS.o

.debug
 *(.debug)

.line
 *(.line)

.debug_srcinfo
 *(.debug_srcinfo)

.debug_sfnames
 *(.debug_sfnames)

.debug_aranges  0x0000000000000000     0x15b8
 *(.debug_aranges)
 .debug_aranges
                0x0000000000000000       0x28 jammer.co
 .debug_aranges
                0x0000000000000028       0x68 obj_cooja/mtype782.o
 .debug_aranges
                0x0000000000000090       0x30 obj_cooja/mtype782.a(rimeaddr.o)
 .debug_aranges
                0x00000000000000c0       0x78 obj_cooja/mtype782.a(nullrdc.o)
 .debug_aranges
                0x0000000000000138       0x20 obj_cooja/mtype782.a(mac.o)
 .debug_aranges
                0x0000000000000158       0x50 obj_cooja/mtype782.a(framer-802154.o)
 .debug_aranges
                0x00000000000001a8       0x88 obj_cooja/mtype782.a(csma.o)
 .debug_aranges
                0x0000000000000230       0x88 obj_cooja/mtype782.a(process.o)
 .debug_aranges
                0x00000000000002b8       0x28 obj_cooja/mtype782.a(autostart.o)
 .debug_aranges
                0x00000000000002e0       0x30 obj_cooja/mtype782.a(serial-line.o)
 .debug_aranges
                0x0000000000000310       0x38 obj_cooja/mtype782.a(memb.o)
 .debug_aranges
                0x0000000000000348       0x78 obj_cooja/mtype782.a(list.o)
 .debug_aranges
                0x00000000000003c0       0x88 obj_cooja/mtype782.a(etimer.o)
 .debug_aranges
                0x0000000000000448       0x50 obj_cooja/mtype782.a(ctimer.o)
 .debug_aranges
                0x0000000000000498       0x28 obj_cooja/mtype782.a(random.o)
 .debug_aranges
                0x00000000000004c0       0x40 obj_cooja/mtype782.a(ringbuf.o)
 .debug_aranges
                0x0000000000000500       0x20 obj_cooja/mtype782.a(netstack.o)
 .debug_aranges
                0x0000000000000520       0xc0 obj_cooja/mtype782.a(packetbuf.o)
 .debug_aranges
                0x00000000000005e0       0x70 obj_cooja/mtype782.a(queuebuf.o)
 .debug_aranges
                0x0000000000000650       0xa8 obj_cooja/mtype782.a(sicslowpan.o)
 .debug_aranges
                0x00000000000006f8       0x48 obj_cooja/mtype782.a(simple-udp.o)
 .debug_aranges
                0x0000000000000740       0xb0 obj_cooja/mtype782.a(tcpip.o)
 .debug_aranges
                0x00000000000007f0       0xb8 obj_cooja/mtype782.a(uip-ds6-route.o)
 .debug_aranges
                0x00000000000008a8       0x88 obj_cooja/mtype782.a(uip-ds6-nbr.o)
 .debug_aranges
                0x0000000000000930       0xc8 obj_cooja/mtype782.a(uip-ds6.o)
 .debug_aranges
                0x00000000000009f8       0x38 obj_cooja/mtype782.a(uip-nd6.o)
 .debug_aranges
                0x0000000000000a30       0x50 obj_cooja/mtype782.a(uip-packetqueue)
 .debug_aranges
                0x0000000000000a80       0x28 obj_cooja/mtype782.a(uip-udp-packet.)
 .debug_aranges
                0x0000000000000aa8       0xb0 obj_cooja/mtype782.a(uip6.o)
 .debug_aranges
                0x0000000000000b58       0x28 obj_cooja/mtype782.a(simEnvChange.o)
 .debug_aranges
                0x0000000000000b80       0x48 obj_cooja/mtype782.a(cooja_mt.o)
 .debug_aranges
                0x0000000000000bc8       0x60 obj_cooja/mtype782.a(cooja_mtarch.o)
 .debug_aranges
                0x0000000000000c28       0x48 obj_cooja/mtype782.a(rtimer-arch.o)
 .debug_aranges
                0x0000000000000c70       0x40 obj_cooja/mtype782.a(watchdog.o)
 .debug_aranges
                0x0000000000000cb0       0x70 obj_cooja/mtype782.a(beep.o)
 .debug_aranges
                0x0000000000000d20       0x40 obj_cooja/mtype782.a(button-sensor.o)
 .debug_aranges
                0x0000000000000d60       0x40 obj_cooja/mtype782.a(leds-arch.o)
 .debug_aranges
                0x0000000000000da0       0x28 obj_cooja/mtype782.a(moteid.o)
 .debug_aranges
                0x0000000000000dc8       0x40 obj_cooja/mtype782.a(pir-sensor.o)
 .debug_aranges
                0x0000000000000e08       0x58 obj_cooja/mtype782.a(rs232.o)
 .debug_aranges
                0x0000000000000e60       0x40 obj_cooja/mtype782.a(vib-sensor.o)
 .debug_aranges
                0x0000000000000ea0       0x48 obj_cooja/mtype782.a(clock.o)
 .debug_aranges
                0x0000000000000ee8       0x60 obj_cooja/mtype782.a(log.o)
 .debug_aranges
                0x0000000000000f48       0x70 obj_cooja/mtype782.a(cfs-cooja.o)
 .debug_aranges
                0x0000000000000fb8       0xa0 obj_cooja/mtype782.a(cooja-radio.o)
 .debug_aranges
                0x0000000000001058       0x48 obj_cooja/mtype782.a(sensors.o)
 .debug_aranges
                0x00000000000010a0       0x40 obj_cooja/mtype782.a(frame802154.o)
 .debug_aranges
                0x00000000000010e0       0x50 obj_cooja/mtype782.a(rpl.o)
 .debug_aranges
                0x0000000000001130      0x168 obj_cooja/mtype782.a(rpl-dag.o)
 .debug_aranges
                0x0000000000001298       0x98 obj_cooja/mtype782.a(rpl-icmp6.o)
 .debug_aranges
                0x0000000000001330       0x50 obj_cooja/mtype782.a(rpl-timers.o)
 .debug_aranges
                0x0000000000001380       0x50 obj_cooja/mtype782.a(rpl-mrhof.o)
 .debug_aranges
                0x00000000000013d0       0x50 obj_cooja/mtype782.a(rpl-ext-header.)
 .debug_aranges
                0x0000000000001420       0x40 obj_cooja/mtype782.a(timer.o)
 .debug_aranges
                0x0000000000001460       0x30 obj_cooja/mtype782.a(rtimer.o)
 .debug_aranges
                0x0000000000001490       0x48 obj_cooja/mtype782.a(stimer.o)
 .debug_aranges
                0x00000000000014d8       0xb0 obj_cooja/mtype782.a(nbr-table.o)
 .debug_aranges
                0x0000000000001588       0x30 obj_cooja/mtype782.a(uip-icmp6.o)

.debug_pubnames
 *(.debug_pubnames)

.debug_info     0x0000000000000000    0x19af8
 *(.debug_info .gnu.linkonce.wi.*)
 .debug_info    0x0000000000000000      0x4d6 jammer.co
 .debug_info    0x00000000000004d6     0x3acc obj_cooja/mtype782.o
 .debug_info    0x0000000000003fa2      0x169 obj_cooja/mtype782.a(rimeaddr.o)
 .debug_info    0x000000000000410b      0xc1d obj_cooja/mtype782.a(nullrdc.o)
 .debug_info    0x0000000000004d28      0x114 obj_cooja/mtype782.a(mac.o)
 .debug_info    0x0000000000004e3c      0x5f3 obj_cooja/mtype782.a(framer-802154.o)
 .debug_info    0x000000000000542f      0xb66 obj_cooja/mtype782.a(csma.o)
 .debug_info    0x0000000000005f95      0x502 obj_cooja/mtype782.a(process.o)
 .debug_info    0x0000000000006497      0x1b9 obj_cooja/mtype782.a(autostart.o)
 .debug_info    0x0000000000006650      0x2f6 obj_cooja/mtype782.a(serial-line.o)
 .debug_info    0x0000000000006946      0x1a5 obj_cooja/mtype782.a(memb.o)
 .debug_info    0x0000000000006aeb      0x323 obj_cooja/mtype782.a(list.o)
 .debug_info    0x0000000000006e0e      0x4b5 obj_cooja/mtype782.a(etimer.o)
 .debug_info    0x00000000000072c3      0x457 obj_cooja/mtype782.a(ctimer.o)
 .debug_info    0x000000000000771a       0xb8 obj_cooja/mtype782.a(random.o)
 .debug_info    0x00000000000077d2      0x1c3 obj_cooja/mtype782.a(ringbuf.o)
 .debug_info    0x0000000000007995      0x3ba obj_cooja/mtype782.a(netstack.o)
 .debug_info    0x0000000000007d4f      0x5ba obj_cooja/mtype782.a(packetbuf.o)
 .debug_info    0x0000000000008309      0x69e obj_cooja/mtype782.a(queuebuf.o)
 .debug_info    0x00000000000089a7      0xe63 obj_cooja/mtype782.a(sicslowpan.o)
 .debug_info    0x000000000000980a      0x77e obj_cooja/mtype782.a(simple-udp.o)
 .debug_info    0x0000000000009f88     0x1745 obj_cooja/mtype782.a(tcpip.o)
 .debug_info    0x000000000000b6cd      0xcb3 obj_cooja/mtype782.a(uip-ds6-route.o)
 .debug_info    0x000000000000c380      0xb92 obj_cooja/mtype782.a(uip-ds6-nbr.o)
 .debug_info    0x000000000000cf12      0xafa obj_cooja/mtype782.a(uip-ds6.o)
 .debug_info    0x000000000000da0c      0x9e2 obj_cooja/mtype782.a(uip-nd6.o)
 .debug_info    0x000000000000e3ee      0x4c0 obj_cooja/mtype782.a(uip-packetqueue)
 .debug_info    0x000000000000e8ae      0x398 obj_cooja/mtype782.a(uip-udp-packet.)
 .debug_info    0x000000000000ec46      0xf2a obj_cooja/mtype782.a(uip6.o)
 .debug_info    0x000000000000fb70      0x168 obj_cooja/mtype782.a(simEnvChange.o)
 .debug_info    0x000000000000fcd8      0x1fd obj_cooja/mtype782.a(cooja_mt.o)
 .debug_info    0x000000000000fed5      0x32b obj_cooja/mtype782.a(cooja_mtarch.o)
 .debug_info    0x0000000000010200      0x186 obj_cooja/mtype782.a(rtimer-arch.o)
 .debug_info    0x0000000000010386       0x93 obj_cooja/mtype782.a(watchdog.o)
 .debug_info    0x0000000000010419      0x221 obj_cooja/mtype782.a(beep.o)
 .debug_info    0x000000000001063a      0x27b obj_cooja/mtype782.a(button-sensor.o)
 .debug_info    0x00000000000108b5      0x148 obj_cooja/mtype782.a(leds-arch.o)
 .debug_info    0x00000000000109fd      0x116 obj_cooja/mtype782.a(moteid.o)
 .debug_info    0x0000000000010b13      0x236 obj_cooja/mtype782.a(pir-sensor.o)
 .debug_info    0x0000000000010d49      0x252 obj_cooja/mtype782.a(rs232.o)
 .debug_info    0x0000000000010f9b      0x236 obj_cooja/mtype782.a(vib-sensor.o)
 .debug_info    0x00000000000111d1      0x16c obj_cooja/mtype782.a(clock.o)
 .debug_info    0x000000000001133d      0x2e3 obj_cooja/mtype782.a(log.o)
 .debug_info    0x0000000000011620      0x416 obj_cooja/mtype782.a(cfs-cooja.o)
 .debug_info    0x0000000000011a36      0x983 obj_cooja/mtype782.a(cooja-radio.o)
 .debug_info    0x00000000000123b9      0x398 obj_cooja/mtype782.a(sensors.o)
 .debug_info    0x0000000000012751      0x146 obj_cooja/mtype782.a(rimestats.o)
 .debug_info    0x0000000000012897      0x46f obj_cooja/mtype782.a(frame802154.o)
 .debug_info    0x0000000000012d06      0xce9 obj_cooja/mtype782.a(rpl.o)
 .debug_info    0x00000000000139ef     0x1860 obj_cooja/mtype782.a(rpl-dag.o)
 .debug_info    0x000000000001524f     0x1595 obj_cooja/mtype782.a(rpl-icmp6.o)
 .debug_info    0x00000000000167e4      0x9a9 obj_cooja/mtype782.a(rpl-timers.o)
 .debug_info    0x000000000001718d      0xa54 obj_cooja/mtype782.a(rpl-mrhof.o)
 .debug_info    0x0000000000017be1      0xce4 obj_cooja/mtype782.a(rpl-ext-header.)
 .debug_info    0x00000000000188c5      0x181 obj_cooja/mtype782.a(timer.o)
 .debug_info    0x0000000000018a46      0x1bb obj_cooja/mtype782.a(rtimer.o)
 .debug_info    0x0000000000018c01      0x192 obj_cooja/mtype782.a(stimer.o)
 .debug_info    0x0000000000018d93      0x847 obj_cooja/mtype782.a(nbr-table.o)
 .debug_info    0x00000000000195da      0x51e obj_cooja/mtype782.a(uip-icmp6.o)

.debug_abbrev   0x0000000000000000     0x55db
 *(.debug_abbrev)
 .debug_abbrev  0x0000000000000000      0x175 jammer.co
 .debug_abbrev  0x0000000000000175      0x28d obj_cooja/mtype782.o
 .debug_abbrev  0x0000000000000402       0xd4 obj_cooja/mtype782.a(rimeaddr.o)
 .debug_abbrev  0x00000000000004d6      0x2c4 obj_cooja/mtype782.a(nullrdc.o)
 .debug_abbrev  0x000000000000079a       0xa2 obj_cooja/mtype782.a(mac.o)
 .debug_abbrev  0x000000000000083c      0x1b9 obj_cooja/mtype782.a(framer-802154.o)
 .debug_abbrev  0x00000000000009f5      0x2b5 obj_cooja/mtype782.a(csma.o)
 .debug_abbrev  0x0000000000000caa      0x1fd obj_cooja/mtype782.a(process.o)
 .debug_abbrev  0x0000000000000ea7       0xf7 obj_cooja/mtype782.a(autostart.o)
 .debug_abbrev  0x0000000000000f9e      0x190 obj_cooja/mtype782.a(serial-line.o)
 .debug_abbrev  0x000000000000112e       0xdd obj_cooja/mtype782.a(memb.o)
 .debug_abbrev  0x000000000000120b      0x11e obj_cooja/mtype782.a(list.o)
 .debug_abbrev  0x0000000000001329      0x1ce obj_cooja/mtype782.a(etimer.o)
 .debug_abbrev  0x00000000000014f7      0x197 obj_cooja/mtype782.a(ctimer.o)
 .debug_abbrev  0x000000000000168e       0x69 obj_cooja/mtype782.a(random.o)
 .debug_abbrev  0x00000000000016f7       0xd4 obj_cooja/mtype782.a(ringbuf.o)
 .debug_abbrev  0x00000000000017cb       0xdc obj_cooja/mtype782.a(netstack.o)
 .debug_abbrev  0x00000000000018a7      0x1c0 obj_cooja/mtype782.a(packetbuf.o)
 .debug_abbrev  0x0000000000001a67      0x1b8 obj_cooja/mtype782.a(queuebuf.o)
 .debug_abbrev  0x0000000000001c1f      0x27e obj_cooja/mtype782.a(sicslowpan.o)
 .debug_abbrev  0x0000000000001e9d      0x1ea obj_cooja/mtype782.a(simple-udp.o)
 .debug_abbrev  0x0000000000002087      0x2e9 obj_cooja/mtype782.a(tcpip.o)
 .debug_abbrev  0x0000000000002370      0x289 obj_cooja/mtype782.a(uip-ds6-route.o)
 .debug_abbrev  0x00000000000025f9      0x27d obj_cooja/mtype782.a(uip-ds6-nbr.o)
 .debug_abbrev  0x0000000000002876      0x1ea obj_cooja/mtype782.a(uip-ds6.o)
 .debug_abbrev  0x0000000000002a60      0x214 obj_cooja/mtype782.a(uip-nd6.o)
 .debug_abbrev  0x0000000000002c74      0x17f obj_cooja/mtype782.a(uip-packetqueue)
 .debug_abbrev  0x0000000000002df3      0x18b obj_cooja/mtype782.a(uip-udp-packet.)
 .debug_abbrev  0x0000000000002f7e      0x25b obj_cooja/mtype782.a(uip6.o)
 .debug_abbrev  0x00000000000031d9       0xc2 obj_cooja/mtype782.a(simEnvChange.o)
 .debug_abbrev  0x000000000000329b       0xe2 obj_cooja/mtype782.a(cooja_mt.o)
 .debug_abbrev  0x000000000000337d      0x128 obj_cooja/mtype782.a(cooja_mtarch.o)
 .debug_abbrev  0x00000000000034a5       0xab obj_cooja/mtype782.a(rtimer-arch.o)
 .debug_abbrev  0x0000000000003550       0x2b obj_cooja/mtype782.a(watchdog.o)
 .debug_abbrev  0x000000000000357b       0xdc obj_cooja/mtype782.a(beep.o)
 .debug_abbrev  0x0000000000003657       0xe8 obj_cooja/mtype782.a(button-sensor.o)
 .debug_abbrev  0x000000000000373f       0xd7 obj_cooja/mtype782.a(leds-arch.o)
 .debug_abbrev  0x0000000000003816       0x85 obj_cooja/mtype782.a(moteid.o)
 .debug_abbrev  0x000000000000389b       0xcc obj_cooja/mtype782.a(pir-sensor.o)
 .debug_abbrev  0x0000000000003967      0x13c obj_cooja/mtype782.a(rs232.o)
 .debug_abbrev  0x0000000000003aa3       0xcc obj_cooja/mtype782.a(vib-sensor.o)
 .debug_abbrev  0x0000000000003b6f       0xe4 obj_cooja/mtype782.a(clock.o)
 .debug_abbrev  0x0000000000003c53      0x120 obj_cooja/mtype782.a(log.o)
 .debug_abbrev  0x0000000000003d73      0x135 obj_cooja/mtype782.a(cfs-cooja.o)
 .debug_abbrev  0x0000000000003ea8      0x251 obj_cooja/mtype782.a(cooja-radio.o)
 .debug_abbrev  0x00000000000040f9      0x19e obj_cooja/mtype782.a(sensors.o)
 .debug_abbrev  0x0000000000004297       0x5d obj_cooja/mtype782.a(rimestats.o)
 .debug_abbrev  0x00000000000042f4      0x141 obj_cooja/mtype782.a(frame802154.o)
 .debug_abbrev  0x0000000000004435      0x1b6 obj_cooja/mtype782.a(rpl.o)
 .debug_abbrev  0x00000000000045eb      0x2a9 obj_cooja/mtype782.a(rpl-dag.o)
 .debug_abbrev  0x0000000000004894      0x2af obj_cooja/mtype782.a(rpl-icmp6.o)
 .debug_abbrev  0x0000000000004b43      0x17d obj_cooja/mtype782.a(rpl-timers.o)
 .debug_abbrev  0x0000000000004cc0      0x19e obj_cooja/mtype782.a(rpl-mrhof.o)
 .debug_abbrev  0x0000000000004e5e      0x1f2 obj_cooja/mtype782.a(rpl-ext-header.)
 .debug_abbrev  0x0000000000005050       0xd4 obj_cooja/mtype782.a(timer.o)
 .debug_abbrev  0x0000000000005124      0x11d obj_cooja/mtype782.a(rtimer.o)
 .debug_abbrev  0x0000000000005241       0xb8 obj_cooja/mtype782.a(stimer.o)
 .debug_abbrev  0x00000000000052f9      0x1a9 obj_cooja/mtype782.a(nbr-table.o)
 .debug_abbrev  0x00000000000054a2      0x139 obj_cooja/mtype782.a(uip-icmp6.o)

.debug_line     0x0000000000000000     0x8cc6
 *(.debug_line)
 .debug_line    0x0000000000000000      0x17f jammer.co
 .debug_line    0x000000000000017f      0x558 obj_cooja/mtype782.o
 .debug_line    0x00000000000006d7       0xb9 obj_cooja/mtype782.a(rimeaddr.o)
 .debug_line    0x0000000000000790      0x390 obj_cooja/mtype782.a(nullrdc.o)
 .debug_line    0x0000000000000b20       0x90 obj_cooja/mtype782.a(mac.o)
 .debug_line    0x0000000000000bb0      0x20a obj_cooja/mtype782.a(framer-802154.o)
 .debug_line    0x0000000000000dba      0x3ac obj_cooja/mtype782.a(csma.o)
 .debug_line    0x0000000000001166      0x254 obj_cooja/mtype782.a(process.o)
 .debug_line    0x00000000000013ba       0xd4 obj_cooja/mtype782.a(autostart.o)
 .debug_line    0x000000000000148e      0x15e obj_cooja/mtype782.a(serial-line.o)
 .debug_line    0x00000000000015ec       0xf8 obj_cooja/mtype782.a(memb.o)
 .debug_line    0x00000000000016e4      0x1b4 obj_cooja/mtype782.a(list.o)
 .debug_line    0x0000000000001898      0x276 obj_cooja/mtype782.a(etimer.o)
 .debug_line    0x0000000000001b0e      0x204 obj_cooja/mtype782.a(ctimer.o)
 .debug_line    0x0000000000001d12       0x69 obj_cooja/mtype782.a(random.o)
 .debug_line    0x0000000000001d7b       0xff obj_cooja/mtype782.a(ringbuf.o)
 .debug_line    0x0000000000001e7a       0xec obj_cooja/mtype782.a(netstack.o)
 .debug_line    0x0000000000001f66      0x2be obj_cooja/mtype782.a(packetbuf.o)
 .debug_line    0x0000000000002224      0x1f6 obj_cooja/mtype782.a(queuebuf.o)
 .debug_line    0x000000000000241a      0x7b2 obj_cooja/mtype782.a(sicslowpan.o)
 .debug_line    0x0000000000002bcc      0x1ef obj_cooja/mtype782.a(simple-udp.o)
 .debug_line    0x0000000000002dbb      0x52d obj_cooja/mtype782.a(tcpip.o)
 .debug_line    0x00000000000032e8      0x454 obj_cooja/mtype782.a(uip-ds6-route.o)
 .debug_line    0x000000000000373c      0x3b6 obj_cooja/mtype782.a(uip-ds6-nbr.o)
 .debug_line    0x0000000000003af2      0x46d obj_cooja/mtype782.a(uip-ds6.o)
 .debug_line    0x0000000000003f5f      0x3d1 obj_cooja/mtype782.a(uip-nd6.o)
 .debug_line    0x0000000000004330      0x212 obj_cooja/mtype782.a(uip-packetqueue)
 .debug_line    0x0000000000004542      0x118 obj_cooja/mtype782.a(uip-udp-packet.)
 .debug_line    0x000000000000465a      0x95f obj_cooja/mtype782.a(uip6.o)
 .debug_line    0x0000000000004fb9      0x10f obj_cooja/mtype782.a(simEnvChange.o)
 .debug_line    0x00000000000050c8      0x13c obj_cooja/mtype782.a(cooja_mt.o)
 .debug_line    0x0000000000005204      0x19e obj_cooja/mtype782.a(cooja_mtarch.o)
 .debug_line    0x00000000000053a2      0x119 obj_cooja/mtype782.a(rtimer-arch.o)
 .debug_line    0x00000000000054bb       0xa3 obj_cooja/mtype782.a(watchdog.o)
 .debug_line    0x000000000000555e      0x183 obj_cooja/mtype782.a(beep.o)
 .debug_line    0x00000000000056e1      0x1b0 obj_cooja/mtype782.a(button-sensor.o)
 .debug_line    0x0000000000005891       0xe4 obj_cooja/mtype782.a(leds-arch.o)
 .debug_line    0x0000000000005975       0xb0 obj_cooja/mtype782.a(moteid.o)
 .debug_line    0x0000000000005a25      0x127 obj_cooja/mtype782.a(pir-sensor.o)
 .debug_line    0x0000000000005b4c      0x14a obj_cooja/mtype782.a(rs232.o)
 .debug_line    0x0000000000005c96      0x127 obj_cooja/mtype782.a(vib-sensor.o)
 .debug_line    0x0000000000005dbd      0x129 obj_cooja/mtype782.a(clock.o)
 .debug_line    0x0000000000005ee6      0x1a9 obj_cooja/mtype782.a(log.o)
 .debug_line    0x000000000000608f      0x1be obj_cooja/mtype782.a(cfs-cooja.o)
 .debug_line    0x000000000000624d      0x368 obj_cooja/mtype782.a(cooja-radio.o)
 .debug_line    0x00000000000065b5      0x197 obj_cooja/mtype782.a(sensors.o)
 .debug_line    0x000000000000674c       0x83 obj_cooja/mtype782.a(rimestats.o)
 .debug_line    0x00000000000067cf      0x20f obj_cooja/mtype782.a(frame802154.o)
 .debug_line    0x00000000000069de      0x30d obj_cooja/mtype782.a(rpl.o)
 .debug_line    0x0000000000006ceb      0x94f obj_cooja/mtype782.a(rpl-dag.o)
 .debug_line    0x000000000000763a      0x604 obj_cooja/mtype782.a(rpl-icmp6.o)
 .debug_line    0x0000000000007c3e      0x27d obj_cooja/mtype782.a(rpl-timers.o)
 .debug_line    0x0000000000007ebb      0x2c9 obj_cooja/mtype782.a(rpl-mrhof.o)
 .debug_line    0x0000000000008184      0x31e obj_cooja/mtype782.a(rpl-ext-header.)
 .debug_line    0x00000000000084a2      0x108 obj_cooja/mtype782.a(timer.o)
 .debug_line    0x00000000000085aa       0xf4 obj_cooja/mtype782.a(rtimer.o)
 .debug_line    0x000000000000869e       0xe3 obj_cooja/mtype782.a(stimer.o)
 .debug_line    0x0000000000008781      0x37c obj_cooja/mtype782.a(nbr-table.o)
 .debug_line    0x0000000000008afd      0x1c9 obj_cooja/mtype782.a(uip-icmp6.o)

.debug_frame
 *(.debug_frame)

.debug_str      0x0000000000000000     0x606e
 *(.debug_str)
 .debug_str     0x0000000000000000      0x249 jammer.co
                                        0x30e (size before relaxing)
 .debug_str     0x0000000000000249     0x187e obj_cooja/mtype782.o
                                       0x1aad (size before relaxing)
 .debug_str     0x0000000000001ac7       0x74 obj_cooja/mtype782.a(rimeaddr.o)
                                        0x147 (size before relaxing)
 .debug_str     0x0000000000001b3b      0x66f obj_cooja/mtype782.a(nullrdc.o)
                                        0x8cf (size before relaxing)
 .debug_str     0x00000000000021aa       0x46 obj_cooja/mtype782.a(mac.o)
                                        0x15f (size before relaxing)
 .debug_str     0x00000000000021f0       0x7d obj_cooja/mtype782.a(framer-802154.o)
                                        0x624 (size before relaxing)
 .debug_str     0x000000000000226d      0x21b obj_cooja/mtype782.a(csma.o)
                                        0x7f3 (size before relaxing)
 .debug_str     0x0000000000002488      0x16c obj_cooja/mtype782.a(process.o)
                                        0x289 (size before relaxing)
 .debug_str     0x00000000000025f4       0x49 obj_cooja/mtype782.a(autostart.o)
                                        0x14a (size before relaxing)
 .debug_str     0x000000000000263d       0xc8 obj_cooja/mtype782.a(serial-line.o)
                                        0x209 (size before relaxing)
 .debug_str     0x0000000000002705       0x55 obj_cooja/mtype782.a(memb.o)
                                        0x10f (size before relaxing)
 .debug_str     0x000000000000275a       0xb7 obj_cooja/mtype782.a(list.o)
                                         0xfc (size before relaxing)
 .debug_str     0x0000000000002811      0x142 obj_cooja/mtype782.a(etimer.o)
                                        0x29f (size before relaxing)
 .debug_str     0x0000000000002953       0xbc obj_cooja/mtype782.a(ctimer.o)
                                        0x233 (size before relaxing)
 .debug_str     0x0000000000002a0f       0x44 obj_cooja/mtype782.a(random.o)
                                         0xf7 (size before relaxing)
 .debug_str     0x0000000000002a53       0x6b obj_cooja/mtype782.a(ringbuf.o)
                                        0x147 (size before relaxing)
 .debug_str     0x0000000000002abe       0x37 obj_cooja/mtype782.a(netstack.o)
                                        0x1f7 (size before relaxing)
 .debug_str     0x0000000000002af5      0x1e7 obj_cooja/mtype782.a(packetbuf.o)
                                        0x610 (size before relaxing)
 .debug_str     0x0000000000002cdc      0x199 obj_cooja/mtype782.a(queuebuf.o)
                                        0x5de (size before relaxing)
 .debug_str     0x0000000000002e75      0x3ca obj_cooja/mtype782.a(sicslowpan.o)
                                        0xa04 (size before relaxing)
 .debug_str     0x000000000000323f       0xed obj_cooja/mtype782.a(simple-udp.o)
                                        0x3f8 (size before relaxing)
 .debug_str     0x000000000000332c      0x655 obj_cooja/mtype782.a(tcpip.o)
                                        0xafc (size before relaxing)
 .debug_str     0x0000000000003981      0x364 obj_cooja/mtype782.a(uip-ds6-route.o)
                                        0x6fa (size before relaxing)
 .debug_str     0x0000000000003ce5      0x1b7 obj_cooja/mtype782.a(uip-ds6-nbr.o)
                                        0x8ee (size before relaxing)
 .debug_str     0x0000000000003e9c      0x2fc obj_cooja/mtype782.a(uip-ds6.o)
                                        0x603 (size before relaxing)
 .debug_str     0x0000000000004198      0x103 obj_cooja/mtype782.a(uip-nd6.o)
                                        0x542 (size before relaxing)
 .debug_str     0x000000000000429b      0x100 obj_cooja/mtype782.a(uip-packetqueue)
                                        0x2ce (size before relaxing)
 .debug_str     0x000000000000439b       0x80 obj_cooja/mtype782.a(uip-udp-packet.)
                                        0x217 (size before relaxing)
 .debug_str     0x000000000000441b      0x2e9 obj_cooja/mtype782.a(uip6.o)
                                        0x789 (size before relaxing)
 .debug_str     0x0000000000004704       0x37 obj_cooja/mtype782.a(simEnvChange.o)
                                        0x185 (size before relaxing)
 .debug_str     0x000000000000473b       0x85 obj_cooja/mtype782.a(cooja_mt.o)
                                        0x1af (size before relaxing)
 .debug_str     0x00000000000047c0      0x104 obj_cooja/mtype782.a(cooja_mtarch.o)
                                        0x235 (size before relaxing)
 .debug_str     0x00000000000048c4       0xcc obj_cooja/mtype782.a(rtimer-arch.o)
                                        0x1d3 (size before relaxing)
 .debug_str     0x0000000000004990       0x80 obj_cooja/mtype782.a(watchdog.o)
                                         0xaa (size before relaxing)
 .debug_str     0x0000000000004a10       0xcd obj_cooja/mtype782.a(beep.o)
                                        0x1cc (size before relaxing)
 .debug_str     0x0000000000004add       0x79 obj_cooja/mtype782.a(button-sensor.o)
                                        0x1fc (size before relaxing)
 .debug_str     0x0000000000004b56       0x71 obj_cooja/mtype782.a(leds-arch.o)
                                        0x197 (size before relaxing)
 .debug_str     0x0000000000004bc7       0x50 obj_cooja/mtype782.a(moteid.o)
                                        0x182 (size before relaxing)
 .debug_str     0x0000000000004c17       0x5e obj_cooja/mtype782.a(pir-sensor.o)
                                        0x1b9 (size before relaxing)
 .debug_str     0x0000000000004c75       0xe4 obj_cooja/mtype782.a(rs232.o)
                                        0x222 (size before relaxing)
 .debug_str     0x0000000000004d59       0x5e obj_cooja/mtype782.a(vib-sensor.o)
                                        0x1b9 (size before relaxing)
 .debug_str     0x0000000000004db7       0x6b obj_cooja/mtype782.a(clock.o)
                                        0x1ae (size before relaxing)
 .debug_str     0x0000000000004e22       0xce obj_cooja/mtype782.a(log.o)
                                        0x23c (size before relaxing)
 .debug_str     0x0000000000004ef0      0x116 obj_cooja/mtype782.a(cfs-cooja.o)
                                        0x25a (size before relaxing)
 .debug_str     0x0000000000005006      0x1a6 obj_cooja/mtype782.a(cooja-radio.o)
                                        0x59d (size before relaxing)
 .debug_str     0x00000000000051ac       0xaa obj_cooja/mtype782.a(sensors.o)
                                        0x21e (size before relaxing)
 .debug_str     0x0000000000005256       0x2f obj_cooja/mtype782.a(rimestats.o)
                                         0xfe (size before relaxing)
 .debug_str     0x0000000000005285       0xd1 obj_cooja/mtype782.a(frame802154.o)
                                        0x30d (size before relaxing)
 .debug_str     0x0000000000005356       0xe1 obj_cooja/mtype782.a(rpl.o)
                                        0x717 (size before relaxing)
 .debug_str     0x0000000000005437      0x43b obj_cooja/mtype782.a(rpl-dag.o)
                                        0xa77 (size before relaxing)
 .debug_str     0x0000000000005872      0x123 obj_cooja/mtype782.a(rpl-icmp6.o)
                                        0xc73 (size before relaxing)
 .debug_str     0x0000000000005995       0xd1 obj_cooja/mtype782.a(rpl-timers.o)
                                        0x573 (size before relaxing)
 .debug_str     0x0000000000005a66       0xb4 obj_cooja/mtype782.a(rpl-mrhof.o)
                                        0x59d (size before relaxing)
 .debug_str     0x0000000000005b1a      0x10b obj_cooja/mtype782.a(rpl-ext-header.)
                                        0x6ee (size before relaxing)
 .debug_str     0x0000000000005c25       0x26 obj_cooja/mtype782.a(timer.o)
                                        0x134 (size before relaxing)
 .debug_str     0x0000000000005c4b       0xb0 obj_cooja/mtype782.a(rtimer.o)
                                        0x18c (size before relaxing)
 .debug_str     0x0000000000005cfb       0x7d obj_cooja/mtype782.a(stimer.o)
                                        0x138 (size before relaxing)
 .debug_str     0x0000000000005d78      0x25b obj_cooja/mtype782.a(nbr-table.o)
                                        0x3c9 (size before relaxing)
 .debug_str     0x0000000000005fd3       0x9b obj_cooja/mtype782.a(uip-icmp6.o)
                                        0x355 (size before relaxing)

.debug_loc      0x0000000000000000     0x71e0
 *(.debug_loc)
 .debug_loc     0x0000000000000000       0x70 jammer.co
 .debug_loc     0x0000000000000070      0x218 obj_cooja/mtype782.o
 .debug_loc     0x0000000000000288       0xa8 obj_cooja/mtype782.a(rimeaddr.o)
 .debug_loc     0x0000000000000330      0x2a0 obj_cooja/mtype782.a(nullrdc.o)
 .debug_loc     0x00000000000005d0       0x38 obj_cooja/mtype782.a(mac.o)
 .debug_loc     0x0000000000000608      0x188 obj_cooja/mtype782.a(framer-802154.o)
 .debug_loc     0x0000000000000790      0x310 obj_cooja/mtype782.a(csma.o)
 .debug_loc     0x0000000000000aa0      0x310 obj_cooja/mtype782.a(process.o)
 .debug_loc     0x0000000000000db0       0x70 obj_cooja/mtype782.a(autostart.o)
 .debug_loc     0x0000000000000e20       0xa8 obj_cooja/mtype782.a(serial-line.o)
 .debug_loc     0x0000000000000ec8       0xe0 obj_cooja/mtype782.a(memb.o)
 .debug_loc     0x0000000000000fa8      0x2a0 obj_cooja/mtype782.a(list.o)
 .debug_loc     0x0000000000001248      0x310 obj_cooja/mtype782.a(etimer.o)
 .debug_loc     0x0000000000001558      0x188 obj_cooja/mtype782.a(ctimer.o)
 .debug_loc     0x00000000000016e0       0x70 obj_cooja/mtype782.a(random.o)
 .debug_loc     0x0000000000001750      0x118 obj_cooja/mtype782.a(ringbuf.o)
 .debug_loc     0x0000000000001868       0x38 obj_cooja/mtype782.a(netstack.o)
 .debug_loc     0x00000000000018a0      0x498 obj_cooja/mtype782.a(packetbuf.o)
 .debug_loc     0x0000000000001d38      0x268 obj_cooja/mtype782.a(queuebuf.o)
 .debug_loc     0x0000000000001fa0      0x3f0 obj_cooja/mtype782.a(sicslowpan.o)
 .debug_loc     0x0000000000002390      0x150 obj_cooja/mtype782.a(simple-udp.o)
 .debug_loc     0x00000000000024e0      0x428 obj_cooja/mtype782.a(tcpip.o)
 .debug_loc     0x0000000000002908      0x460 obj_cooja/mtype782.a(uip-ds6-route.o)
 .debug_loc     0x0000000000002d68      0x310 obj_cooja/mtype782.a(uip-ds6-nbr.o)
 .debug_loc     0x0000000000003078      0x4d0 obj_cooja/mtype782.a(uip-ds6.o)
 .debug_loc     0x0000000000003548       0xe0 obj_cooja/mtype782.a(uip-nd6.o)
 .debug_loc     0x0000000000003628      0x188 obj_cooja/mtype782.a(uip-packetqueue)
 .debug_loc     0x00000000000037b0       0x70 obj_cooja/mtype782.a(uip-udp-packet.)
 .debug_loc     0x0000000000003820      0x428 obj_cooja/mtype782.a(uip6.o)
 .debug_loc     0x0000000000003c48       0x70 obj_cooja/mtype782.a(simEnvChange.o)
 .debug_loc     0x0000000000003cb8      0x150 obj_cooja/mtype782.a(cooja_mt.o)
 .debug_loc     0x0000000000003e08      0x1f8 obj_cooja/mtype782.a(cooja_mtarch.o)
 .debug_loc     0x0000000000004000      0x150 obj_cooja/mtype782.a(rtimer-arch.o)
 .debug_loc     0x0000000000004150      0x118 obj_cooja/mtype782.a(watchdog.o)
 .debug_loc     0x0000000000004268      0x268 obj_cooja/mtype782.a(beep.o)
 .debug_loc     0x00000000000044d0      0x118 obj_cooja/mtype782.a(button-sensor.o)
 .debug_loc     0x00000000000045e8      0x118 obj_cooja/mtype782.a(leds-arch.o)
 .debug_loc     0x0000000000004700       0x70 obj_cooja/mtype782.a(moteid.o)
 .debug_loc     0x0000000000004770      0x118 obj_cooja/mtype782.a(pir-sensor.o)
 .debug_loc     0x0000000000004888      0x1c0 obj_cooja/mtype782.a(rs232.o)
 .debug_loc     0x0000000000004a48      0x118 obj_cooja/mtype782.a(vib-sensor.o)
 .debug_loc     0x0000000000004b60      0x150 obj_cooja/mtype782.a(clock.o)
 .debug_loc     0x0000000000004cb0      0x1f8 obj_cooja/mtype782.a(log.o)
 .debug_loc     0x0000000000004ea8      0x268 obj_cooja/mtype782.a(cfs-cooja.o)
 .debug_loc     0x0000000000005110      0x3b8 obj_cooja/mtype782.a(cooja-radio.o)
 .debug_loc     0x00000000000054c8      0x150 obj_cooja/mtype782.a(sensors.o)
 .debug_loc     0x0000000000005618      0x118 obj_cooja/mtype782.a(frame802154.o)
 .debug_loc     0x0000000000005730      0x188 obj_cooja/mtype782.a(rpl.o)
 .debug_loc     0x00000000000058b8      0x930 obj_cooja/mtype782.a(rpl-dag.o)
 .debug_loc     0x00000000000061e8      0x380 obj_cooja/mtype782.a(rpl-icmp6.o)
 .debug_loc     0x0000000000006568      0x188 obj_cooja/mtype782.a(rpl-timers.o)
 .debug_loc     0x00000000000066f0      0x188 obj_cooja/mtype782.a(rpl-mrhof.o)
 .debug_loc     0x0000000000006878      0x188 obj_cooja/mtype782.a(rpl-ext-header.)
 .debug_loc     0x0000000000006a00      0x118 obj_cooja/mtype782.a(timer.o)
 .debug_loc     0x0000000000006b18       0xa8 obj_cooja/mtype782.a(rtimer.o)
 .debug_loc     0x0000000000006bc0      0x150 obj_cooja/mtype782.a(stimer.o)
 .debug_loc     0x0000000000006d10      0x428 obj_cooja/mtype782.a(nbr-table.o)
 .debug_loc     0x0000000000007138       0xa8 obj_cooja/mtype782.a(uip-icmp6.o)

.debug_macinfo
 *(.debug_macinfo)

.debug_weaknames
 *(.debug_weaknames)

.debug_funcnames
 *(.debug_funcnames)

.debug_typenames
 *(.debug_typenames)

.debug_varnames
 *(.debug_varnames)

.debug_pubtypes
 *(.debug_pubtypes)

.debug_ranges   0x0000000000000000     0x1350
 *(.debug_ranges)
 .debug_ranges  0x0000000000000000       0x18 jammer.co
 .debug_ranges  0x0000000000000018       0x58 obj_cooja/mtype782.o
 .debug_ranges  0x0000000000000070       0x20 obj_cooja/mtype782.a(rimeaddr.o)
 .debug_ranges  0x0000000000000090       0xb0 obj_cooja/mtype782.a(nullrdc.o)
 .debug_ranges  0x0000000000000140       0x10 obj_cooja/mtype782.a(mac.o)
 .debug_ranges  0x0000000000000150       0x40 obj_cooja/mtype782.a(framer-802154.o)
 .debug_ranges  0x0000000000000190       0x90 obj_cooja/mtype782.a(csma.o)
 .debug_ranges  0x0000000000000220       0x78 obj_cooja/mtype782.a(process.o)
 .debug_ranges  0x0000000000000298       0x18 obj_cooja/mtype782.a(autostart.o)
 .debug_ranges  0x00000000000002b0       0x38 obj_cooja/mtype782.a(serial-line.o)
 .debug_ranges  0x00000000000002e8       0x28 obj_cooja/mtype782.a(memb.o)
 .debug_ranges  0x0000000000000310       0x68 obj_cooja/mtype782.a(list.o)
 .debug_ranges  0x0000000000000378       0x90 obj_cooja/mtype782.a(etimer.o)
 .debug_ranges  0x0000000000000408       0x40 obj_cooja/mtype782.a(ctimer.o)
 .debug_ranges  0x0000000000000448       0x18 obj_cooja/mtype782.a(random.o)
 .debug_ranges  0x0000000000000460       0x30 obj_cooja/mtype782.a(ringbuf.o)
 .debug_ranges  0x0000000000000490       0x10 obj_cooja/mtype782.a(netstack.o)
 .debug_ranges  0x00000000000004a0       0xb0 obj_cooja/mtype782.a(packetbuf.o)
 .debug_ranges  0x0000000000000550       0x60 obj_cooja/mtype782.a(queuebuf.o)
 .debug_ranges  0x00000000000005b0       0xe0 obj_cooja/mtype782.a(sicslowpan.o)
 .debug_ranges  0x0000000000000690       0x38 obj_cooja/mtype782.a(simple-udp.o)
 .debug_ranges  0x00000000000006c8       0xa0 obj_cooja/mtype782.a(tcpip.o)
 .debug_ranges  0x0000000000000768       0xa8 obj_cooja/mtype782.a(uip-ds6-route.o)
 .debug_ranges  0x0000000000000810       0x78 obj_cooja/mtype782.a(uip-ds6-nbr.o)
 .debug_ranges  0x0000000000000888       0xb8 obj_cooja/mtype782.a(uip-ds6.o)
 .debug_ranges  0x0000000000000940       0x58 obj_cooja/mtype782.a(uip-nd6.o)
 .debug_ranges  0x0000000000000998       0x40 obj_cooja/mtype782.a(uip-packetqueue)
 .debug_ranges  0x00000000000009d8       0x18 obj_cooja/mtype782.a(uip-udp-packet.)
 .debug_ranges  0x00000000000009f0       0xa0 obj_cooja/mtype782.a(uip6.o)
 .debug_ranges  0x0000000000000a90       0x18 obj_cooja/mtype782.a(simEnvChange.o)
 .debug_ranges  0x0000000000000aa8       0x38 obj_cooja/mtype782.a(cooja_mt.o)
 .debug_ranges  0x0000000000000ae0       0x50 obj_cooja/mtype782.a(cooja_mtarch.o)
 .debug_ranges  0x0000000000000b30       0x38 obj_cooja/mtype782.a(rtimer-arch.o)
 .debug_ranges  0x0000000000000b68       0x30 obj_cooja/mtype782.a(watchdog.o)
 .debug_ranges  0x0000000000000b98       0x60 obj_cooja/mtype782.a(beep.o)
 .debug_ranges  0x0000000000000bf8       0x30 obj_cooja/mtype782.a(button-sensor.o)
 .debug_ranges  0x0000000000000c28       0x30 obj_cooja/mtype782.a(leds-arch.o)
 .debug_ranges  0x0000000000000c58       0x18 obj_cooja/mtype782.a(moteid.o)
 .debug_ranges  0x0000000000000c70       0x30 obj_cooja/mtype782.a(pir-sensor.o)
 .debug_ranges  0x0000000000000ca0       0x48 obj_cooja/mtype782.a(rs232.o)
 .debug_ranges  0x0000000000000ce8       0x30 obj_cooja/mtype782.a(vib-sensor.o)
 .debug_ranges  0x0000000000000d18       0x38 obj_cooja/mtype782.a(clock.o)
 .debug_ranges  0x0000000000000d50       0x50 obj_cooja/mtype782.a(log.o)
 .debug_ranges  0x0000000000000da0       0x60 obj_cooja/mtype782.a(cfs-cooja.o)
 .debug_ranges  0x0000000000000e00       0x90 obj_cooja/mtype782.a(cooja-radio.o)
 .debug_ranges  0x0000000000000e90       0x38 obj_cooja/mtype782.a(sensors.o)
 .debug_ranges  0x0000000000000ec8       0x30 obj_cooja/mtype782.a(frame802154.o)
 .debug_ranges  0x0000000000000ef8       0x40 obj_cooja/mtype782.a(rpl.o)
 .debug_ranges  0x0000000000000f38      0x158 obj_cooja/mtype782.a(rpl-dag.o)
 .debug_ranges  0x0000000000001090       0x88 obj_cooja/mtype782.a(rpl-icmp6.o)
 .debug_ranges  0x0000000000001118       0x40 obj_cooja/mtype782.a(rpl-timers.o)
 .debug_ranges  0x0000000000001158       0x40 obj_cooja/mtype782.a(rpl-mrhof.o)
 .debug_ranges  0x0000000000001198       0x40 obj_cooja/mtype782.a(rpl-ext-header.)
 .debug_ranges  0x00000000000011d8       0x30 obj_cooja/mtype782.a(timer.o)
 .debug_ranges  0x0000000000001208       0x20 obj_cooja/mtype782.a(rtimer.o)
 .debug_ranges  0x0000000000001228       0x38 obj_cooja/mtype782.a(stimer.o)
 .debug_ranges  0x0000000000001260       0xd0 obj_cooja/mtype782.a(nbr-table.o)
 .debug_ranges  0x0000000000001330       0x20 obj_cooja/mtype782.a(uip-icmp6.o)

.gnu.attributes
 *(.gnu.attributes)

/DISCARD/
 *(.note.GNU-stack)
 *(.gnu_debuglink)
 *(.gnu.lto_*)
OUTPUT(obj_cooja/mtype782.cooja elf32-i386)
