Archive member included because of file (symbol)

obj_cooja/mtype263.a(rimeaddr.o)
                              obj_cooja/mtype263.o (rimeaddr_node_addr)
obj_cooja/mtype263.a(nullrdc.o)
                              obj_cooja/mtype263.o (nullrdc_driver)
obj_cooja/mtype263.a(mac.o)   obj_cooja/mtype263.a(nullrdc.o) (mac_call_sent_callback)
obj_cooja/mtype263.a(framer-802154.o)
                              obj_cooja/mtype263.a(nullrdc.o) (framer_802154)
obj_cooja/mtype263.a(csma.o)  obj_cooja/mtype263.o (csma_driver)
obj_cooja/mtype263.a(process.o)
                              obj_cooja/mtype263.o (process_start)
obj_cooja/mtype263.a(autostart.o)
                              obj_cooja/mtype263.o (autostart_start)
obj_cooja/mtype263.a(serial-line.o)
                              obj_cooja/mtype263.o (serial_line_init)
obj_cooja/mtype263.a(memb.o)  obj_cooja/mtype263.a(csma.o) (memb_init)
obj_cooja/mtype263.a(list.o)  obj_cooja/mtype263.a(csma.o) (list_init)
obj_cooja/mtype263.a(etimer.o)
                              obj_cooja/mtype263.o (etimer_process)
obj_cooja/mtype263.a(ctimer.o)
                              obj_cooja/mtype263.o (ctimer_init)
obj_cooja/mtype263.a(energest.o)
                              room-controller.co (energest_type_time)
obj_cooja/mtype263.a(random.o)
                              room-controller.co (random_rand)
obj_cooja/mtype263.a(ringbuf.o)
                              obj_cooja/mtype263.a(serial-line.o) (ringbuf_init)
obj_cooja/mtype263.a(netstack.o)
                              obj_cooja/mtype263.o (netstack_init)
obj_cooja/mtype263.a(packetbuf.o)
                              obj_cooja/mtype263.a(nullrdc.o) (packetbuf_attrs)
obj_cooja/mtype263.a(queuebuf.o)
                              obj_cooja/mtype263.o (queuebuf_init)
obj_cooja/mtype263.a(sicslowpan.o)
                              obj_cooja/mtype263.o (sicslowpan_driver)
obj_cooja/mtype263.a(simple-udp.o)
                              room-controller.co (simple_udp_sendto)
obj_cooja/mtype263.a(tcpip.o)
                              obj_cooja/mtype263.a(simple-udp.o) (tcpip_event)
obj_cooja/mtype263.a(uip-ds6-route.o)
                              obj_cooja/mtype263.a(tcpip.o) (uip_ds6_route_nexthop)
obj_cooja/mtype263.a(uip-ds6-nbr.o)
                              obj_cooja/mtype263.a(tcpip.o) (uip_ds6_nbr_add)
obj_cooja/mtype263.a(uip-ds6.o)
                              obj_cooja/mtype263.a(tcpip.o) (uip_ds6_timer_periodic)
obj_cooja/mtype263.a(uip-nd6.o)
                              obj_cooja/mtype263.a(tcpip.o) (uip_nd6_ns_output)
obj_cooja/mtype263.a(uip-packetqueue)
                              obj_cooja/mtype263.a(uip-ds6-nbr.o) (uip_packetqueue_new)
obj_cooja/mtype263.a(uip-udp-packet.)
                              obj_cooja/mtype263.a(simple-udp.o) (uip_udp_packet_sendto)
obj_cooja/mtype263.a(uip6.o)  obj_cooja/mtype263.o (uip_lladdr)
obj_cooja/mtype263.a(simEnvChange.o)
                              obj_cooja/mtype263.o (simDontFallAsleep)
obj_cooja/mtype263.a(cooja_mt.o)
                              obj_cooja/mtype263.o (cooja_mt_start)
obj_cooja/mtype263.a(cooja_mtarch.o)
                              obj_cooja/mtype263.a(cooja_mt.o) (cooja_mtarch_init)
obj_cooja/mtype263.a(rtimer-arch.o)
                              obj_cooja/mtype263.o (rtimer_arch_next)
obj_cooja/mtype263.a(watchdog.o)
                              obj_cooja/mtype263.a(nullrdc.o) (watchdog_periodic)
obj_cooja/mtype263.a(beep.o)  obj_cooja/mtype263.o (beep_interface)
obj_cooja/mtype263.a(button-sensor.o)
                              obj_cooja/mtype263.o (button_interface)
obj_cooja/mtype263.a(leds-arch.o)
                              obj_cooja/mtype263.o (leds_interface)
obj_cooja/mtype263.a(moteid.o)
                              obj_cooja/mtype263.o (moteid_interface)
obj_cooja/mtype263.a(pir-sensor.o)
                              obj_cooja/mtype263.o (pir_interface)
obj_cooja/mtype263.a(rs232.o)
                              obj_cooja/mtype263.o (rs232_interface)
obj_cooja/mtype263.a(vib-sensor.o)
                              obj_cooja/mtype263.o (vib_interface)
obj_cooja/mtype263.a(clock.o)
                              obj_cooja/mtype263.o (clock_interface)
obj_cooja/mtype263.a(log.o)   obj_cooja/mtype263.o (simlog_interface)
obj_cooja/mtype263.a(cfs-cooja.o)
                              obj_cooja/mtype263.o (cfs_interface)
obj_cooja/mtype263.a(cooja-radio.o)
                              obj_cooja/mtype263.o (radio_interface)
obj_cooja/mtype263.a(sensors.o)
                              room-controller.co (sensors_event)
obj_cooja/mtype263.a(rimestats.o)
                              obj_cooja/mtype263.a(nullrdc.o) (rimestats)
obj_cooja/mtype263.a(frame802154.o)
                              obj_cooja/mtype263.a(framer-802154.o) (frame802154_hdrlen)
obj_cooja/mtype263.a(rpl.o)   obj_cooja/mtype263.a(uip-ds6-nbr.o) (rpl_link_neighbor_callback)
obj_cooja/mtype263.a(rpl-dag.o)
                              obj_cooja/mtype263.a(rpl.o) (instance_table)
obj_cooja/mtype263.a(rpl-icmp6.o)
                              obj_cooja/mtype263.a(rpl-dag.o) (dao_output)
obj_cooja/mtype263.a(rpl-timers.o)
                              obj_cooja/mtype263.a(rpl.o) (rpl_reset_periodic_timer)
obj_cooja/mtype263.a(rpl-mrhof.o)
                              obj_cooja/mtype263.a(rpl-dag.o) (rpl_mrhof)
obj_cooja/mtype263.a(rpl-ext-header.)
                              obj_cooja/mtype263.a(uip6.o) (rpl_verify_header)
obj_cooja/mtype263.a(timer.o)
                              obj_cooja/mtype263.a(etimer.o) (timer_set)
obj_cooja/mtype263.a(rtimer.o)
                              obj_cooja/mtype263.a(rtimer-arch.o) (rtimer_run_next)
obj_cooja/mtype263.a(stimer.o)
                              obj_cooja/mtype263.a(tcpip.o) (stimer_set)
obj_cooja/mtype263.a(nbr-table.o)
                              obj_cooja/mtype263.a(uip-ds6-route.o) (nbr_table_register)
obj_cooja/mtype263.a(uip-icmp6.o)
                              obj_cooja/mtype263.a(uip6.o) (uip_icmp6_echo_request_input)

Allocating common symbols
Common symbol       size              file

default_instance    0x4               obj_cooja/mtype263.a(rpl-dag.o)
simButtonIsActive   0x1               obj_cooja/mtype263.a(button-sensor.o)
simButtonIsDown     0x1               obj_cooja/mtype263.a(button-sensor.o)
simOutDataBuffer    0x80              obj_cooja/mtype263.a(cooja-radio.o)
uip_ds6_prefix_list
                    0x60              obj_cooja/mtype263.a(uip-ds6.o)
simSerialReceivingFlag
                    0x1               obj_cooja/mtype263.a(rs232.o)
simLoggedLength     0x4               obj_cooja/mtype263.a(log.o)
simSerialReceivingLength
                    0x4               obj_cooja/mtype263.a(rs232.o)
simEtimerPending    0x4               obj_cooja/mtype263.a(simEnvChange.o)
uip_slen            0x2               obj_cooja/mtype263.a(uip6.o)
uip_ds6_timer_periodic
                    0x10              obj_cooja/mtype263.a(uip-ds6.o)
uip_acc32           0x4               obj_cooja/mtype263.a(uip6.o)
uip_conns           0xc0              obj_cooja/mtype263.a(uip6.o)
simVibChanged       0x1               obj_cooja/mtype263.a(vib-sensor.o)
rimestats           0x48              obj_cooja/mtype263.a(rimestats.o)
uip_ds6_netif_addr_list_offset
                    0x1               obj_cooja/mtype263.a(uip-ds6.o)
uip_lladdr          0x8               obj_cooja/mtype263.a(uip6.o)
instance_table      0xf4              obj_cooja/mtype263.a(rpl-dag.o)
simProcessRunValue  0x4               obj_cooja/mtype263.a(simEnvChange.o)
serial_line_event_message
                    0x1               obj_cooja/mtype263.a(serial-line.o)
uip_appdata         0x4               obj_cooja/mtype263.a(uip6.o)
referenceVar        0x4               obj_cooja/mtype263.o
simCurrentTime      0x4               obj_cooja/mtype263.a(clock.o)
simVibIsActive      0x1               obj_cooja/mtype263.a(vib-sensor.o)
simNextExpirationTime
                    0x4               obj_cooja/mtype263.a(simEnvChange.o)
uip_ds6_if          0xf8              obj_cooja/mtype263.a(uip-ds6.o)
uip_flags           0x1               obj_cooja/mtype263.a(uip6.o)
uip_ds6_timer_ra    0x8               obj_cooja/mtype263.a(uip-ds6.o)
simSerialReceivingData
                    0x400             obj_cooja/mtype263.a(rs232.o)
simLoggedFlag       0x1               obj_cooja/mtype263.a(log.o)
packetbuf_attrs     0x30              obj_cooja/mtype263.a(packetbuf.o)
uip_ds6_addr_size   0x1               obj_cooja/mtype263.a(uip-ds6.o)
uip_aligned_buf     0xf0              obj_cooja/mtype263.a(uip6.o)
simRandomSeed       0x4               obj_cooja/mtype263.a(moteid.o)
simLoggedData       0x400             obj_cooja/mtype263.a(log.o)
simLedsValue        0x1               obj_cooja/mtype263.a(leds-arch.o)
uip_listenports     0x10              obj_cooja/mtype263.a(uip6.o)
uip_len             0x2               obj_cooja/mtype263.a(uip6.o)
simButtonChanged    0x1               obj_cooja/mtype263.a(button-sensor.o)
simPirIsActive      0x1               obj_cooja/mtype263.a(pir-sensor.o)
simInDataBuffer     0x80              obj_cooja/mtype263.a(cooja-radio.o)
simPirChanged       0x1               obj_cooja/mtype263.a(pir-sensor.o)
simBeeped           0x1               obj_cooja/mtype263.a(beep.o)
tcpip_event         0x1               obj_cooja/mtype263.a(tcpip.o)
uip_sappdata        0x4               obj_cooja/mtype263.a(uip6.o)
sensors_event       0x1               obj_cooja/mtype263.a(sensors.o)
uip_udp_conns       0x180             obj_cooja/mtype263.a(uip6.o)
rimeaddr_node_addr  0x8               obj_cooja/mtype263.a(rimeaddr.o)
frag_sender         0x8               obj_cooja/mtype263.a(sicslowpan.o)
packetbuf_addrs     0x20              obj_cooja/mtype263.a(packetbuf.o)
uip_udp_conn        0x4               obj_cooja/mtype263.a(uip6.o)
simMoteIDChanged    0x1               obj_cooja/mtype263.a(moteid.o)
sensors_flags       0x4               obj_cooja/mtype263.o
uip_next_hdr        0x4               obj_cooja/mtype263.a(uip6.o)
simMoteID           0x4               obj_cooja/mtype263.a(moteid.o)
uip_conn            0x4               obj_cooja/mtype263.a(uip6.o)

Discarded input sections

 .note.GNU-stack
                0x0000000000000000        0x0 /usr/lib/gcc/i686-linux-gnu/4.6/../../../i386-linux-gnu/crti.o
 .gnu_debuglink
                0x0000000000000000        0xc /usr/lib/gcc/i686-linux-gnu/4.6/../../../i386-linux-gnu/crti.o
 .group         0x0000000000000000        0x8 /usr/lib/gcc/i686-linux-gnu/4.6/crtbeginS.o
 .note.GNU-stack
                0x0000000000000000        0x0 /usr/lib/gcc/i686-linux-gnu/4.6/crtbeginS.o
 .note.GNU-stack
                0x0000000000000000        0x0 room-controller.co
 .note.GNU-stack
                0x0000000000000000        0x0 obj_cooja/mtype263.o
 .note.GNU-stack
                0x0000000000000000        0x0 obj_cooja/mtype263.a(rimeaddr.o)
 .note.GNU-stack
                0x0000000000000000        0x0 obj_cooja/mtype263.a(nullrdc.o)
 .note.GNU-stack
                0x0000000000000000        0x0 obj_cooja/mtype263.a(mac.o)
 .note.GNU-stack
                0x0000000000000000        0x0 obj_cooja/mtype263.a(framer-802154.o)
 .note.GNU-stack
                0x0000000000000000        0x0 obj_cooja/mtype263.a(csma.o)
 .note.GNU-stack
                0x0000000000000000        0x0 obj_cooja/mtype263.a(process.o)
 .note.GNU-stack
                0x0000000000000000        0x0 obj_cooja/mtype263.a(autostart.o)
 .note.GNU-stack
                0x0000000000000000        0x0 obj_cooja/mtype263.a(serial-line.o)
 .note.GNU-stack
                0x0000000000000000        0x0 obj_cooja/mtype263.a(memb.o)
 .note.GNU-stack
                0x0000000000000000        0x0 obj_cooja/mtype263.a(list.o)
 .note.GNU-stack
                0x0000000000000000        0x0 obj_cooja/mtype263.a(etimer.o)
 .note.GNU-stack
                0x0000000000000000        0x0 obj_cooja/mtype263.a(ctimer.o)
 .note.GNU-stack
                0x0000000000000000        0x0 obj_cooja/mtype263.a(energest.o)
 .note.GNU-stack
                0x0000000000000000        0x0 obj_cooja/mtype263.a(random.o)
 .note.GNU-stack
                0x0000000000000000        0x0 obj_cooja/mtype263.a(ringbuf.o)
 .note.GNU-stack
                0x0000000000000000        0x0 obj_cooja/mtype263.a(netstack.o)
 .note.GNU-stack
                0x0000000000000000        0x0 obj_cooja/mtype263.a(packetbuf.o)
 .note.GNU-stack
                0x0000000000000000        0x0 obj_cooja/mtype263.a(queuebuf.o)
 .note.GNU-stack
                0x0000000000000000        0x0 obj_cooja/mtype263.a(sicslowpan.o)
 .note.GNU-stack
                0x0000000000000000        0x0 obj_cooja/mtype263.a(simple-udp.o)
 .note.GNU-stack
                0x0000000000000000        0x0 obj_cooja/mtype263.a(tcpip.o)
 .note.GNU-stack
                0x0000000000000000        0x0 obj_cooja/mtype263.a(uip-ds6-route.o)
 .note.GNU-stack
                0x0000000000000000        0x0 obj_cooja/mtype263.a(uip-ds6-nbr.o)
 .note.GNU-stack
                0x0000000000000000        0x0 obj_cooja/mtype263.a(uip-ds6.o)
 .note.GNU-stack
                0x0000000000000000        0x0 obj_cooja/mtype263.a(uip-nd6.o)
 .note.GNU-stack
                0x0000000000000000        0x0 obj_cooja/mtype263.a(uip-packetqueue)
 .note.GNU-stack
                0x0000000000000000        0x0 obj_cooja/mtype263.a(uip-udp-packet.)
 .note.GNU-stack
                0x0000000000000000        0x0 obj_cooja/mtype263.a(uip6.o)
 .note.GNU-stack
                0x0000000000000000        0x0 obj_cooja/mtype263.a(simEnvChange.o)
 .note.GNU-stack
                0x0000000000000000        0x0 obj_cooja/mtype263.a(cooja_mt.o)
 .note.GNU-stack
                0x0000000000000000        0x0 obj_cooja/mtype263.a(cooja_mtarch.o)
 .note.GNU-stack
                0x0000000000000000        0x0 obj_cooja/mtype263.a(rtimer-arch.o)
 .note.GNU-stack
                0x0000000000000000        0x0 obj_cooja/mtype263.a(watchdog.o)
 .note.GNU-stack
                0x0000000000000000        0x0 obj_cooja/mtype263.a(beep.o)
 .note.GNU-stack
                0x0000000000000000        0x0 obj_cooja/mtype263.a(button-sensor.o)
 .note.GNU-stack
                0x0000000000000000        0x0 obj_cooja/mtype263.a(leds-arch.o)
 .note.GNU-stack
                0x0000000000000000        0x0 obj_cooja/mtype263.a(moteid.o)
 .note.GNU-stack
                0x0000000000000000        0x0 obj_cooja/mtype263.a(pir-sensor.o)
 .note.GNU-stack
                0x0000000000000000        0x0 obj_cooja/mtype263.a(rs232.o)
 .note.GNU-stack
                0x0000000000000000        0x0 obj_cooja/mtype263.a(vib-sensor.o)
 .note.GNU-stack
                0x0000000000000000        0x0 obj_cooja/mtype263.a(clock.o)
 .note.GNU-stack
                0x0000000000000000        0x0 obj_cooja/mtype263.a(log.o)
 .note.GNU-stack
                0x0000000000000000        0x0 obj_cooja/mtype263.a(cfs-cooja.o)
 .note.GNU-stack
                0x0000000000000000        0x0 obj_cooja/mtype263.a(cooja-radio.o)
 .note.GNU-stack
                0x0000000000000000        0x0 obj_cooja/mtype263.a(sensors.o)
 .note.GNU-stack
                0x0000000000000000        0x0 obj_cooja/mtype263.a(rimestats.o)
 .note.GNU-stack
                0x0000000000000000        0x0 obj_cooja/mtype263.a(frame802154.o)
 .note.GNU-stack
                0x0000000000000000        0x0 obj_cooja/mtype263.a(rpl.o)
 .note.GNU-stack
                0x0000000000000000        0x0 obj_cooja/mtype263.a(rpl-dag.o)
 .note.GNU-stack
                0x0000000000000000        0x0 obj_cooja/mtype263.a(rpl-icmp6.o)
 .note.GNU-stack
                0x0000000000000000        0x0 obj_cooja/mtype263.a(rpl-timers.o)
 .note.GNU-stack
                0x0000000000000000        0x0 obj_cooja/mtype263.a(rpl-mrhof.o)
 .note.GNU-stack
                0x0000000000000000        0x0 obj_cooja/mtype263.a(rpl-ext-header.)
 .note.GNU-stack
                0x0000000000000000        0x0 obj_cooja/mtype263.a(timer.o)
 .note.GNU-stack
                0x0000000000000000        0x0 obj_cooja/mtype263.a(rtimer.o)
 .note.GNU-stack
                0x0000000000000000        0x0 obj_cooja/mtype263.a(stimer.o)
 .note.GNU-stack
                0x0000000000000000        0x0 obj_cooja/mtype263.a(nbr-table.o)
 .note.GNU-stack
                0x0000000000000000        0x0 obj_cooja/mtype263.a(uip-icmp6.o)
 .group         0x0000000000000000        0x8 /usr/lib/gcc/i686-linux-gnu/4.6/crtendS.o
 .text.__i686.get_pc_thunk.bx
                0x0000000000000000        0x4 /usr/lib/gcc/i686-linux-gnu/4.6/crtendS.o
 .note.GNU-stack
                0x0000000000000000        0x0 /usr/lib/gcc/i686-linux-gnu/4.6/crtendS.o
 .note.GNU-stack
                0x0000000000000000        0x0 /usr/lib/gcc/i686-linux-gnu/4.6/../../../i386-linux-gnu/crtn.o
 .gnu_debuglink
                0x0000000000000000        0xc /usr/lib/gcc/i686-linux-gnu/4.6/../../../i386-linux-gnu/crtn.o

Memory Configuration

Name             Origin             Length             Attributes
*default*        0x0000000000000000 0xffffffffffffffff

Linker script and memory map

LOAD /usr/lib/gcc/i686-linux-gnu/4.6/../../../i386-linux-gnu/crti.o
LOAD /usr/lib/gcc/i686-linux-gnu/4.6/crtbeginS.o
LOAD room-controller.co
LOAD obj_cooja/mtype263.o
LOAD obj_cooja/mtype263.a
LOAD /usr/lib/gcc/i686-linux-gnu/4.6/libgcc.a
LOAD /usr/lib/gcc/i686-linux-gnu/4.6/libgcc_s.so
LOAD /usr/lib/gcc/i686-linux-gnu/4.6/../../../i386-linux-gnu/libc.so
START GROUP
LOAD /lib/i386-linux-gnu/libc.so.6
LOAD /usr/lib/i386-linux-gnu/libc_nonshared.a
LOAD /lib/i386-linux-gnu/ld-linux.so.2
END GROUP
LOAD /usr/lib/gcc/i686-linux-gnu/4.6/libgcc.a
LOAD /usr/lib/gcc/i686-linux-gnu/4.6/libgcc_s.so
LOAD /usr/lib/gcc/i686-linux-gnu/4.6/crtendS.o
LOAD /usr/lib/gcc/i686-linux-gnu/4.6/../../../i386-linux-gnu/crtn.o
                0x0000000000000114                . = (0x0 + SIZEOF_HEADERS)

.note.gnu.build-id
                0x0000000000000114       0x24
 *(.note.gnu.build-id)
 .note.gnu.build-id
                0x0000000000000114       0x24 /usr/lib/gcc/i686-linux-gnu/4.6/../../../i386-linux-gnu/crti.o

.hash
 *(.hash)

.gnu.hash       0x0000000000000138      0xd88
 *(.gnu.hash)
 .gnu.hash      0x0000000000000138      0xd88 /usr/lib/gcc/i686-linux-gnu/4.6/../../../i386-linux-gnu/crti.o

.dynsym         0x0000000000000ec0     0x1e40
 *(.dynsym)
 .dynsym        0x0000000000000ec0     0x1e40 /usr/lib/gcc/i686-linux-gnu/4.6/../../../i386-linux-gnu/crti.o

.dynstr         0x0000000000002d00     0x1e8b
 *(.dynstr)
 .dynstr        0x0000000000002d00     0x1e8b /usr/lib/gcc/i686-linux-gnu/4.6/../../../i386-linux-gnu/crti.o

.gnu.version    0x0000000000004b8c      0x3c8
 *(.gnu.version)
 .gnu.version   0x0000000000004b8c      0x3c8 /usr/lib/gcc/i686-linux-gnu/4.6/../../../i386-linux-gnu/crti.o

.gnu.version_d  0x0000000000004f54        0x0
 *(.gnu.version_d)
 .gnu.version_d
                0x0000000000000000        0x0 /usr/lib/gcc/i686-linux-gnu/4.6/../../../i386-linux-gnu/crti.o

.gnu.version_r  0x0000000000004f54       0x40
 *(.gnu.version_r)
 .gnu.version_r
                0x0000000000004f54       0x40 /usr/lib/gcc/i686-linux-gnu/4.6/../../../i386-linux-gnu/crti.o

.rel.dyn        0x0000000000004f94     0x8040
 *(.rel.init)
 *(.rel.text .rel.text.* .rel.gnu.linkonce.t.*)
 .rel.text      0x0000000000000000        0x0 /usr/lib/gcc/i686-linux-gnu/4.6/../../../i386-linux-gnu/crti.o
 .rel.text.receiver
                0x0000000000004f94       0x28 /usr/lib/gcc/i686-linux-gnu/4.6/../../../i386-linux-gnu/crti.o
 .rel.text.process_thread_broadcast_process
                0x0000000000004fbc      0x2b8 /usr/lib/gcc/i686-linux-gnu/4.6/../../../i386-linux-gnu/crti.o
 .rel.text.print_processes
                0x0000000000005274       0x28 /usr/lib/gcc/i686-linux-gnu/4.6/../../../i386-linux-gnu/crti.o
 .rel.text.rtimer_thread_loop
                0x000000000000529c       0x10 /usr/lib/gcc/i686-linux-gnu/4.6/../../../i386-linux-gnu/crti.o
 .rel.text.set_rime_addr
                0x00000000000052ac       0x50 /usr/lib/gcc/i686-linux-gnu/4.6/../../../i386-linux-gnu/crti.o
 .rel.text.contiki_init
                0x00000000000052fc      0x1d0 /usr/lib/gcc/i686-linux-gnu/4.6/../../../i386-linux-gnu/crti.o
 .rel.text.process_run_thread_loop
                0x00000000000054cc       0x70 /usr/lib/gcc/i686-linux-gnu/4.6/../../../i386-linux-gnu/crti.o
 .rel.text.Java_se_sics_cooja_corecomm_Lib205_init
                0x000000000000553c       0x30 /usr/lib/gcc/i686-linux-gnu/4.6/../../../i386-linux-gnu/crti.o
 .rel.text.Java_se_sics_cooja_corecomm_Lib205_getMemory
                0x000000000000556c        0x8 /usr/lib/gcc/i686-linux-gnu/4.6/../../../i386-linux-gnu/crti.o
 .rel.text.Java_se_sics_cooja_corecomm_Lib205_setMemory
                0x0000000000005574       0x10 /usr/lib/gcc/i686-linux-gnu/4.6/../../../i386-linux-gnu/crti.o
 .rel.text.Java_se_sics_cooja_corecomm_Lib205_tick
                0x0000000000005584       0xc8 /usr/lib/gcc/i686-linux-gnu/4.6/../../../i386-linux-gnu/crti.o
 .rel.text.Java_se_sics_cooja_corecomm_Lib205_setReferenceAddress
                0x000000000000564c       0x10 /usr/lib/gcc/i686-linux-gnu/4.6/../../../i386-linux-gnu/crti.o
 .rel.text.rimeaddr_cmp
                0x000000000000565c        0x8 /usr/lib/gcc/i686-linux-gnu/4.6/../../../i386-linux-gnu/crti.o
 .rel.text.rimeaddr_set_node_addr
                0x0000000000005664       0x10 /usr/lib/gcc/i686-linux-gnu/4.6/../../../i386-linux-gnu/crti.o
 .rel.text.packetbuf_set_attr
                0x0000000000005674       0x20 /usr/lib/gcc/i686-linux-gnu/4.6/../../../i386-linux-gnu/crti.o
 .rel.text.packetbuf_attr
                0x0000000000005694       0x18 /usr/lib/gcc/i686-linux-gnu/4.6/../../../i386-linux-gnu/crti.o
 .rel.text.packetbuf_set_addr
                0x00000000000056ac       0x30 /usr/lib/gcc/i686-linux-gnu/4.6/../../../i386-linux-gnu/crti.o
 .rel.text.packetbuf_addr
                0x00000000000056dc       0x30 /usr/lib/gcc/i686-linux-gnu/4.6/../../../i386-linux-gnu/crti.o
 .rel.text.send_one_packet
                0x000000000000570c       0xd8 /usr/lib/gcc/i686-linux-gnu/4.6/../../../i386-linux-gnu/crti.o
 .rel.text.send_list
                0x00000000000057e4        0x8 /usr/lib/gcc/i686-linux-gnu/4.6/../../../i386-linux-gnu/crti.o
 .rel.text.packet_input
                0x00000000000057ec       0xd0 /usr/lib/gcc/i686-linux-gnu/4.6/../../../i386-linux-gnu/crti.o
 .rel.text.on   0x00000000000058bc       0x10 /usr/lib/gcc/i686-linux-gnu/4.6/../../../i386-linux-gnu/crti.o
 .rel.text.off  0x00000000000058cc       0x18 /usr/lib/gcc/i686-linux-gnu/4.6/../../../i386-linux-gnu/crti.o
 .rel.text.create
                0x00000000000058e4       0xb0 /usr/lib/gcc/i686-linux-gnu/4.6/../../../i386-linux-gnu/crti.o
 .rel.text.parse
                0x0000000000005994       0x30 /usr/lib/gcc/i686-linux-gnu/4.6/../../../i386-linux-gnu/crti.o
 .rel.text.neighbor_queue_from_addr
                0x00000000000059c4       0x20 /usr/lib/gcc/i686-linux-gnu/4.6/../../../i386-linux-gnu/crti.o
 .rel.text.default_timebase
                0x00000000000059e4        0x8 /usr/lib/gcc/i686-linux-gnu/4.6/../../../i386-linux-gnu/crti.o
 .rel.text.transmit_packet_list
                0x00000000000059ec       0x18 /usr/lib/gcc/i686-linux-gnu/4.6/../../../i386-linux-gnu/crti.o
 .rel.text.free_packet
                0x0000000000005a04       0x70 /usr/lib/gcc/i686-linux-gnu/4.6/../../../i386-linux-gnu/crti.o
 .rel.text.packet_sent
                0x0000000000005a74       0x68 /usr/lib/gcc/i686-linux-gnu/4.6/../../../i386-linux-gnu/crti.o
 .rel.text.send_packet
                0x0000000000005adc      0x110 /usr/lib/gcc/i686-linux-gnu/4.6/../../../i386-linux-gnu/crti.o
 .rel.text.input_packet
                0x0000000000005bec        0x8 /usr/lib/gcc/i686-linux-gnu/4.6/../../../i386-linux-gnu/crti.o
 .rel.text.channel_check_interval
                0x0000000000005bf4       0x10 /usr/lib/gcc/i686-linux-gnu/4.6/../../../i386-linux-gnu/crti.o
 .rel.text.init
                0x0000000000005c04       0x40 /usr/lib/gcc/i686-linux-gnu/4.6/../../../i386-linux-gnu/crti.o
 .rel.text.process_alloc_event
                0x0000000000005c44       0x10 /usr/lib/gcc/i686-linux-gnu/4.6/../../../i386-linux-gnu/crti.o
 .rel.text.process_start
                0x0000000000005c54       0x20 /usr/lib/gcc/i686-linux-gnu/4.6/../../../i386-linux-gnu/crti.o
 .rel.text.exit_process
                0x0000000000005c74       0x50 /usr/lib/gcc/i686-linux-gnu/4.6/../../../i386-linux-gnu/crti.o
 .rel.text.call_process
                0x0000000000005cc4        0x8 /usr/lib/gcc/i686-linux-gnu/4.6/../../../i386-linux-gnu/crti.o
 .rel.text.process_exit
                0x0000000000005ccc        0x8 /usr/lib/gcc/i686-linux-gnu/4.6/../../../i386-linux-gnu/crti.o
 .rel.text.process_init
                0x0000000000005cd4       0x38 /usr/lib/gcc/i686-linux-gnu/4.6/../../../i386-linux-gnu/crti.o
 .rel.text.do_poll
                0x0000000000005d0c       0x10 /usr/lib/gcc/i686-linux-gnu/4.6/../../../i386-linux-gnu/crti.o
 .rel.text.do_event
                0x0000000000005d1c       0xe8 /usr/lib/gcc/i686-linux-gnu/4.6/../../../i386-linux-gnu/crti.o
 .rel.text.process_run
                0x0000000000005e04       0x18 /usr/lib/gcc/i686-linux-gnu/4.6/../../../i386-linux-gnu/crti.o
 .rel.text.process_nevents
                0x0000000000005e1c       0x10 /usr/lib/gcc/i686-linux-gnu/4.6/../../../i386-linux-gnu/crti.o
 .rel.text.process_post
                0x0000000000005e2c       0x60 /usr/lib/gcc/i686-linux-gnu/4.6/../../../i386-linux-gnu/crti.o
 .rel.text.process_post_synch
                0x0000000000005e8c       0x10 /usr/lib/gcc/i686-linux-gnu/4.6/../../../i386-linux-gnu/crti.o
 .rel.text.process_poll
                0x0000000000005e9c        0x8 /usr/lib/gcc/i686-linux-gnu/4.6/../../../i386-linux-gnu/crti.o
 .rel.text.autostart_start
                0x0000000000005ea4        0x8 /usr/lib/gcc/i686-linux-gnu/4.6/../../../i386-linux-gnu/crti.o
 .rel.text.autostart_exit
                0x0000000000005eac        0x8 /usr/lib/gcc/i686-linux-gnu/4.6/../../../i386-linux-gnu/crti.o
 .rel.text.serial_line_input_byte
                0x0000000000005eb4       0x48 /usr/lib/gcc/i686-linux-gnu/4.6/../../../i386-linux-gnu/crti.o
 .rel.text.process_thread_serial_line_process
                0x0000000000005efc       0x90 /usr/lib/gcc/i686-linux-gnu/4.6/../../../i386-linux-gnu/crti.o
 .rel.text.serial_line_init
                0x0000000000005f8c       0x28 /usr/lib/gcc/i686-linux-gnu/4.6/../../../i386-linux-gnu/crti.o
 .rel.text.memb_init
                0x0000000000005fb4       0x10 /usr/lib/gcc/i686-linux-gnu/4.6/../../../i386-linux-gnu/crti.o
 .rel.text.list_add
                0x0000000000005fc4       0x10 /usr/lib/gcc/i686-linux-gnu/4.6/../../../i386-linux-gnu/crti.o
 .rel.text.list_push
                0x0000000000005fd4        0x8 /usr/lib/gcc/i686-linux-gnu/4.6/../../../i386-linux-gnu/crti.o
 .rel.text.list_insert
                0x0000000000005fdc        0x8 /usr/lib/gcc/i686-linux-gnu/4.6/../../../i386-linux-gnu/crti.o
 .rel.text.update_time
                0x0000000000005fe4       0x28 /usr/lib/gcc/i686-linux-gnu/4.6/../../../i386-linux-gnu/crti.o
 .rel.text.process_thread_etimer_process
                0x000000000000600c       0x60 /usr/lib/gcc/i686-linux-gnu/4.6/../../../i386-linux-gnu/crti.o
 .rel.text.etimer_request_poll
                0x000000000000606c       0x10 /usr/lib/gcc/i686-linux-gnu/4.6/../../../i386-linux-gnu/crti.o
 .rel.text.add_timer
                0x000000000000607c       0x30 /usr/lib/gcc/i686-linux-gnu/4.6/../../../i386-linux-gnu/crti.o
 .rel.text.etimer_set
                0x00000000000060ac        0x8 /usr/lib/gcc/i686-linux-gnu/4.6/../../../i386-linux-gnu/crti.o
 .rel.text.etimer_reset
                0x00000000000060b4        0x8 /usr/lib/gcc/i686-linux-gnu/4.6/../../../i386-linux-gnu/crti.o
 .rel.text.etimer_restart
                0x00000000000060bc        0x8 /usr/lib/gcc/i686-linux-gnu/4.6/../../../i386-linux-gnu/crti.o
 .rel.text.etimer_pending
                0x00000000000060c4        0x8 /usr/lib/gcc/i686-linux-gnu/4.6/../../../i386-linux-gnu/crti.o
 .rel.text.etimer_next_expiration_time
                0x00000000000060cc       0x10 /usr/lib/gcc/i686-linux-gnu/4.6/../../../i386-linux-gnu/crti.o
 .rel.text.etimer_stop
                0x00000000000060dc       0x20 /usr/lib/gcc/i686-linux-gnu/4.6/../../../i386-linux-gnu/crti.o
 .rel.text.process_thread_ctimer_process
                0x00000000000060fc       0x58 /usr/lib/gcc/i686-linux-gnu/4.6/../../../i386-linux-gnu/crti.o
 .rel.text.ctimer_init
                0x0000000000006154       0x28 /usr/lib/gcc/i686-linux-gnu/4.6/../../../i386-linux-gnu/crti.o
 .rel.text.ctimer_set
                0x000000000000617c       0x58 /usr/lib/gcc/i686-linux-gnu/4.6/../../../i386-linux-gnu/crti.o
 .rel.text.ctimer_reset
                0x00000000000061d4       0x50 /usr/lib/gcc/i686-linux-gnu/4.6/../../../i386-linux-gnu/crti.o
 .rel.text.ctimer_restart
                0x0000000000006224       0x50 /usr/lib/gcc/i686-linux-gnu/4.6/../../../i386-linux-gnu/crti.o
 .rel.text.ctimer_stop
                0x0000000000006274       0x20 /usr/lib/gcc/i686-linux-gnu/4.6/../../../i386-linux-gnu/crti.o
 .rel.text.ctimer_expired
                0x0000000000006294       0x20 /usr/lib/gcc/i686-linux-gnu/4.6/../../../i386-linux-gnu/crti.o
 .rel.text.random_init
                0x00000000000062b4        0x8 /usr/lib/gcc/i686-linux-gnu/4.6/../../../i386-linux-gnu/crti.o
 .rel.text.random_rand
                0x00000000000062bc        0x8 /usr/lib/gcc/i686-linux-gnu/4.6/../../../i386-linux-gnu/crti.o
 .rel.text.netstack_init
                0x00000000000062c4       0x20 /usr/lib/gcc/i686-linux-gnu/4.6/../../../i386-linux-gnu/crti.o
 .rel.text.packetbuf_clear
                0x00000000000062e4       0x38 /usr/lib/gcc/i686-linux-gnu/4.6/../../../i386-linux-gnu/crti.o
 .rel.text.packetbuf_clear_hdr
                0x000000000000631c        0x8 /usr/lib/gcc/i686-linux-gnu/4.6/../../../i386-linux-gnu/crti.o
 .rel.text.packetbuf_copyfrom
                0x0000000000006324       0x20 /usr/lib/gcc/i686-linux-gnu/4.6/../../../i386-linux-gnu/crti.o
 .rel.text.packetbuf_compact
                0x0000000000006344       0x58 /usr/lib/gcc/i686-linux-gnu/4.6/../../../i386-linux-gnu/crti.o
 .rel.text.packetbuf_copyto_hdr
                0x000000000000639c       0x28 /usr/lib/gcc/i686-linux-gnu/4.6/../../../i386-linux-gnu/crti.o
 .rel.text.packetbuf_copyto
                0x00000000000063c4       0x68 /usr/lib/gcc/i686-linux-gnu/4.6/../../../i386-linux-gnu/crti.o
 .rel.text.packetbuf_hdralloc
                0x000000000000642c       0x20 /usr/lib/gcc/i686-linux-gnu/4.6/../../../i386-linux-gnu/crti.o
 .rel.text.packetbuf_hdr_remove
                0x000000000000644c       0x10 /usr/lib/gcc/i686-linux-gnu/4.6/../../../i386-linux-gnu/crti.o
 .rel.text.packetbuf_hdrreduce
                0x000000000000645c       0x28 /usr/lib/gcc/i686-linux-gnu/4.6/../../../i386-linux-gnu/crti.o
 .rel.text.packetbuf_set_datalen
                0x0000000000006484        0x8 /usr/lib/gcc/i686-linux-gnu/4.6/../../../i386-linux-gnu/crti.o
 .rel.text.packetbuf_dataptr
                0x000000000000648c       0x10 /usr/lib/gcc/i686-linux-gnu/4.6/../../../i386-linux-gnu/crti.o
 .rel.text.packetbuf_hdrptr
                0x000000000000649c       0x10 /usr/lib/gcc/i686-linux-gnu/4.6/../../../i386-linux-gnu/crti.o
 .rel.text.packetbuf_reference
                0x00000000000064ac       0x18 /usr/lib/gcc/i686-linux-gnu/4.6/../../../i386-linux-gnu/crti.o
 .rel.text.packetbuf_is_reference
                0x00000000000064c4       0x10 /usr/lib/gcc/i686-linux-gnu/4.6/../../../i386-linux-gnu/crti.o
 .rel.text.packetbuf_reference_ptr
                0x00000000000064d4        0x8 /usr/lib/gcc/i686-linux-gnu/4.6/../../../i386-linux-gnu/crti.o
 .rel.text.packetbuf_datalen
                0x00000000000064dc        0x8 /usr/lib/gcc/i686-linux-gnu/4.6/../../../i386-linux-gnu/crti.o
 .rel.text.packetbuf_hdrlen
                0x00000000000064e4        0x8 /usr/lib/gcc/i686-linux-gnu/4.6/../../../i386-linux-gnu/crti.o
 .rel.text.packetbuf_totlen
                0x00000000000064ec       0x10 /usr/lib/gcc/i686-linux-gnu/4.6/../../../i386-linux-gnu/crti.o
 .rel.text.packetbuf_attr_clear
                0x00000000000064fc       0x20 /usr/lib/gcc/i686-linux-gnu/4.6/../../../i386-linux-gnu/crti.o
 .rel.text.packetbuf_attr_copyto
                0x000000000000651c       0x48 /usr/lib/gcc/i686-linux-gnu/4.6/../../../i386-linux-gnu/crti.o
 .rel.text.packetbuf_attr_copyfrom
                0x0000000000006564       0x48 /usr/lib/gcc/i686-linux-gnu/4.6/../../../i386-linux-gnu/crti.o
 .rel.text.queuebuf_init
                0x00000000000065ac       0x30 /usr/lib/gcc/i686-linux-gnu/4.6/../../../i386-linux-gnu/crti.o
 .rel.text.queuebuf_new_from_packetbuf
                0x00000000000065dc       0x60 /usr/lib/gcc/i686-linux-gnu/4.6/../../../i386-linux-gnu/crti.o
 .rel.text.queuebuf_update_attr_from_packetbuf
                0x000000000000663c        0x8 /usr/lib/gcc/i686-linux-gnu/4.6/../../../i386-linux-gnu/crti.o
 .rel.text.queuebuf_free
                0x0000000000006644       0x50 /usr/lib/gcc/i686-linux-gnu/4.6/../../../i386-linux-gnu/crti.o
 .rel.text.queuebuf_to_packetbuf
                0x0000000000006694       0x58 /usr/lib/gcc/i686-linux-gnu/4.6/../../../i386-linux-gnu/crti.o
 .rel.text.queuebuf_dataptr
                0x00000000000066ec       0x20 /usr/lib/gcc/i686-linux-gnu/4.6/../../../i386-linux-gnu/crti.o
 .rel.text.rime_sniffer_add
                0x000000000000670c        0x8 /usr/lib/gcc/i686-linux-gnu/4.6/../../../i386-linux-gnu/crti.o
 .rel.text.rime_sniffer_remove
                0x0000000000006714        0x8 /usr/lib/gcc/i686-linux-gnu/4.6/../../../i386-linux-gnu/crti.o
 .rel.text.set_packet_attrs
                0x000000000000671c       0x60 /usr/lib/gcc/i686-linux-gnu/4.6/../../../i386-linux-gnu/crti.o
 .rel.text.addr_context_lookup_by_prefix
                0x000000000000677c       0x20 /usr/lib/gcc/i686-linux-gnu/4.6/../../../i386-linux-gnu/crti.o
 .rel.text.addr_context_lookup_by_number
                0x000000000000679c       0x18 /usr/lib/gcc/i686-linux-gnu/4.6/../../../i386-linux-gnu/crti.o
 .rel.text.compress_addr_64
                0x00000000000067b4       0x30 /usr/lib/gcc/i686-linux-gnu/4.6/../../../i386-linux-gnu/crti.o
 .rel.text.uncompress_addr
                0x00000000000067e4       0x38 /usr/lib/gcc/i686-linux-gnu/4.6/../../../i386-linux-gnu/crti.o
 .rel.text.compress_hdr_hc06
                0x000000000000681c      0x5a0 /usr/lib/gcc/i686-linux-gnu/4.6/../../../i386-linux-gnu/crti.o
 .rel.text.uncompress_hdr_hc06
                0x0000000000006dbc      0x3e0 /usr/lib/gcc/i686-linux-gnu/4.6/../../../i386-linux-gnu/crti.o
 .rel.text.compress_hdr_ipv6
                0x000000000000719c       0x50 /usr/lib/gcc/i686-linux-gnu/4.6/../../../i386-linux-gnu/crti.o
 .rel.text.output
                0x00000000000071ec      0x2f8 /usr/lib/gcc/i686-linux-gnu/4.6/../../../i386-linux-gnu/crti.o
 .rel.text.input
                0x00000000000074e4      0x2e8 /usr/lib/gcc/i686-linux-gnu/4.6/../../../i386-linux-gnu/crti.o
 .rel.text.sicslowpan_init
                0x00000000000077cc       0x38 /usr/lib/gcc/i686-linux-gnu/4.6/../../../i386-linux-gnu/crti.o
 .rel.text.init_simple_udp
                0x0000000000007804       0x20 /usr/lib/gcc/i686-linux-gnu/4.6/../../../i386-linux-gnu/crti.o
 .rel.text.simple_udp_send
                0x0000000000007824        0x8 /usr/lib/gcc/i686-linux-gnu/4.6/../../../i386-linux-gnu/crti.o
 .rel.text.simple_udp_sendto
                0x000000000000782c        0x8 /usr/lib/gcc/i686-linux-gnu/4.6/../../../i386-linux-gnu/crti.o
 .rel.text.simple_udp_sendto_port
                0x0000000000007834        0x8 /usr/lib/gcc/i686-linux-gnu/4.6/../../../i386-linux-gnu/crti.o
 .rel.text.simple_udp_register
                0x000000000000783c       0x28 /usr/lib/gcc/i686-linux-gnu/4.6/../../../i386-linux-gnu/crti.o
 .rel.text.process_thread_simple_udp_process
                0x0000000000007864       0x88 /usr/lib/gcc/i686-linux-gnu/4.6/../../../i386-linux-gnu/crti.o
 .rel.text.tcpip_output
                0x00000000000078ec       0x10 /usr/lib/gcc/i686-linux-gnu/4.6/../../../i386-linux-gnu/crti.o
 .rel.text.tcpip_set_outputfunc
                0x00000000000078fc        0x8 /usr/lib/gcc/i686-linux-gnu/4.6/../../../i386-linux-gnu/crti.o
 .rel.text.start_periodic_tcp_timer
                0x0000000000007904       0x20 /usr/lib/gcc/i686-linux-gnu/4.6/../../../i386-linux-gnu/crti.o
 .rel.text.check_for_tcp_syn
                0x0000000000007924       0x10 /usr/lib/gcc/i686-linux-gnu/4.6/../../../i386-linux-gnu/crti.o
 .rel.text.tcp_connect
                0x0000000000007934       0x18 /usr/lib/gcc/i686-linux-gnu/4.6/../../../i386-linux-gnu/crti.o
 .rel.text.tcp_unlisten
                0x000000000000794c       0x38 /usr/lib/gcc/i686-linux-gnu/4.6/../../../i386-linux-gnu/crti.o
 .rel.text.tcp_listen
                0x0000000000007984       0x38 /usr/lib/gcc/i686-linux-gnu/4.6/../../../i386-linux-gnu/crti.o
 .rel.text.tcp_attach
                0x00000000000079bc        0x8 /usr/lib/gcc/i686-linux-gnu/4.6/../../../i386-linux-gnu/crti.o
 .rel.text.udp_attach
                0x00000000000079c4        0x8 /usr/lib/gcc/i686-linux-gnu/4.6/../../../i386-linux-gnu/crti.o
 .rel.text.udp_new
                0x00000000000079cc       0x10 /usr/lib/gcc/i686-linux-gnu/4.6/../../../i386-linux-gnu/crti.o
 .rel.text.udp_broadcast_new
                0x00000000000079dc       0x10 /usr/lib/gcc/i686-linux-gnu/4.6/../../../i386-linux-gnu/crti.o
 .rel.text.eventhandler
                0x00000000000079ec      0x128 /usr/lib/gcc/i686-linux-gnu/4.6/../../../i386-linux-gnu/crti.o
 .rel.text.tcpip_input
                0x0000000000007b14       0x20 /usr/lib/gcc/i686-linux-gnu/4.6/../../../i386-linux-gnu/crti.o
 .rel.text.tcpip_ipv6_output
                0x0000000000007b34      0x258 /usr/lib/gcc/i686-linux-gnu/4.6/../../../i386-linux-gnu/crti.o
 .rel.text.tcpip_poll_udp
                0x0000000000007d8c       0x10 /usr/lib/gcc/i686-linux-gnu/4.6/../../../i386-linux-gnu/crti.o
 .rel.text.tcpip_poll_tcp
                0x0000000000007d9c       0x10 /usr/lib/gcc/i686-linux-gnu/4.6/../../../i386-linux-gnu/crti.o
 .rel.text.tcpip_uipcall
                0x0000000000007dac       0x60 /usr/lib/gcc/i686-linux-gnu/4.6/../../../i386-linux-gnu/crti.o
 .rel.text.process_thread_tcpip_process
                0x0000000000007e0c       0x70 /usr/lib/gcc/i686-linux-gnu/4.6/../../../i386-linux-gnu/crti.o
 .rel.text.call_route_callback
                0x0000000000007e7c       0x30 /usr/lib/gcc/i686-linux-gnu/4.6/../../../i386-linux-gnu/crti.o
 .rel.text.uip_ds6_notification_add
                0x0000000000007eac       0x10 /usr/lib/gcc/i686-linux-gnu/4.6/../../../i386-linux-gnu/crti.o
 .rel.text.uip_ds6_notification_rm
                0x0000000000007ebc       0x10 /usr/lib/gcc/i686-linux-gnu/4.6/../../../i386-linux-gnu/crti.o
 .rel.text.uip_ds6_route_init
                0x0000000000007ecc       0x58 /usr/lib/gcc/i686-linux-gnu/4.6/../../../i386-linux-gnu/crti.o
 .rel.text.uip_ds6_route_nexthop_lladdr
                0x0000000000007f24       0x10 /usr/lib/gcc/i686-linux-gnu/4.6/../../../i386-linux-gnu/crti.o
 .rel.text.uip_ds6_route_nexthop
                0x0000000000007f34        0x8 /usr/lib/gcc/i686-linux-gnu/4.6/../../../i386-linux-gnu/crti.o
 .rel.text.uip_ds6_route_head
                0x0000000000007f3c       0x20 /usr/lib/gcc/i686-linux-gnu/4.6/../../../i386-linux-gnu/crti.o
 .rel.text.uip_ds6_route_next
                0x0000000000007f5c       0x20 /usr/lib/gcc/i686-linux-gnu/4.6/../../../i386-linux-gnu/crti.o
 .rel.text.uip_ds6_route_num_routes
                0x0000000000007f7c        0x8 /usr/lib/gcc/i686-linux-gnu/4.6/../../../i386-linux-gnu/crti.o
 .rel.text.uip_ds6_route_lookup
                0x0000000000007f84       0x18 /usr/lib/gcc/i686-linux-gnu/4.6/../../../i386-linux-gnu/crti.o
 .rel.text.uip_ds6_route_add
                0x0000000000007f9c       0x60 /usr/lib/gcc/i686-linux-gnu/4.6/../../../i386-linux-gnu/crti.o
 .rel.text.uip_ds6_route_rm
                0x0000000000007ffc       0x48 /usr/lib/gcc/i686-linux-gnu/4.6/../../../i386-linux-gnu/crti.o
 .rel.text.rm_routelist
                0x0000000000008044       0x28 /usr/lib/gcc/i686-linux-gnu/4.6/../../../i386-linux-gnu/crti.o
 .rel.text.uip_ds6_route_rm_by_nexthop
                0x000000000000806c       0x18 /usr/lib/gcc/i686-linux-gnu/4.6/../../../i386-linux-gnu/crti.o
 .rel.text.uip_ds6_defrt_add
                0x0000000000008084       0x30 /usr/lib/gcc/i686-linux-gnu/4.6/../../../i386-linux-gnu/crti.o
 .rel.text.uip_ds6_defrt_rm
                0x00000000000080b4       0x38 /usr/lib/gcc/i686-linux-gnu/4.6/../../../i386-linux-gnu/crti.o
 .rel.text.uip_ds6_defrt_lookup
                0x00000000000080ec       0x20 /usr/lib/gcc/i686-linux-gnu/4.6/../../../i386-linux-gnu/crti.o
 .rel.text.uip_ds6_defrt_choose
                0x000000000000810c       0x20 /usr/lib/gcc/i686-linux-gnu/4.6/../../../i386-linux-gnu/crti.o
 .rel.text.uip_ds6_defrt_periodic
                0x000000000000812c       0x38 /usr/lib/gcc/i686-linux-gnu/4.6/../../../i386-linux-gnu/crti.o
 .rel.text.uip_ds6_neighbors_init
                0x0000000000008164       0x18 /usr/lib/gcc/i686-linux-gnu/4.6/../../../i386-linux-gnu/crti.o
 .rel.text.uip_ds6_nbr_add
                0x000000000000817c       0x30 /usr/lib/gcc/i686-linux-gnu/4.6/../../../i386-linux-gnu/crti.o
 .rel.text.uip_ds6_nbr_rm
                0x00000000000081ac       0x20 /usr/lib/gcc/i686-linux-gnu/4.6/../../../i386-linux-gnu/crti.o
 .rel.text.uip_ds6_nbr_get_ll
                0x00000000000081cc       0x10 /usr/lib/gcc/i686-linux-gnu/4.6/../../../i386-linux-gnu/crti.o
 .rel.text.uip_ds6_nbr_num
                0x00000000000081dc       0x20 /usr/lib/gcc/i686-linux-gnu/4.6/../../../i386-linux-gnu/crti.o
 .rel.text.uip_ds6_nbr_lookup
                0x00000000000081fc       0x28 /usr/lib/gcc/i686-linux-gnu/4.6/../../../i386-linux-gnu/crti.o
 .rel.text.uip_ds6_nbr_ll_lookup
                0x0000000000008224       0x10 /usr/lib/gcc/i686-linux-gnu/4.6/../../../i386-linux-gnu/crti.o
 .rel.text.uip_ds6_nbr_ipaddr_from_lladdr
                0x0000000000008234        0x8 /usr/lib/gcc/i686-linux-gnu/4.6/../../../i386-linux-gnu/crti.o
 .rel.text.uip_ds6_nbr_lladdr_from_ipaddr
                0x000000000000823c       0x10 /usr/lib/gcc/i686-linux-gnu/4.6/../../../i386-linux-gnu/crti.o
 .rel.text.uip_ds6_link_neighbor_callback
                0x000000000000824c       0x18 /usr/lib/gcc/i686-linux-gnu/4.6/../../../i386-linux-gnu/crti.o
 .rel.text.uip_ds6_neighbor_periodic
                0x0000000000008264       0xa8 /usr/lib/gcc/i686-linux-gnu/4.6/../../../i386-linux-gnu/crti.o
 .rel.text.uip_ds6_get_least_lifetime_neighbor
                0x000000000000830c       0x30 /usr/lib/gcc/i686-linux-gnu/4.6/../../../i386-linux-gnu/crti.o
 .rel.text.uip_ds6_init
                0x000000000000833c      0x170 /usr/lib/gcc/i686-linux-gnu/4.6/../../../i386-linux-gnu/crti.o
 .rel.text.uip_ds6_periodic
                0x00000000000084ac       0x80 /usr/lib/gcc/i686-linux-gnu/4.6/../../../i386-linux-gnu/crti.o
 .rel.text.uip_ds6_list_loop
                0x000000000000852c        0x8 /usr/lib/gcc/i686-linux-gnu/4.6/../../../i386-linux-gnu/crti.o
 .rel.text.uip_ds6_prefix_add
                0x0000000000008534       0x58 /usr/lib/gcc/i686-linux-gnu/4.6/../../../i386-linux-gnu/crti.o
 .rel.text.uip_ds6_prefix_lookup
                0x000000000000858c       0x20 /usr/lib/gcc/i686-linux-gnu/4.6/../../../i386-linux-gnu/crti.o
 .rel.text.uip_ds6_is_addr_onlink
                0x00000000000085ac       0x50 /usr/lib/gcc/i686-linux-gnu/4.6/../../../i386-linux-gnu/crti.o
 .rel.text.uip_ds6_addr_add
                0x00000000000085fc       0xc8 /usr/lib/gcc/i686-linux-gnu/4.6/../../../i386-linux-gnu/crti.o
 .rel.text.uip_ds6_addr_rm
                0x00000000000086c4       0x88 /usr/lib/gcc/i686-linux-gnu/4.6/../../../i386-linux-gnu/crti.o
 .rel.text.uip_ds6_addr_lookup
                0x000000000000874c       0x20 /usr/lib/gcc/i686-linux-gnu/4.6/../../../i386-linux-gnu/crti.o
 .rel.text.uip_ds6_get_link_local
                0x000000000000876c       0x58 /usr/lib/gcc/i686-linux-gnu/4.6/../../../i386-linux-gnu/crti.o
 .rel.text.uip_ds6_get_global
                0x00000000000087c4       0x58 /usr/lib/gcc/i686-linux-gnu/4.6/../../../i386-linux-gnu/crti.o
 .rel.text.uip_ds6_maddr_add
                0x000000000000881c       0x30 /usr/lib/gcc/i686-linux-gnu/4.6/../../../i386-linux-gnu/crti.o
 .rel.text.uip_ds6_maddr_lookup
                0x000000000000884c       0x20 /usr/lib/gcc/i686-linux-gnu/4.6/../../../i386-linux-gnu/crti.o
 .rel.text.uip_ds6_aaddr_add
                0x000000000000886c       0x30 /usr/lib/gcc/i686-linux-gnu/4.6/../../../i386-linux-gnu/crti.o
 .rel.text.uip_ds6_aaddr_lookup
                0x000000000000889c       0x20 /usr/lib/gcc/i686-linux-gnu/4.6/../../../i386-linux-gnu/crti.o
 .rel.text.uip_ds6_select_src
                0x00000000000088bc       0x70 /usr/lib/gcc/i686-linux-gnu/4.6/../../../i386-linux-gnu/crti.o
 .rel.text.uip_ds6_compute_reachable_time
                0x000000000000892c       0x30 /usr/lib/gcc/i686-linux-gnu/4.6/../../../i386-linux-gnu/crti.o
 .rel.text.create_llao
                0x000000000000895c       0x10 /usr/lib/gcc/i686-linux-gnu/4.6/../../../i386-linux-gnu/crti.o
 .rel.text.uip_nd6_ns_input
                0x000000000000896c      0x378 /usr/lib/gcc/i686-linux-gnu/4.6/../../../i386-linux-gnu/crti.o
 .rel.text.uip_nd6_ns_output
                0x0000000000008ce4      0x1e0 /usr/lib/gcc/i686-linux-gnu/4.6/../../../i386-linux-gnu/crti.o
 .rel.text.uip_nd6_na_input
                0x0000000000008ec4      0x2d0 /usr/lib/gcc/i686-linux-gnu/4.6/../../../i386-linux-gnu/crti.o
 .rel.text.packet_timedout
                0x0000000000009194       0x10 /usr/lib/gcc/i686-linux-gnu/4.6/../../../i386-linux-gnu/crti.o
 .rel.text.uip_packetqueue_alloc
                0x00000000000091a4       0x20 /usr/lib/gcc/i686-linux-gnu/4.6/../../../i386-linux-gnu/crti.o
 .rel.text.uip_packetqueue_free
                0x00000000000091c4       0x18 /usr/lib/gcc/i686-linux-gnu/4.6/../../../i386-linux-gnu/crti.o
 .rel.text.uip_udp_packet_send
                0x00000000000091dc       0x38 /usr/lib/gcc/i686-linux-gnu/4.6/../../../i386-linux-gnu/crti.o
 .rel.text.uip_udp_packet_sendto
                0x0000000000009214       0x10 /usr/lib/gcc/i686-linux-gnu/4.6/../../../i386-linux-gnu/crti.o
 .rel.text.uip_add32
                0x0000000000009224       0x98 /usr/lib/gcc/i686-linux-gnu/4.6/../../../i386-linux-gnu/crti.o
 .rel.text.uip_chksum
                0x00000000000092bc        0x8 /usr/lib/gcc/i686-linux-gnu/4.6/../../../i386-linux-gnu/crti.o
 .rel.text.upper_layer_chksum
                0x00000000000092c4       0x38 /usr/lib/gcc/i686-linux-gnu/4.6/../../../i386-linux-gnu/crti.o
 .rel.text.uip_init
                0x00000000000092fc       0xa0 /usr/lib/gcc/i686-linux-gnu/4.6/../../../i386-linux-gnu/crti.o
 .rel.text.uip_connect
                0x000000000000939c       0xc0 /usr/lib/gcc/i686-linux-gnu/4.6/../../../i386-linux-gnu/crti.o
 .rel.text.remove_ext_hdr
                0x000000000000945c       0x98 /usr/lib/gcc/i686-linux-gnu/4.6/../../../i386-linux-gnu/crti.o
 .rel.text.uip_udp_new
                0x00000000000094f4       0xb8 /usr/lib/gcc/i686-linux-gnu/4.6/../../../i386-linux-gnu/crti.o
 .rel.text.uip_unlisten
                0x00000000000095ac       0x40 /usr/lib/gcc/i686-linux-gnu/4.6/../../../i386-linux-gnu/crti.o
 .rel.text.uip_listen
                0x00000000000095ec       0x40 /usr/lib/gcc/i686-linux-gnu/4.6/../../../i386-linux-gnu/crti.o
 .rel.text.uip_add_rcv_nxt
                0x000000000000962c       0x50 /usr/lib/gcc/i686-linux-gnu/4.6/../../../i386-linux-gnu/crti.o
 .rel.text.ext_hdr_options_process
                0x000000000000967c      0x108 /usr/lib/gcc/i686-linux-gnu/4.6/../../../i386-linux-gnu/crti.o
 .rel.text.uip_process
                0x0000000000009784     0x1188 /usr/lib/gcc/i686-linux-gnu/4.6/../../../i386-linux-gnu/crti.o
 .rel.text.uip_send
                0x000000000000a90c       0x38 /usr/lib/gcc/i686-linux-gnu/4.6/../../../i386-linux-gnu/crti.o
 .rel.text.doActionsBeforeTick
                0x000000000000a944       0x10 /usr/lib/gcc/i686-linux-gnu/4.6/../../../i386-linux-gnu/crti.o
 .rel.text.doActionsAfterTick
                0x000000000000a954       0x10 /usr/lib/gcc/i686-linux-gnu/4.6/../../../i386-linux-gnu/crti.o
 .rel.text.cooja_mt_init
                0x000000000000a964        0x8 /usr/lib/gcc/i686-linux-gnu/4.6/../../../i386-linux-gnu/crti.o
 .rel.text.cooja_mt_remove
                0x000000000000a96c        0x8 /usr/lib/gcc/i686-linux-gnu/4.6/../../../i386-linux-gnu/crti.o
 .rel.text.cooja_mt_start
                0x000000000000a974        0x8 /usr/lib/gcc/i686-linux-gnu/4.6/../../../i386-linux-gnu/crti.o
 .rel.text.cooja_mt_exec
                0x000000000000a97c       0x10 /usr/lib/gcc/i686-linux-gnu/4.6/../../../i386-linux-gnu/crti.o
 .rel.text.cooja_mt_exit
                0x000000000000a98c       0x18 /usr/lib/gcc/i686-linux-gnu/4.6/../../../i386-linux-gnu/crti.o
 .rel.text.cooja_mt_yield
                0x000000000000a9a4       0x18 /usr/lib/gcc/i686-linux-gnu/4.6/../../../i386-linux-gnu/crti.o
 .rel.text.cooja_sw
                0x000000000000a9bc        0x8 /usr/lib/gcc/i686-linux-gnu/4.6/../../../i386-linux-gnu/crti.o
 .rel.text.cooja_mtarch_exec
                0x000000000000a9c4       0x18 /usr/lib/gcc/i686-linux-gnu/4.6/../../../i386-linux-gnu/crti.o
 .rel.text.cooja_mtarch_yield
                0x000000000000a9dc        0x8 /usr/lib/gcc/i686-linux-gnu/4.6/../../../i386-linux-gnu/crti.o
 .rel.text.rtimer_arch_init
                0x000000000000a9e4       0x18 /usr/lib/gcc/i686-linux-gnu/4.6/../../../i386-linux-gnu/crti.o
 .rel.text.rtimer_arch_schedule
                0x000000000000a9fc       0x10 /usr/lib/gcc/i686-linux-gnu/4.6/../../../i386-linux-gnu/crti.o
 .rel.text.rtimer_arch_next
                0x000000000000aa0c        0x8 /usr/lib/gcc/i686-linux-gnu/4.6/../../../i386-linux-gnu/crti.o
 .rel.text.rtimer_arch_pending
                0x000000000000aa14        0x8 /usr/lib/gcc/i686-linux-gnu/4.6/../../../i386-linux-gnu/crti.o
 .rel.text.rtimer_arch_check
                0x000000000000aa1c       0x20 /usr/lib/gcc/i686-linux-gnu/4.6/../../../i386-linux-gnu/crti.o
 .rel.text.rtimer_arch_now
                0x000000000000aa3c       0x48 /usr/lib/gcc/i686-linux-gnu/4.6/../../../i386-linux-gnu/crti.o
 .rel.text.beep_alarm
                0x000000000000aa84        0x8 /usr/lib/gcc/i686-linux-gnu/4.6/../../../i386-linux-gnu/crti.o
 .rel.text.beep_beep
                0x000000000000aa8c        0x8 /usr/lib/gcc/i686-linux-gnu/4.6/../../../i386-linux-gnu/crti.o
 .rel.text.beep
                0x000000000000aa94        0x8 /usr/lib/gcc/i686-linux-gnu/4.6/../../../i386-linux-gnu/crti.o
 .rel.text.beep_down
                0x000000000000aa9c        0x8 /usr/lib/gcc/i686-linux-gnu/4.6/../../../i386-linux-gnu/crti.o
 .rel.text.beep_on
                0x000000000000aaa4        0x8 /usr/lib/gcc/i686-linux-gnu/4.6/../../../i386-linux-gnu/crti.o
 .rel.text.beep_off
                0x000000000000aaac        0x8 /usr/lib/gcc/i686-linux-gnu/4.6/../../../i386-linux-gnu/crti.o
 .rel.text.beep_spinup
                0x000000000000aab4        0x8 /usr/lib/gcc/i686-linux-gnu/4.6/../../../i386-linux-gnu/crti.o
 .rel.text.beep_quick
                0x000000000000aabc        0x8 /usr/lib/gcc/i686-linux-gnu/4.6/../../../i386-linux-gnu/crti.o
 .rel.text.beep_long
                0x000000000000aac4        0x8 /usr/lib/gcc/i686-linux-gnu/4.6/../../../i386-linux-gnu/crti.o
 .rel.text.value
                0x000000000000aacc       0x28 /usr/lib/gcc/i686-linux-gnu/4.6/../../../i386-linux-gnu/crti.o
 .rel.text.configure
                0x000000000000aaf4       0x40 /usr/lib/gcc/i686-linux-gnu/4.6/../../../i386-linux-gnu/crti.o
 .rel.text.status
                0x000000000000ab34       0x18 /usr/lib/gcc/i686-linux-gnu/4.6/../../../i386-linux-gnu/crti.o
 .rel.text.doInterfaceActionsBeforeTick
                0x000000000000ab4c      0x188 /usr/lib/gcc/i686-linux-gnu/4.6/../../../i386-linux-gnu/crti.o
 .rel.text.leds_arch_init
                0x000000000000acd4        0x8 /usr/lib/gcc/i686-linux-gnu/4.6/../../../i386-linux-gnu/crti.o
 .rel.text.leds_arch_get
                0x000000000000acdc        0x8 /usr/lib/gcc/i686-linux-gnu/4.6/../../../i386-linux-gnu/crti.o
 .rel.text.leds_arch_set
                0x000000000000ace4       0x10 /usr/lib/gcc/i686-linux-gnu/4.6/../../../i386-linux-gnu/crti.o
 .rel.text.rs232_set_input
                0x000000000000acf4        0x8 /usr/lib/gcc/i686-linux-gnu/4.6/../../../i386-linux-gnu/crti.o
 .rel.text.rs232_send
                0x000000000000acfc       0x10 /usr/lib/gcc/i686-linux-gnu/4.6/../../../i386-linux-gnu/crti.o
 .rel.text.rs232_print
                0x000000000000ad0c       0x10 /usr/lib/gcc/i686-linux-gnu/4.6/../../../i386-linux-gnu/crti.o
 .rel.text.slip_arch_writeb
                0x000000000000ad1c        0x8 /usr/lib/gcc/i686-linux-gnu/4.6/../../../i386-linux-gnu/crti.o
 .rel.text.clock_time
                0x000000000000ad24        0x8 /usr/lib/gcc/i686-linux-gnu/4.6/../../../i386-linux-gnu/crti.o
 .rel.text.clock_seconds
                0x000000000000ad2c        0x8 /usr/lib/gcc/i686-linux-gnu/4.6/../../../i386-linux-gnu/crti.o
 .rel.text.simlog_char
                0x000000000000ad34       0x30 /usr/lib/gcc/i686-linux-gnu/4.6/../../../i386-linux-gnu/crti.o
 .rel.text.simlog
                0x000000000000ad64       0x38 /usr/lib/gcc/i686-linux-gnu/4.6/../../../i386-linux-gnu/crti.o
 .rel.text.log_message
                0x000000000000ad9c       0x10 /usr/lib/gcc/i686-linux-gnu/4.6/../../../i386-linux-gnu/crti.o
 .rel.text.log_set_putchar_with_slip
                0x000000000000adac        0x8 /usr/lib/gcc/i686-linux-gnu/4.6/../../../i386-linux-gnu/crti.o
 .rel.text.putchar
                0x000000000000adb4       0x50 /usr/lib/gcc/i686-linux-gnu/4.6/../../../i386-linux-gnu/crti.o
 .rel.text.puts
                0x000000000000ae04       0x10 /usr/lib/gcc/i686-linux-gnu/4.6/../../../i386-linux-gnu/crti.o
 .rel.text.printf
                0x000000000000ae14       0x20 /usr/lib/gcc/i686-linux-gnu/4.6/../../../i386-linux-gnu/crti.o
 .rel.text.cfs_open
                0x000000000000ae34       0x30 /usr/lib/gcc/i686-linux-gnu/4.6/../../../i386-linux-gnu/crti.o
 .rel.text.cfs_close
                0x000000000000ae64        0x8 /usr/lib/gcc/i686-linux-gnu/4.6/../../../i386-linux-gnu/crti.o
 .rel.text.cfs_read
                0x000000000000ae6c       0x70 /usr/lib/gcc/i686-linux-gnu/4.6/../../../i386-linux-gnu/crti.o
 .rel.text.cfs_write
                0x000000000000aedc       0x90 /usr/lib/gcc/i686-linux-gnu/4.6/../../../i386-linux-gnu/crti.o
 .rel.text.cfs_seek
                0x000000000000af6c       0x68 /usr/lib/gcc/i686-linux-gnu/4.6/../../../i386-linux-gnu/crti.o
 .rel.text.cfs_remove
                0x000000000000afd4        0x8 /usr/lib/gcc/i686-linux-gnu/4.6/../../../i386-linux-gnu/crti.o
 .rel.text.radio_set_channel
                0x000000000000afdc        0x8 /usr/lib/gcc/i686-linux-gnu/4.6/../../../i386-linux-gnu/crti.o
 .rel.text.radio_set_txpower
                0x000000000000afe4        0x8 /usr/lib/gcc/i686-linux-gnu/4.6/../../../i386-linux-gnu/crti.o
 .rel.text.radio_signal_strength_last
                0x000000000000afec        0x8 /usr/lib/gcc/i686-linux-gnu/4.6/../../../i386-linux-gnu/crti.o
 .rel.text.radio_signal_strength_current
                0x000000000000aff4        0x8 /usr/lib/gcc/i686-linux-gnu/4.6/../../../i386-linux-gnu/crti.o
 .rel.text.radio_on
                0x000000000000affc        0x8 /usr/lib/gcc/i686-linux-gnu/4.6/../../../i386-linux-gnu/crti.o
 .rel.text.radio_off
                0x000000000000b004        0x8 /usr/lib/gcc/i686-linux-gnu/4.6/../../../i386-linux-gnu/crti.o
 .rel.text.radio_read
                0x000000000000b00c       0x50 /usr/lib/gcc/i686-linux-gnu/4.6/../../../i386-linux-gnu/crti.o
 .rel.text.channel_clear
                0x000000000000b05c        0x8 /usr/lib/gcc/i686-linux-gnu/4.6/../../../i386-linux-gnu/crti.o
 .rel.text.radio_send
                0x000000000000b064       0x70 /usr/lib/gcc/i686-linux-gnu/4.6/../../../i386-linux-gnu/crti.o
 .rel.text.prepare_packet
                0x000000000000b0d4        0x8 /usr/lib/gcc/i686-linux-gnu/4.6/../../../i386-linux-gnu/crti.o
 .rel.text.transmit_packet
                0x000000000000b0dc       0x10 /usr/lib/gcc/i686-linux-gnu/4.6/../../../i386-linux-gnu/crti.o
 .rel.text.receiving_packet
                0x000000000000b0ec        0x8 /usr/lib/gcc/i686-linux-gnu/4.6/../../../i386-linux-gnu/crti.o
 .rel.text.pending_packet
                0x000000000000b0f4       0x10 /usr/lib/gcc/i686-linux-gnu/4.6/../../../i386-linux-gnu/crti.o
 .rel.text.process_thread_cooja_radio_process
                0x000000000000b104       0x20 /usr/lib/gcc/i686-linux-gnu/4.6/../../../i386-linux-gnu/crti.o
 .rel.text.get_sensor_index
                0x000000000000b124       0x10 /usr/lib/gcc/i686-linux-gnu/4.6/../../../i386-linux-gnu/crti.o
 .rel.text.sensors_first
                0x000000000000b134        0x8 /usr/lib/gcc/i686-linux-gnu/4.6/../../../i386-linux-gnu/crti.o
 .rel.text.sensors_next
                0x000000000000b13c        0x8 /usr/lib/gcc/i686-linux-gnu/4.6/../../../i386-linux-gnu/crti.o
 .rel.text.sensors_changed
                0x000000000000b144       0x20 /usr/lib/gcc/i686-linux-gnu/4.6/../../../i386-linux-gnu/crti.o
 .rel.text.sensors_find
                0x000000000000b164       0x20 /usr/lib/gcc/i686-linux-gnu/4.6/../../../i386-linux-gnu/crti.o
 .rel.text.process_thread_sensors_process
                0x000000000000b184      0x108 /usr/lib/gcc/i686-linux-gnu/4.6/../../../i386-linux-gnu/crti.o
 .rel.text.frame802154_parse
                0x000000000000b28c       0x40 /usr/lib/gcc/i686-linux-gnu/4.6/../../../i386-linux-gnu/crti.o
 .rel.text.rpl_purge_routes
                0x000000000000b2cc       0x50 /usr/lib/gcc/i686-linux-gnu/4.6/../../../i386-linux-gnu/crti.o
 .rel.text.rpl_remove_routes
                0x000000000000b31c       0x20 /usr/lib/gcc/i686-linux-gnu/4.6/../../../i386-linux-gnu/crti.o
 .rel.text.rpl_remove_routes_by_nexthop
                0x000000000000b33c       0x30 /usr/lib/gcc/i686-linux-gnu/4.6/../../../i386-linux-gnu/crti.o
 .rel.text.rpl_add_route
                0x000000000000b36c        0x8 /usr/lib/gcc/i686-linux-gnu/4.6/../../../i386-linux-gnu/crti.o
 .rel.text.rpl_link_neighbor_callback
                0x000000000000b374       0x20 /usr/lib/gcc/i686-linux-gnu/4.6/../../../i386-linux-gnu/crti.o
 .rel.text.rpl_ipv6_neighbor_callback
                0x000000000000b394       0x10 /usr/lib/gcc/i686-linux-gnu/4.6/../../../i386-linux-gnu/crti.o
 .rel.text.rpl_init
                0x000000000000b3a4       0x28 /usr/lib/gcc/i686-linux-gnu/4.6/../../../i386-linux-gnu/crti.o
 .rel.text.rpl_dag_init
                0x000000000000b3cc       0x18 /usr/lib/gcc/i686-linux-gnu/4.6/../../../i386-linux-gnu/crti.o
 .rel.text.rpl_get_parent_rank
                0x000000000000b3e4       0x10 /usr/lib/gcc/i686-linux-gnu/4.6/../../../i386-linux-gnu/crti.o
 .rel.text.rpl_get_parent_link_metric
                0x000000000000b3f4       0x10 /usr/lib/gcc/i686-linux-gnu/4.6/../../../i386-linux-gnu/crti.o
 .rel.text.rpl_get_parent_ipaddr
                0x000000000000b404       0x18 /usr/lib/gcc/i686-linux-gnu/4.6/../../../i386-linux-gnu/crti.o
 .rel.text.rpl_set_preferred_parent
                0x000000000000b41c       0x20 /usr/lib/gcc/i686-linux-gnu/4.6/../../../i386-linux-gnu/crti.o
 .rel.text.remove_parents
                0x000000000000b43c       0x28 /usr/lib/gcc/i686-linux-gnu/4.6/../../../i386-linux-gnu/crti.o
 .rel.text.nullify_parents
                0x000000000000b464       0x28 /usr/lib/gcc/i686-linux-gnu/4.6/../../../i386-linux-gnu/crti.o
 .rel.text.get_dag
                0x000000000000b48c       0x10 /usr/lib/gcc/i686-linux-gnu/4.6/../../../i386-linux-gnu/crti.o
 .rel.text.rpl_set_root
                0x000000000000b49c       0x30 /usr/lib/gcc/i686-linux-gnu/4.6/../../../i386-linux-gnu/crti.o
 .rel.text.rpl_repair_root
                0x000000000000b4cc       0x10 /usr/lib/gcc/i686-linux-gnu/4.6/../../../i386-linux-gnu/crti.o
 .rel.text.set_ip_from_prefix
                0x000000000000b4dc       0x18 /usr/lib/gcc/i686-linux-gnu/4.6/../../../i386-linux-gnu/crti.o
 .rel.text.check_prefix
                0x000000000000b4f4       0x30 /usr/lib/gcc/i686-linux-gnu/4.6/../../../i386-linux-gnu/crti.o
 .rel.text.rpl_set_prefix
                0x000000000000b524       0x10 /usr/lib/gcc/i686-linux-gnu/4.6/../../../i386-linux-gnu/crti.o
 .rel.text.rpl_set_default_route
                0x000000000000b534       0x18 /usr/lib/gcc/i686-linux-gnu/4.6/../../../i386-linux-gnu/crti.o
 .rel.text.rpl_alloc_instance
                0x000000000000b54c        0x8 /usr/lib/gcc/i686-linux-gnu/4.6/../../../i386-linux-gnu/crti.o
 .rel.text.rpl_alloc_dag
                0x000000000000b554       0x18 /usr/lib/gcc/i686-linux-gnu/4.6/../../../i386-linux-gnu/crti.o
 .rel.text.rpl_set_default_instance
                0x000000000000b56c        0x8 /usr/lib/gcc/i686-linux-gnu/4.6/../../../i386-linux-gnu/crti.o
 .rel.text.rpl_free_instance
                0x000000000000b574       0x30 /usr/lib/gcc/i686-linux-gnu/4.6/../../../i386-linux-gnu/crti.o
 .rel.text.rpl_free_dag
                0x000000000000b5a4        0x8 /usr/lib/gcc/i686-linux-gnu/4.6/../../../i386-linux-gnu/crti.o
 .rel.text.rpl_add_parent
                0x000000000000b5ac       0x18 /usr/lib/gcc/i686-linux-gnu/4.6/../../../i386-linux-gnu/crti.o
 .rel.text.find_parent_any_dag_any_instance
                0x000000000000b5c4       0x20 /usr/lib/gcc/i686-linux-gnu/4.6/../../../i386-linux-gnu/crti.o
 .rel.text.rpl_select_dag
                0x000000000000b5e4       0x40 /usr/lib/gcc/i686-linux-gnu/4.6/../../../i386-linux-gnu/crti.o
 .rel.text.rpl_select_parent
                0x000000000000b624       0x20 /usr/lib/gcc/i686-linux-gnu/4.6/../../../i386-linux-gnu/crti.o
 .rel.text.rpl_remove_parent
                0x000000000000b644       0x18 /usr/lib/gcc/i686-linux-gnu/4.6/../../../i386-linux-gnu/crti.o
 .rel.text.rpl_nullify_parent
                0x000000000000b65c       0x10 /usr/lib/gcc/i686-linux-gnu/4.6/../../../i386-linux-gnu/crti.o
 .rel.text.rpl_move_parent
                0x000000000000b66c       0x28 /usr/lib/gcc/i686-linux-gnu/4.6/../../../i386-linux-gnu/crti.o
 .rel.text.rpl_get_any_dag
                0x000000000000b694       0x18 /usr/lib/gcc/i686-linux-gnu/4.6/../../../i386-linux-gnu/crti.o
 .rel.text.rpl_get_instance
                0x000000000000b6ac       0x18 /usr/lib/gcc/i686-linux-gnu/4.6/../../../i386-linux-gnu/crti.o
 .rel.text.rpl_find_of
                0x000000000000b6c4       0x10 /usr/lib/gcc/i686-linux-gnu/4.6/../../../i386-linux-gnu/crti.o
 .rel.text.rpl_join_instance
                0x000000000000b6d4       0x48 /usr/lib/gcc/i686-linux-gnu/4.6/../../../i386-linux-gnu/crti.o
 .rel.text.rpl_add_dag
                0x000000000000b71c       0x38 /usr/lib/gcc/i686-linux-gnu/4.6/../../../i386-linux-gnu/crti.o
 .rel.text.global_repair
                0x000000000000b754       0x10 /usr/lib/gcc/i686-linux-gnu/4.6/../../../i386-linux-gnu/crti.o
 .rel.text.rpl_local_repair
                0x000000000000b764        0x8 /usr/lib/gcc/i686-linux-gnu/4.6/../../../i386-linux-gnu/crti.o
 .rel.text.rpl_recalculate_ranks
                0x000000000000b76c       0x28 /usr/lib/gcc/i686-linux-gnu/4.6/../../../i386-linux-gnu/crti.o
 .rel.text.rpl_process_parent_event
                0x000000000000b794       0x18 /usr/lib/gcc/i686-linux-gnu/4.6/../../../i386-linux-gnu/crti.o
 .rel.text.rpl_process_dio
                0x000000000000b7ac       0x78 /usr/lib/gcc/i686-linux-gnu/4.6/../../../i386-linux-gnu/crti.o
 .rel.text.get_global_addr
                0x000000000000b824       0x28 /usr/lib/gcc/i686-linux-gnu/4.6/../../../i386-linux-gnu/crti.o
 .rel.text.dis_input
                0x000000000000b84c       0x28 /usr/lib/gcc/i686-linux-gnu/4.6/../../../i386-linux-gnu/crti.o
 .rel.text.dis_output
                0x000000000000b874       0x20 /usr/lib/gcc/i686-linux-gnu/4.6/../../../i386-linux-gnu/crti.o
 .rel.text.dio_input
                0x000000000000b894       0x60 /usr/lib/gcc/i686-linux-gnu/4.6/../../../i386-linux-gnu/crti.o
 .rel.text.dio_output
                0x000000000000b8f4       0x28 /usr/lib/gcc/i686-linux-gnu/4.6/../../../i386-linux-gnu/crti.o
 .rel.text.dao_input
                0x000000000000b91c       0x98 /usr/lib/gcc/i686-linux-gnu/4.6/../../../i386-linux-gnu/crti.o
 .rel.text.dao_output
                0x000000000000b9b4       0x10 /usr/lib/gcc/i686-linux-gnu/4.6/../../../i386-linux-gnu/crti.o
 .rel.text.dao_output_target
                0x000000000000b9c4       0x60 /usr/lib/gcc/i686-linux-gnu/4.6/../../../i386-linux-gnu/crti.o
 .rel.text.dao_ack_output
                0x000000000000ba24       0x18 /usr/lib/gcc/i686-linux-gnu/4.6/../../../i386-linux-gnu/crti.o
 .rel.text.uip_rpl_input
                0x000000000000ba3c       0x18 /usr/lib/gcc/i686-linux-gnu/4.6/../../../i386-linux-gnu/crti.o
 .rel.text.handle_periodic_timer
                0x000000000000ba54       0x50 /usr/lib/gcc/i686-linux-gnu/4.6/../../../i386-linux-gnu/crti.o
 .rel.text.new_dio_interval
                0x000000000000baa4       0x18 /usr/lib/gcc/i686-linux-gnu/4.6/../../../i386-linux-gnu/crti.o
 .rel.text.handle_dio_timer
                0x000000000000babc       0x40 /usr/lib/gcc/i686-linux-gnu/4.6/../../../i386-linux-gnu/crti.o
 .rel.text.rpl_reset_periodic_timer
                0x000000000000bafc       0x28 /usr/lib/gcc/i686-linux-gnu/4.6/../../../i386-linux-gnu/crti.o
 .rel.text.handle_dao_timer
                0x000000000000bb24       0x30 /usr/lib/gcc/i686-linux-gnu/4.6/../../../i386-linux-gnu/crti.o
 .rel.text.rpl_schedule_dao
                0x000000000000bb54       0x28 /usr/lib/gcc/i686-linux-gnu/4.6/../../../i386-linux-gnu/crti.o
 .rel.text.rpl_verify_header
                0x000000000000bb7c       0xd0 /usr/lib/gcc/i686-linux-gnu/4.6/../../../i386-linux-gnu/crti.o
 .rel.text.set_rpl_opt
                0x000000000000bc4c      0x108 /usr/lib/gcc/i686-linux-gnu/4.6/../../../i386-linux-gnu/crti.o
 .rel.text.rpl_update_header_empty
                0x000000000000bd54      0x120 /usr/lib/gcc/i686-linux-gnu/4.6/../../../i386-linux-gnu/crti.o
 .rel.text.rpl_update_header_final
                0x000000000000be74       0xc0 /usr/lib/gcc/i686-linux-gnu/4.6/../../../i386-linux-gnu/crti.o
 .rel.text.rpl_remove_header
                0x000000000000bf34       0xb0 /usr/lib/gcc/i686-linux-gnu/4.6/../../../i386-linux-gnu/crti.o
 .rel.text.rpl_invert_header
                0x000000000000bfe4       0xa8 /usr/lib/gcc/i686-linux-gnu/4.6/../../../i386-linux-gnu/crti.o
 .rel.text.rpl_insert_header
                0x000000000000c08c       0x20 /usr/lib/gcc/i686-linux-gnu/4.6/../../../i386-linux-gnu/crti.o
 .rel.text.timer_set
                0x000000000000c0ac        0x8 /usr/lib/gcc/i686-linux-gnu/4.6/../../../i386-linux-gnu/crti.o
 .rel.text.timer_restart
                0x000000000000c0b4        0x8 /usr/lib/gcc/i686-linux-gnu/4.6/../../../i386-linux-gnu/crti.o
 .rel.text.timer_expired
                0x000000000000c0bc        0x8 /usr/lib/gcc/i686-linux-gnu/4.6/../../../i386-linux-gnu/crti.o
 .rel.text.timer_remaining
                0x000000000000c0c4        0x8 /usr/lib/gcc/i686-linux-gnu/4.6/../../../i386-linux-gnu/crti.o
 .rel.text.rtimer_init
                0x000000000000c0cc        0x8 /usr/lib/gcc/i686-linux-gnu/4.6/../../../i386-linux-gnu/crti.o
 .rel.text.rtimer_set
                0x000000000000c0d4       0x18 /usr/lib/gcc/i686-linux-gnu/4.6/../../../i386-linux-gnu/crti.o
 .rel.text.rtimer_run_next
                0x000000000000c0ec       0x30 /usr/lib/gcc/i686-linux-gnu/4.6/../../../i386-linux-gnu/crti.o
 .rel.text.stimer_set
                0x000000000000c11c        0x8 /usr/lib/gcc/i686-linux-gnu/4.6/../../../i386-linux-gnu/crti.o
 .rel.text.stimer_restart
                0x000000000000c124        0x8 /usr/lib/gcc/i686-linux-gnu/4.6/../../../i386-linux-gnu/crti.o
 .rel.text.stimer_expired
                0x000000000000c12c        0x8 /usr/lib/gcc/i686-linux-gnu/4.6/../../../i386-linux-gnu/crti.o
 .rel.text.stimer_remaining
                0x000000000000c134        0x8 /usr/lib/gcc/i686-linux-gnu/4.6/../../../i386-linux-gnu/crti.o
 .rel.text.stimer_elapsed
                0x000000000000c13c        0x8 /usr/lib/gcc/i686-linux-gnu/4.6/../../../i386-linux-gnu/crti.o
 .rel.text.key_from_index
                0x000000000000c144        0x8 /usr/lib/gcc/i686-linux-gnu/4.6/../../../i386-linux-gnu/crti.o
 .rel.text.index_from_key
                0x000000000000c14c        0x8 /usr/lib/gcc/i686-linux-gnu/4.6/../../../i386-linux-gnu/crti.o
 .rel.text.index_from_lladdr
                0x000000000000c154       0x28 /usr/lib/gcc/i686-linux-gnu/4.6/../../../i386-linux-gnu/crti.o
 .rel.text.nbr_table_allocate
                0x000000000000c17c       0x80 /usr/lib/gcc/i686-linux-gnu/4.6/../../../i386-linux-gnu/crti.o
 .rel.text.nbr_table_register
                0x000000000000c1fc       0x20 /usr/lib/gcc/i686-linux-gnu/4.6/../../../i386-linux-gnu/crti.o
 .rel.text.nbr_table_head
                0x000000000000c21c       0x20 /usr/lib/gcc/i686-linux-gnu/4.6/../../../i386-linux-gnu/crti.o
 .rel.text.nbr_table_next
                0x000000000000c23c       0x10 /usr/lib/gcc/i686-linux-gnu/4.6/../../../i386-linux-gnu/crti.o
 .rel.text.nbr_table_add_lladdr
                0x000000000000c24c       0x30 /usr/lib/gcc/i686-linux-gnu/4.6/../../../i386-linux-gnu/crti.o
 .rel.text.nbr_table_get_from_lladdr
                0x000000000000c27c        0x8 /usr/lib/gcc/i686-linux-gnu/4.6/../../../i386-linux-gnu/crti.o
 .rel.text.nbr_table_remove
                0x000000000000c284       0x10 /usr/lib/gcc/i686-linux-gnu/4.6/../../../i386-linux-gnu/crti.o
 .rel.text.nbr_table_lock
                0x000000000000c294        0x8 /usr/lib/gcc/i686-linux-gnu/4.6/../../../i386-linux-gnu/crti.o
 .rel.text.nbr_table_unlock
                0x000000000000c29c        0x8 /usr/lib/gcc/i686-linux-gnu/4.6/../../../i386-linux-gnu/crti.o
 .rel.text.uip_icmp6_echo_request_input
                0x000000000000c2a4      0x1f0 /usr/lib/gcc/i686-linux-gnu/4.6/../../../i386-linux-gnu/crti.o
 .rel.text.uip_icmp6_error_output
                0x000000000000c494      0x238 /usr/lib/gcc/i686-linux-gnu/4.6/../../../i386-linux-gnu/crti.o
 .rel.text.uip_icmp6_send
                0x000000000000c6cc       0xb8 /usr/lib/gcc/i686-linux-gnu/4.6/../../../i386-linux-gnu/crti.o
 *(.rel.fini)
 *(.rel.rodata .rel.rodata.* .rel.gnu.linkonce.r.*)
 .rel.rodata    0x000000000000c784      0x610 /usr/lib/gcc/i686-linux-gnu/4.6/../../../i386-linux-gnu/crti.o
 *(.rel.data.rel.ro* .rel.gnu.linkonce.d.rel.ro.*)
 *(.rel.data .rel.data.* .rel.gnu.linkonce.d.*)
 .rel.data.rel  0x000000000000cd94        0x8 /usr/lib/gcc/i686-linux-gnu/4.6/../../../i386-linux-gnu/crti.o
 .rel.data      0x000000000000cd9c      0x220 /usr/lib/gcc/i686-linux-gnu/4.6/../../../i386-linux-gnu/crti.o
 *(.rel.tdata .rel.tdata.* .rel.gnu.linkonce.td.*)
 *(.rel.tbss .rel.tbss.* .rel.gnu.linkonce.tb.*)
 *(.rel.ctors)
 *(.rel.dtors)
 *(.rel.got)
 .rel.got       0x000000000000cfbc       0x18 /usr/lib/gcc/i686-linux-gnu/4.6/../../../i386-linux-gnu/crti.o
 *(.rel.bss .rel.bss.* .rel.gnu.linkonce.b.*)
 *(.rel.ifunc)
 .rel.ifunc     0x0000000000000000        0x0 /usr/lib/gcc/i686-linux-gnu/4.6/../../../i386-linux-gnu/crti.o

.rel.plt        0x000000000000cfd4       0x10
 *(.rel.plt)
 .rel.plt       0x000000000000cfd4       0x10 /usr/lib/gcc/i686-linux-gnu/4.6/../../../i386-linux-gnu/crti.o
 *(.rel.iplt)

.init           0x000000000000cfe4       0x2e
 *(.init)
 .init          0x000000000000cfe4       0x1f /usr/lib/gcc/i686-linux-gnu/4.6/../../../i386-linux-gnu/crti.o
                0x000000000000cfe4                _init
 .init          0x000000000000d003        0x5 /usr/lib/gcc/i686-linux-gnu/4.6/crtbeginS.o
 .init          0x000000000000d008        0x5 /usr/lib/gcc/i686-linux-gnu/4.6/crtendS.o
 .init          0x000000000000d00d        0x5 /usr/lib/gcc/i686-linux-gnu/4.6/../../../i386-linux-gnu/crtn.o

.plt            0x000000000000d020       0x30
 *(.plt)
 .plt           0x000000000000d020       0x30 /usr/lib/gcc/i686-linux-gnu/4.6/../../../i386-linux-gnu/crti.o
 *(.iplt)

.text           0x000000000000d050    0x133b8
 *(.text.unlikely .text.*_unlikely)
 *(.text.exit .text.exit.*)
 *(.text.startup .text.startup.*)
 *(.text.hot .text.hot.*)
 *(.text .stub .text.* .gnu.linkonce.t.*)
 .text          0x000000000000d050        0x0 /usr/lib/gcc/i686-linux-gnu/4.6/../../../i386-linux-gnu/crti.o
 .text          0x000000000000d050       0xb7 /usr/lib/gcc/i686-linux-gnu/4.6/crtbeginS.o
 .text.__i686.get_pc_thunk.bx
                0x000000000000d107        0x4 /usr/lib/gcc/i686-linux-gnu/4.6/crtbeginS.o
                0x000000000000d107                __i686.get_pc_thunk.bx
 *fill*         0x000000000000d10b        0x1 90909090
 .text          0x000000000000d10c        0x0 room-controller.co
 .text.receiver
                0x000000000000d10c       0x59 room-controller.co
 .text.process_thread_broadcast_process
                0x000000000000d165      0x910 room-controller.co
 *fill*         0x000000000000da75        0x3 90909090
 .text          0x000000000000da78        0x0 obj_cooja/mtype263.o
 .text.print_processes
                0x000000000000da78       0x49 obj_cooja/mtype263.o
 .text.rtimer_thread_loop
                0x000000000000dac1       0x12 obj_cooja/mtype263.o
 .text.set_rime_addr
                0x000000000000dad3       0xd1 obj_cooja/mtype263.o
 .text.contiki_init
                0x000000000000dba4      0x3b0 obj_cooja/mtype263.o
                0x000000000000dba4                contiki_init
 .text.process_run_thread_loop
                0x000000000000df54       0x6e obj_cooja/mtype263.o
 .text.Java_se_sics_cooja_corecomm_Lib205_init
                0x000000000000dfc2       0x40 obj_cooja/mtype263.o
                0x000000000000dfc2                Java_se_sics_cooja_corecomm_Lib205_init
 .text.Java_se_sics_cooja_corecomm_Lib205_getMemory
                0x000000000000e002       0x3d obj_cooja/mtype263.o
                0x000000000000e002                Java_se_sics_cooja_corecomm_Lib205_getMemory
 .text.Java_se_sics_cooja_corecomm_Lib205_setMemory
                0x000000000000e03f       0x74 obj_cooja/mtype263.o
                0x000000000000e03f                Java_se_sics_cooja_corecomm_Lib205_setMemory
 .text.Java_se_sics_cooja_corecomm_Lib205_tick
                0x000000000000e0b3       0xe1 obj_cooja/mtype263.o
                0x000000000000e0b3                Java_se_sics_cooja_corecomm_Lib205_tick
 .text.Java_se_sics_cooja_corecomm_Lib205_setReferenceAddress
                0x000000000000e194       0x12 obj_cooja/mtype263.o
                0x000000000000e194                Java_se_sics_cooja_corecomm_Lib205_setReferenceAddress
 *fill*         0x000000000000e1a6        0x2 90909090
 .text          0x000000000000e1a8        0x0 obj_cooja/mtype263.a(rimeaddr.o)
 .text.rimeaddr_copy
                0x000000000000e1a8       0x15 obj_cooja/mtype263.a(rimeaddr.o)
                0x000000000000e1a8                rimeaddr_copy
 .text.rimeaddr_cmp
                0x000000000000e1bd       0x2a obj_cooja/mtype263.a(rimeaddr.o)
                0x000000000000e1bd                rimeaddr_cmp
 .text.rimeaddr_set_node_addr
                0x000000000000e1e7       0x1b obj_cooja/mtype263.a(rimeaddr.o)
                0x000000000000e1e7                rimeaddr_set_node_addr
 *fill*         0x000000000000e202        0x2 90909090
 .text          0x000000000000e204        0x0 obj_cooja/mtype263.a(nullrdc.o)
 .text.packetbuf_set_attr
                0x000000000000e204       0x2a obj_cooja/mtype263.a(nullrdc.o)
 .text.packetbuf_attr
                0x000000000000e22e       0x1a obj_cooja/mtype263.a(nullrdc.o)
 .text.packetbuf_set_addr
                0x000000000000e248       0x32 obj_cooja/mtype263.a(nullrdc.o)
 .text.packetbuf_addr
                0x000000000000e27a       0x1d obj_cooja/mtype263.a(nullrdc.o)
 .text.send_one_packet
                0x000000000000e297      0x1f9 obj_cooja/mtype263.a(nullrdc.o)
 .text.send_packet
                0x000000000000e490       0x1a obj_cooja/mtype263.a(nullrdc.o)
 .text.send_list
                0x000000000000e4aa       0x4a obj_cooja/mtype263.a(nullrdc.o)
 .text.packet_input
                0x000000000000e4f4      0x212 obj_cooja/mtype263.a(nullrdc.o)
 .text.on       0x000000000000e706        0xf obj_cooja/mtype263.a(nullrdc.o)
 .text.off      0x000000000000e715       0x1e obj_cooja/mtype263.a(nullrdc.o)
 .text.channel_check_interval
                0x000000000000e733        0xa obj_cooja/mtype263.a(nullrdc.o)
 .text.init     0x000000000000e73d        0xd obj_cooja/mtype263.a(nullrdc.o)
 *fill*         0x000000000000e74a        0x2 90909090
 .text          0x000000000000e74c        0x0 obj_cooja/mtype263.a(mac.o)
 .text.mac_call_sent_callback
                0x000000000000e74c       0x3c obj_cooja/mtype263.a(mac.o)
                0x000000000000e74c                mac_call_sent_callback
 .text          0x000000000000e788        0x0 obj_cooja/mtype263.a(framer-802154.o)
 .text.packetbuf_set_attr
                0x000000000000e788       0x2a obj_cooja/mtype263.a(framer-802154.o)
 .text.packetbuf_attr
                0x000000000000e7b2       0x1a obj_cooja/mtype263.a(framer-802154.o)
 .text.packetbuf_set_addr
                0x000000000000e7cc       0x32 obj_cooja/mtype263.a(framer-802154.o)
 .text.packetbuf_addr
                0x000000000000e7fe       0x1d obj_cooja/mtype263.a(framer-802154.o)
 .text.is_broadcast_addr
                0x000000000000e81b       0x4d obj_cooja/mtype263.a(framer-802154.o)
 .text.create   0x000000000000e868      0x1cd obj_cooja/mtype263.a(framer-802154.o)
 .text.parse    0x000000000000ea35      0x12c obj_cooja/mtype263.a(framer-802154.o)
 *fill*         0x000000000000eb61        0x3 90909090
 .text          0x000000000000eb64        0x0 obj_cooja/mtype263.a(csma.o)
 .text.packetbuf_set_attr
                0x000000000000eb64       0x2a obj_cooja/mtype263.a(csma.o)
 .text.packetbuf_attr
                0x000000000000eb8e       0x1a obj_cooja/mtype263.a(csma.o)
 .text.packetbuf_addr
                0x000000000000eba8       0x1d obj_cooja/mtype263.a(csma.o)
 .text.neighbor_queue_from_addr
                0x000000000000ebc5       0x51 obj_cooja/mtype263.a(csma.o)
 .text.default_timebase
                0x000000000000ec16       0x25 obj_cooja/mtype263.a(csma.o)
 .text.transmit_packet_list
                0x000000000000ec3b       0x48 obj_cooja/mtype263.a(csma.o)
 .text.free_packet
                0x000000000000ec83       0xe2 obj_cooja/mtype263.a(csma.o)
 .text.packet_sent
                0x000000000000ed65      0x215 obj_cooja/mtype263.a(csma.o)
 .text.send_packet
                0x000000000000ef7a      0x28b obj_cooja/mtype263.a(csma.o)
 .text.input_packet
                0x000000000000f205        0xf obj_cooja/mtype263.a(csma.o)
 .text.on       0x000000000000f214        0xf obj_cooja/mtype263.a(csma.o)
 .text.off      0x000000000000f223       0x16 obj_cooja/mtype263.a(csma.o)
 .text.channel_check_interval
                0x000000000000f239       0x1f obj_cooja/mtype263.a(csma.o)
 .text.init     0x000000000000f258       0x2c obj_cooja/mtype263.a(csma.o)
 .text          0x000000000000f284        0x0 obj_cooja/mtype263.a(process.o)
 .text.process_alloc_event
                0x000000000000f284       0x18 obj_cooja/mtype263.a(process.o)
                0x000000000000f284                process_alloc_event
 .text.process_start
                0x000000000000f29c       0x70 obj_cooja/mtype263.a(process.o)
                0x000000000000f29c                process_start
 .text.exit_process
                0x000000000000f30c       0xec obj_cooja/mtype263.a(process.o)
 .text.call_process
                0x000000000000f3f8       0x90 obj_cooja/mtype263.a(process.o)
 .text.process_exit
                0x000000000000f488       0x1c obj_cooja/mtype263.a(process.o)
                0x000000000000f488                process_exit
 .text.process_init
                0x000000000000f4a4       0x33 obj_cooja/mtype263.a(process.o)
                0x000000000000f4a4                process_init
 .text.do_poll  0x000000000000f4d7       0x5b obj_cooja/mtype263.a(process.o)
 .text.do_event
                0x000000000000f532      0x145 obj_cooja/mtype263.a(process.o)
 .text.process_run
                0x000000000000f677       0x33 obj_cooja/mtype263.a(process.o)
                0x000000000000f677                process_run
 .text.process_nevents
                0x000000000000f6aa       0x1b obj_cooja/mtype263.a(process.o)
                0x000000000000f6aa                process_nevents
 .text.process_post
                0x000000000000f6c5       0xac obj_cooja/mtype263.a(process.o)
                0x000000000000f6c5                process_post
 .text.process_post_synch
                0x000000000000f771       0x38 obj_cooja/mtype263.a(process.o)
                0x000000000000f771                process_post_synch
 .text.process_poll
                0x000000000000f7a9       0x2f obj_cooja/mtype263.a(process.o)
                0x000000000000f7a9                process_poll
 .text.process_is_running
                0x000000000000f7d8       0x14 obj_cooja/mtype263.a(process.o)
                0x000000000000f7d8                process_is_running
 .text          0x000000000000f7ec        0x0 obj_cooja/mtype263.a(autostart.o)
 .text.autostart_start
                0x000000000000f7ec       0x3f obj_cooja/mtype263.a(autostart.o)
                0x000000000000f7ec                autostart_start
 .text.autostart_exit
                0x000000000000f82b       0x37 obj_cooja/mtype263.a(autostart.o)
                0x000000000000f82b                autostart_exit
 *fill*         0x000000000000f862        0x2 90909090
 .text          0x000000000000f864        0x0 obj_cooja/mtype263.a(serial-line.o)
 .text.serial_line_input_byte
                0x000000000000f864       0x7d obj_cooja/mtype263.a(serial-line.o)
                0x000000000000f864                serial_line_input_byte
 .text.process_thread_serial_line_process
                0x000000000000f8e1      0x137 obj_cooja/mtype263.a(serial-line.o)
 .text.serial_line_init
                0x000000000000fa18       0x38 obj_cooja/mtype263.a(serial-line.o)
                0x000000000000fa18                serial_line_init
 .text          0x000000000000fa50        0x0 obj_cooja/mtype263.a(memb.o)
 .text.memb_init
                0x000000000000fa50       0x5e obj_cooja/mtype263.a(memb.o)
                0x000000000000fa50                memb_init
 .text.memb_alloc
                0x000000000000faae       0x65 obj_cooja/mtype263.a(memb.o)
                0x000000000000faae                memb_alloc
 .text.memb_free
                0x000000000000fb13       0x7b obj_cooja/mtype263.a(memb.o)
                0x000000000000fb13                memb_free
 .text.memb_inmemb
                0x000000000000fb8e       0x3f obj_cooja/mtype263.a(memb.o)
                0x000000000000fb8e                memb_inmemb
 *fill*         0x000000000000fbcd        0x3 90909090
 .text          0x000000000000fbd0        0x0 obj_cooja/mtype263.a(list.o)
 .text.list_init
                0x000000000000fbd0        0xe obj_cooja/mtype263.a(list.o)
                0x000000000000fbd0                list_init
 .text.list_head
                0x000000000000fbde        0xa obj_cooja/mtype263.a(list.o)
                0x000000000000fbde                list_head
 .text.list_copy
                0x000000000000fbe8        0xf obj_cooja/mtype263.a(list.o)
                0x000000000000fbe8                list_copy
 .text.list_tail
                0x000000000000fbf7       0x36 obj_cooja/mtype263.a(list.o)
                0x000000000000fbf7                list_tail
 .text.list_add
                0x000000000000fc2d       0x49 obj_cooja/mtype263.a(list.o)
                0x000000000000fc2d                list_add
 .text.list_push
                0x000000000000fc76       0x2c obj_cooja/mtype263.a(list.o)
                0x000000000000fc76                list_push
 .text.list_chop
                0x000000000000fca2       0x6a obj_cooja/mtype263.a(list.o)
                0x000000000000fca2                list_chop
 .text.list_pop
                0x000000000000fd0c       0x28 obj_cooja/mtype263.a(list.o)
                0x000000000000fd0c                list_pop
 .text.list_remove
                0x000000000000fd34       0x68 obj_cooja/mtype263.a(list.o)
                0x000000000000fd34                list_remove
 .text.list_length
                0x000000000000fd9c       0x2e obj_cooja/mtype263.a(list.o)
                0x000000000000fd9c                list_length
 .text.list_insert
                0x000000000000fdca       0x34 obj_cooja/mtype263.a(list.o)
                0x000000000000fdca                list_insert
 .text.list_item_next
                0x000000000000fdfe       0x17 obj_cooja/mtype263.a(list.o)
                0x000000000000fdfe                list_item_next
 *fill*         0x000000000000fe15        0x3 90909090
 .text          0x000000000000fe18        0x0 obj_cooja/mtype263.a(etimer.o)
 .text.update_time
                0x000000000000fe18       0x8f obj_cooja/mtype263.a(etimer.o)
 .text.process_thread_etimer_process
                0x000000000000fea7      0x190 obj_cooja/mtype263.a(etimer.o)
 .text.etimer_request_poll
                0x0000000000010037       0x14 obj_cooja/mtype263.a(etimer.o)
                0x0000000000010037                etimer_request_poll
 .text.add_timer
                0x000000000001004b       0x70 obj_cooja/mtype263.a(etimer.o)
 .text.etimer_set
                0x00000000000100bb       0x25 obj_cooja/mtype263.a(etimer.o)
                0x00000000000100bb                etimer_set
 .text.etimer_reset
                0x00000000000100e0       0x1e obj_cooja/mtype263.a(etimer.o)
                0x00000000000100e0                etimer_reset
 .text.etimer_restart
                0x00000000000100fe       0x1e obj_cooja/mtype263.a(etimer.o)
                0x00000000000100fe                etimer_restart
 .text.etimer_adjust
                0x000000000001011c       0x1c obj_cooja/mtype263.a(etimer.o)
                0x000000000001011c                etimer_adjust
 .text.etimer_expired
                0x0000000000010138       0x13 obj_cooja/mtype263.a(etimer.o)
                0x0000000000010138                etimer_expired
 .text.etimer_expiration_time
                0x000000000001014b       0x12 obj_cooja/mtype263.a(etimer.o)
                0x000000000001014b                etimer_expiration_time
 .text.etimer_start_time
                0x000000000001015d        0xa obj_cooja/mtype263.a(etimer.o)
                0x000000000001015d                etimer_start_time
 .text.etimer_pending
                0x0000000000010167       0x12 obj_cooja/mtype263.a(etimer.o)
                0x0000000000010167                etimer_pending
 .text.etimer_next_expiration_time
                0x0000000000010179       0x1a obj_cooja/mtype263.a(etimer.o)
                0x0000000000010179                etimer_next_expiration_time
 .text.etimer_stop
                0x0000000000010193       0x75 obj_cooja/mtype263.a(etimer.o)
                0x0000000000010193                etimer_stop
 .text          0x0000000000010208        0x0 obj_cooja/mtype263.a(ctimer.o)
 .text.process_thread_ctimer_process
                0x0000000000010208      0x11b obj_cooja/mtype263.a(ctimer.o)
 .text.ctimer_init
                0x0000000000010323       0x30 obj_cooja/mtype263.a(ctimer.o)
                0x0000000000010323                ctimer_init
 .text.ctimer_set
                0x0000000000010353       0x93 obj_cooja/mtype263.a(ctimer.o)
                0x0000000000010353                ctimer_set
 .text.ctimer_reset
                0x00000000000103e6       0x63 obj_cooja/mtype263.a(ctimer.o)
                0x00000000000103e6                ctimer_reset
 .text.ctimer_restart
                0x0000000000010449       0x63 obj_cooja/mtype263.a(ctimer.o)
                0x0000000000010449                ctimer_restart
 .text.ctimer_stop
                0x00000000000104ac       0x4b obj_cooja/mtype263.a(ctimer.o)
                0x00000000000104ac                ctimer_stop
 .text.ctimer_expired
                0x00000000000104f7       0x57 obj_cooja/mtype263.a(ctimer.o)
                0x00000000000104f7                ctimer_expired
 *fill*         0x000000000001054e        0x2 90909090
 .text          0x0000000000010550        0x0 obj_cooja/mtype263.a(energest.o)
 .text.energest_type_set
                0x0000000000010550        0x5 obj_cooja/mtype263.a(energest.o)
                0x0000000000010550                energest_type_set
 .text.energest_init
                0x0000000000010555        0x5 obj_cooja/mtype263.a(energest.o)
                0x0000000000010555                energest_init
 .text.energest_type_time
                0x000000000001055a        0xa obj_cooja/mtype263.a(energest.o)
                0x000000000001055a                energest_type_time
 .text.energest_flush
                0x0000000000010564        0x5 obj_cooja/mtype263.a(energest.o)
                0x0000000000010564                energest_flush
 *fill*         0x0000000000010569        0x3 90909090
 .text          0x000000000001056c        0x0 obj_cooja/mtype263.a(random.o)
 .text.random_init
                0x000000000001056c       0x1b obj_cooja/mtype263.a(random.o)
                0x000000000001056c                random_init
 .text.random_rand
                0x0000000000010587        0xd obj_cooja/mtype263.a(random.o)
                0x0000000000010587                random_rand
 .text          0x0000000000010594        0x0 obj_cooja/mtype263.a(ringbuf.o)
 .text.ringbuf_init
                0x0000000000010594       0x31 obj_cooja/mtype263.a(ringbuf.o)
                0x0000000000010594                ringbuf_init
 .text.ringbuf_put
                0x00000000000105c5       0x7e obj_cooja/mtype263.a(ringbuf.o)
                0x00000000000105c5                ringbuf_put
 .text.ringbuf_get
                0x0000000000010643       0x6d obj_cooja/mtype263.a(ringbuf.o)
                0x0000000000010643                ringbuf_get
 .text.ringbuf_size
                0x00000000000106b0       0x12 obj_cooja/mtype263.a(ringbuf.o)
                0x00000000000106b0                ringbuf_size
 .text.ringbuf_elements
                0x00000000000106c2       0x27 obj_cooja/mtype263.a(ringbuf.o)
                0x00000000000106c2                ringbuf_elements
 *fill*         0x00000000000106e9        0x3 90909090
 .text          0x00000000000106ec        0x0 obj_cooja/mtype263.a(netstack.o)
 .text.netstack_init
                0x00000000000106ec       0x24 obj_cooja/mtype263.a(netstack.o)
                0x00000000000106ec                netstack_init
 .text          0x0000000000010710        0x0 obj_cooja/mtype263.a(packetbuf.o)
 .text.packetbuf_clear
                0x0000000000010710       0x37 obj_cooja/mtype263.a(packetbuf.o)
                0x0000000000010710                packetbuf_clear
 .text.packetbuf_clear_hdr
                0x0000000000010747        0xc obj_cooja/mtype263.a(packetbuf.o)
                0x0000000000010747                packetbuf_clear_hdr
 .text.packetbuf_copyfrom
                0x0000000000010753       0x52 obj_cooja/mtype263.a(packetbuf.o)
                0x0000000000010753                packetbuf_copyfrom
 .text.packetbuf_compact
                0x00000000000107a5       0x9e obj_cooja/mtype263.a(packetbuf.o)
                0x00000000000107a5                packetbuf_compact
 .text.packetbuf_copyto_hdr
                0x0000000000010843       0x5a obj_cooja/mtype263.a(packetbuf.o)
                0x0000000000010843                packetbuf_copyto_hdr
 .text.packetbuf_copyto
                0x000000000001089d       0xe3 obj_cooja/mtype263.a(packetbuf.o)
                0x000000000001089d                packetbuf_copyto
 .text.packetbuf_hdralloc
                0x0000000000010980       0x4a obj_cooja/mtype263.a(packetbuf.o)
                0x0000000000010980                packetbuf_hdralloc
 .text.packetbuf_hdr_remove
                0x00000000000109ca       0x18 obj_cooja/mtype263.a(packetbuf.o)
                0x00000000000109ca                packetbuf_hdr_remove
 .text.packetbuf_hdrreduce
                0x00000000000109e2       0x4b obj_cooja/mtype263.a(packetbuf.o)
                0x00000000000109e2                packetbuf_hdrreduce
 .text.packetbuf_set_datalen
                0x0000000000010a2d       0x19 obj_cooja/mtype263.a(packetbuf.o)
                0x0000000000010a2d                packetbuf_set_datalen
 .text.packetbuf_dataptr
                0x0000000000010a46       0x19 obj_cooja/mtype263.a(packetbuf.o)
                0x0000000000010a46                packetbuf_dataptr
 .text.packetbuf_hdrptr
                0x0000000000010a5f       0x17 obj_cooja/mtype263.a(packetbuf.o)
                0x0000000000010a5f                packetbuf_hdrptr
 .text.packetbuf_reference
                0x0000000000010a76       0x26 obj_cooja/mtype263.a(packetbuf.o)
                0x0000000000010a76                packetbuf_reference
 .text.packetbuf_is_reference
                0x0000000000010a9c       0x1a obj_cooja/mtype263.a(packetbuf.o)
                0x0000000000010a9c                packetbuf_is_reference
 .text.packetbuf_reference_ptr
                0x0000000000010ab6        0xa obj_cooja/mtype263.a(packetbuf.o)
                0x0000000000010ab6                packetbuf_reference_ptr
 .text.packetbuf_datalen
                0x0000000000010ac0        0xc obj_cooja/mtype263.a(packetbuf.o)
                0x0000000000010ac0                packetbuf_datalen
 .text.packetbuf_hdrlen
                0x0000000000010acc       0x17 obj_cooja/mtype263.a(packetbuf.o)
                0x0000000000010acc                packetbuf_hdrlen
 .text.packetbuf_totlen
                0x0000000000010ae3       0x16 obj_cooja/mtype263.a(packetbuf.o)
                0x0000000000010ae3                packetbuf_totlen
 .text.packetbuf_attr_clear
                0x0000000000010af9       0x56 obj_cooja/mtype263.a(packetbuf.o)
                0x0000000000010af9                packetbuf_attr_clear
 .text.packetbuf_attr_copyto
                0x0000000000010b4f       0x9d obj_cooja/mtype263.a(packetbuf.o)
                0x0000000000010b4f                packetbuf_attr_copyto
 .text.packetbuf_attr_copyfrom
                0x0000000000010bec       0x9c obj_cooja/mtype263.a(packetbuf.o)
                0x0000000000010bec                packetbuf_attr_copyfrom
 .text          0x0000000000010c88        0x0 obj_cooja/mtype263.a(queuebuf.o)
 .text.queuebuf_load_to_ram
                0x0000000000010c88        0xa obj_cooja/mtype263.a(queuebuf.o)
 .text.queuebuf_init
                0x0000000000010c92       0x2c obj_cooja/mtype263.a(queuebuf.o)
                0x0000000000010c92                queuebuf_init
 .text.queuebuf_new_from_packetbuf
                0x0000000000010cbe       0xcb obj_cooja/mtype263.a(queuebuf.o)
                0x0000000000010cbe                queuebuf_new_from_packetbuf
 .text.queuebuf_update_attr_from_packetbuf
                0x0000000000010d89       0x33 obj_cooja/mtype263.a(queuebuf.o)
                0x0000000000010d89                queuebuf_update_attr_from_packetbuf
 .text.queuebuf_free
                0x0000000000010dbc       0x73 obj_cooja/mtype263.a(queuebuf.o)
                0x0000000000010dbc                queuebuf_free
 .text.queuebuf_to_packetbuf
                0x0000000000010e2f       0xe8 obj_cooja/mtype263.a(queuebuf.o)
                0x0000000000010e2f                queuebuf_to_packetbuf
 .text.queuebuf_dataptr
                0x0000000000010f17       0x5f obj_cooja/mtype263.a(queuebuf.o)
                0x0000000000010f17                queuebuf_dataptr
 .text.queuebuf_datalen
                0x0000000000010f76       0x1f obj_cooja/mtype263.a(queuebuf.o)
                0x0000000000010f76                queuebuf_datalen
 .text.queuebuf_addr
                0x0000000000010f95       0x2f obj_cooja/mtype263.a(queuebuf.o)
                0x0000000000010f95                queuebuf_addr
 .text.queuebuf_attr
                0x0000000000010fc4       0x2b obj_cooja/mtype263.a(queuebuf.o)
                0x0000000000010fc4                queuebuf_attr
 .text.queuebuf_debug_print
                0x0000000000010fef        0x5 obj_cooja/mtype263.a(queuebuf.o)
                0x0000000000010fef                queuebuf_debug_print
 .text          0x0000000000010ff4        0x0 obj_cooja/mtype263.a(sicslowpan.o)
 .text.packetbuf_set_attr
                0x0000000000010ff4       0x2a obj_cooja/mtype263.a(sicslowpan.o)
 .text.packetbuf_set_addr
                0x000000000001101e       0x32 obj_cooja/mtype263.a(sicslowpan.o)
 .text.packetbuf_addr
                0x0000000000011050       0x1d obj_cooja/mtype263.a(sicslowpan.o)
 .text.rime_sniffer_add
                0x000000000001106d        0xd obj_cooja/mtype263.a(sicslowpan.o)
                0x000000000001106d                rime_sniffer_add
 .text.rime_sniffer_remove
                0x000000000001107a        0xf obj_cooja/mtype263.a(sicslowpan.o)
                0x000000000001107a                rime_sniffer_remove
 .text.set_packet_attrs
                0x0000000000011089       0xe9 obj_cooja/mtype263.a(sicslowpan.o)
 .text.addr_context_lookup_by_prefix
                0x0000000000011172       0x7a obj_cooja/mtype263.a(sicslowpan.o)
 .text.addr_context_lookup_by_number
                0x00000000000111ec       0x6a obj_cooja/mtype263.a(sicslowpan.o)
 .text.compress_addr_64
                0x0000000000011256      0x163 obj_cooja/mtype263.a(sicslowpan.o)
 .text.uncompress_addr
                0x00000000000113b9      0x12e obj_cooja/mtype263.a(sicslowpan.o)
 .text.compress_hdr_hc06
                0x00000000000114e7      0x942 obj_cooja/mtype263.a(sicslowpan.o)
 .text.uncompress_hdr_hc06
                0x0000000000011e29      0x77d obj_cooja/mtype263.a(sicslowpan.o)
 .text.compress_hdr_ipv6
                0x00000000000125a6       0x8d obj_cooja/mtype263.a(sicslowpan.o)
 .text.packet_sent
                0x0000000000012633       0x3b obj_cooja/mtype263.a(sicslowpan.o)
 .text.send_packet
                0x000000000001266e       0x36 obj_cooja/mtype263.a(sicslowpan.o)
 .text.output   0x00000000000126a4      0x54f obj_cooja/mtype263.a(sicslowpan.o)
 .text.input    0x0000000000012bf3      0x54f obj_cooja/mtype263.a(sicslowpan.o)
 .text.sicslowpan_init
                0x0000000000013142       0x57 obj_cooja/mtype263.a(sicslowpan.o)
                0x0000000000013142                sicslowpan_init
 *fill*         0x0000000000013199        0x3 90909090
 .text          0x000000000001319c        0x0 obj_cooja/mtype263.a(simple-udp.o)
 .text.init_simple_udp
                0x000000000001319c       0x2e obj_cooja/mtype263.a(simple-udp.o)
 .text.simple_udp_send
                0x00000000000131ca       0x6d obj_cooja/mtype263.a(simple-udp.o)
                0x00000000000131ca                simple_udp_send
 .text.simple_udp_sendto
                0x0000000000013237       0x65 obj_cooja/mtype263.a(simple-udp.o)
                0x0000000000013237                simple_udp_sendto
 .text.simple_udp_sendto_port
                0x000000000001329c       0x63 obj_cooja/mtype263.a(simple-udp.o)
                0x000000000001329c                simple_udp_sendto_port
 .text.simple_udp_register
                0x00000000000132ff       0xe6 obj_cooja/mtype263.a(simple-udp.o)
                0x00000000000132ff                simple_udp_register
 .text.process_thread_simple_udp_process
                0x00000000000133e5      0x15b obj_cooja/mtype263.a(simple-udp.o)
 .text          0x0000000000013540        0x0 obj_cooja/mtype263.a(tcpip.o)
 .text.tcpip_output
                0x0000000000013540       0x2f obj_cooja/mtype263.a(tcpip.o)
                0x0000000000013540                tcpip_output
 .text.tcpip_set_outputfunc
                0x000000000001356f        0xd obj_cooja/mtype263.a(tcpip.o)
                0x000000000001356f                tcpip_set_outputfunc
 .text.start_periodic_tcp_timer
                0x000000000001357c       0x24 obj_cooja/mtype263.a(tcpip.o)
 .text.check_for_tcp_syn
                0x00000000000135a0       0x2d obj_cooja/mtype263.a(tcpip.o)
 .text.packet_input
                0x00000000000135cd       0x36 obj_cooja/mtype263.a(tcpip.o)
 .text.tcp_connect
                0x0000000000013603       0x55 obj_cooja/mtype263.a(tcpip.o)
                0x0000000000013603                tcp_connect
 .text.tcp_unlisten
                0x0000000000013658       0x6e obj_cooja/mtype263.a(tcpip.o)
                0x0000000000013658                tcp_unlisten
 .text.tcp_listen
                0x00000000000136c6       0x6c obj_cooja/mtype263.a(tcpip.o)
                0x00000000000136c6                tcp_listen
 .text.tcp_attach
                0x0000000000013732       0x25 obj_cooja/mtype263.a(tcpip.o)
                0x0000000000013732                tcp_attach
 .text.udp_attach
                0x0000000000013757       0x25 obj_cooja/mtype263.a(tcpip.o)
                0x0000000000013757                udp_attach
 .text.udp_new  0x000000000001377c       0x52 obj_cooja/mtype263.a(tcpip.o)
                0x000000000001377c                udp_new
 .text.udp_broadcast_new
                0x00000000000137ce       0x92 obj_cooja/mtype263.a(tcpip.o)
                0x00000000000137ce                udp_broadcast_new
 .text.eventhandler
                0x0000000000013860      0x21b obj_cooja/mtype263.a(tcpip.o)
 .text.tcpip_input
                0x0000000000013a7b       0x34 obj_cooja/mtype263.a(tcpip.o)
                0x0000000000013a7b                tcpip_input
 .text.tcpip_ipv6_output
                0x0000000000013aaf      0x483 obj_cooja/mtype263.a(tcpip.o)
                0x0000000000013aaf                tcpip_ipv6_output
 .text.tcpip_poll_udp
                0x0000000000013f32       0x23 obj_cooja/mtype263.a(tcpip.o)
                0x0000000000013f32                tcpip_poll_udp
 .text.tcpip_poll_tcp
                0x0000000000013f55       0x23 obj_cooja/mtype263.a(tcpip.o)
                0x0000000000013f55                tcpip_poll_tcp
 .text.tcpip_uipcall
                0x0000000000013f78       0xd0 obj_cooja/mtype263.a(tcpip.o)
                0x0000000000013f78                tcpip_uipcall
 .text.process_thread_tcpip_process
                0x0000000000014048       0xd3 obj_cooja/mtype263.a(tcpip.o)
 *fill*         0x000000000001411b        0x1 90909090
 .text          0x000000000001411c        0x0 obj_cooja/mtype263.a(uip-ds6-route.o)
 .text.call_route_callback
                0x000000000001411c       0x77 obj_cooja/mtype263.a(uip-ds6-route.o)
 .text.uip_ds6_notification_add
                0x0000000000014193       0x31 obj_cooja/mtype263.a(uip-ds6-route.o)
                0x0000000000014193                uip_ds6_notification_add
 .text.uip_ds6_notification_rm
                0x00000000000141c4       0x1c obj_cooja/mtype263.a(uip-ds6-route.o)
                0x00000000000141c4                uip_ds6_notification_rm
 .text.uip_ds6_route_init
                0x00000000000141e0       0x4f obj_cooja/mtype263.a(uip-ds6-route.o)
                0x00000000000141e0                uip_ds6_route_init
 .text.uip_ds6_route_nexthop_lladdr
                0x000000000001422f       0x2c obj_cooja/mtype263.a(uip-ds6-route.o)
 .text.uip_ds6_route_nexthop
                0x000000000001425b       0x28 obj_cooja/mtype263.a(uip-ds6-route.o)
                0x000000000001425b                uip_ds6_route_nexthop
 .text.uip_ds6_route_head
                0x0000000000014283       0x41 obj_cooja/mtype263.a(uip-ds6-route.o)
                0x0000000000014283                uip_ds6_route_head
 .text.uip_ds6_route_next
                0x00000000000142c4       0x5c obj_cooja/mtype263.a(uip-ds6-route.o)
                0x00000000000142c4                uip_ds6_route_next
 .text.uip_ds6_route_num_routes
                0x0000000000014320        0xa obj_cooja/mtype263.a(uip-ds6-route.o)
                0x0000000000014320                uip_ds6_route_num_routes
 .text.uip_ds6_route_lookup
                0x000000000001432a       0x7a obj_cooja/mtype263.a(uip-ds6-route.o)
                0x000000000001432a                uip_ds6_route_lookup
 .text.uip_ds6_route_add
                0x00000000000143a4      0x150 obj_cooja/mtype263.a(uip-ds6-route.o)
                0x00000000000143a4                uip_ds6_route_add
 .text.uip_ds6_route_rm
                0x00000000000144f4       0xac obj_cooja/mtype263.a(uip-ds6-route.o)
                0x00000000000144f4                uip_ds6_route_rm
 .text.rm_routelist
                0x00000000000145a0       0x61 obj_cooja/mtype263.a(uip-ds6-route.o)
 .text.rm_routelist_callback
                0x0000000000014601       0x13 obj_cooja/mtype263.a(uip-ds6-route.o)
 .text.uip_ds6_route_rm_by_nexthop
                0x0000000000014614       0x38 obj_cooja/mtype263.a(uip-ds6-route.o)
                0x0000000000014614                uip_ds6_route_rm_by_nexthop
 .text.uip_ds6_defrt_add
                0x000000000001464c       0xb1 obj_cooja/mtype263.a(uip-ds6-route.o)
                0x000000000001464c                uip_ds6_defrt_add
 .text.uip_ds6_defrt_rm
                0x00000000000146fd       0x7f obj_cooja/mtype263.a(uip-ds6-route.o)
                0x00000000000146fd                uip_ds6_defrt_rm
 .text.uip_ds6_defrt_lookup
                0x000000000001477c       0x59 obj_cooja/mtype263.a(uip-ds6-route.o)
                0x000000000001477c                uip_ds6_defrt_lookup
 .text.uip_ds6_defrt_choose
                0x00000000000147d5       0x6b obj_cooja/mtype263.a(uip-ds6-route.o)
                0x00000000000147d5                uip_ds6_defrt_choose
 .text.uip_ds6_defrt_periodic
                0x0000000000014840       0x68 obj_cooja/mtype263.a(uip-ds6-route.o)
                0x0000000000014840                uip_ds6_defrt_periodic
 .text          0x00000000000148a8        0x0 obj_cooja/mtype263.a(uip-ds6-nbr.o)
 .text.packetbuf_addr
                0x00000000000148a8       0x1d obj_cooja/mtype263.a(uip-ds6-nbr.o)
 .text.uip_ds6_neighbors_init
                0x00000000000148c5       0x1d obj_cooja/mtype263.a(uip-ds6-nbr.o)
                0x00000000000148c5                uip_ds6_neighbors_init
 .text.uip_ds6_nbr_add
                0x00000000000148e2       0xbb obj_cooja/mtype263.a(uip-ds6-nbr.o)
                0x00000000000148e2                uip_ds6_nbr_add
 .text.uip_ds6_nbr_rm
                0x000000000001499d       0x3b obj_cooja/mtype263.a(uip-ds6-nbr.o)
                0x000000000001499d                uip_ds6_nbr_rm
 .text.uip_ds6_nbr_get_ipaddr
                0x00000000000149d8       0x15 obj_cooja/mtype263.a(uip-ds6-nbr.o)
                0x00000000000149d8                uip_ds6_nbr_get_ipaddr
 .text.uip_ds6_nbr_get_ll
                0x00000000000149ed       0x1c obj_cooja/mtype263.a(uip-ds6-nbr.o)
                0x00000000000149ed                uip_ds6_nbr_get_ll
 .text.uip_ds6_nbr_num
                0x0000000000014a09       0x45 obj_cooja/mtype263.a(uip-ds6-nbr.o)
                0x0000000000014a09                uip_ds6_nbr_num
 .text.uip_ds6_nbr_lookup
                0x0000000000014a4e       0x65 obj_cooja/mtype263.a(uip-ds6-nbr.o)
                0x0000000000014a4e                uip_ds6_nbr_lookup
 .text.uip_ds6_nbr_ll_lookup
                0x0000000000014ab3       0x1c obj_cooja/mtype263.a(uip-ds6-nbr.o)
                0x0000000000014ab3                uip_ds6_nbr_ll_lookup
 .text.uip_ds6_nbr_ipaddr_from_lladdr
                0x0000000000014acf       0x26 obj_cooja/mtype263.a(uip-ds6-nbr.o)
                0x0000000000014acf                uip_ds6_nbr_ipaddr_from_lladdr
 .text.uip_ds6_nbr_lladdr_from_ipaddr
                0x0000000000014af5       0x2e obj_cooja/mtype263.a(uip-ds6-nbr.o)
                0x0000000000014af5                uip_ds6_nbr_lladdr_from_ipaddr
 .text.uip_ds6_link_neighbor_callback
                0x0000000000014b23       0x4a obj_cooja/mtype263.a(uip-ds6-nbr.o)
                0x0000000000014b23                uip_ds6_link_neighbor_callback
 .text.uip_ds6_neighbor_periodic
                0x0000000000014b6d      0x22a obj_cooja/mtype263.a(uip-ds6-nbr.o)
                0x0000000000014b6d                uip_ds6_neighbor_periodic
 .text.uip_ds6_get_least_lifetime_neighbor
                0x0000000000014d97       0x79 obj_cooja/mtype263.a(uip-ds6-nbr.o)
                0x0000000000014d97                uip_ds6_get_least_lifetime_neighbor
 .text          0x0000000000014e10        0x0 obj_cooja/mtype263.a(uip-ds6.o)
 .text.uip_ds6_init
                0x0000000000014e10      0x1cb obj_cooja/mtype263.a(uip-ds6.o)
                0x0000000000014e10                uip_ds6_init
 .text.uip_ds6_periodic
                0x0000000000014fdb       0x7d obj_cooja/mtype263.a(uip-ds6.o)
                0x0000000000014fdb                uip_ds6_periodic
 .text.uip_ds6_list_loop
                0x0000000000015058       0xa3 obj_cooja/mtype263.a(uip-ds6.o)
                0x0000000000015058                uip_ds6_list_loop
 .text.uip_ds6_prefix_add
                0x00000000000150fb       0xbe obj_cooja/mtype263.a(uip-ds6.o)
                0x00000000000150fb                uip_ds6_prefix_add
 .text.uip_ds6_prefix_rm
                0x00000000000151b9       0x11 obj_cooja/mtype263.a(uip-ds6.o)
                0x00000000000151b9                uip_ds6_prefix_rm
 .text.uip_ds6_prefix_lookup
                0x00000000000151ca       0x51 obj_cooja/mtype263.a(uip-ds6.o)
                0x00000000000151ca                uip_ds6_prefix_lookup
 .text.uip_ds6_is_addr_onlink
                0x000000000001521b       0x74 obj_cooja/mtype263.a(uip-ds6.o)
                0x000000000001521b                uip_ds6_is_addr_onlink
 .text.uip_ds6_addr_add
                0x000000000001528f      0x12e obj_cooja/mtype263.a(uip-ds6.o)
                0x000000000001528f                uip_ds6_addr_add
 .text.uip_ds6_addr_rm
                0x00000000000153bd       0x9f obj_cooja/mtype263.a(uip-ds6.o)
                0x00000000000153bd                uip_ds6_addr_rm
 .text.uip_ds6_addr_lookup
                0x000000000001545c       0x4b obj_cooja/mtype263.a(uip-ds6.o)
                0x000000000001545c                uip_ds6_addr_lookup
 .text.uip_ds6_get_link_local
                0x00000000000154a7       0x7f obj_cooja/mtype263.a(uip-ds6.o)
                0x00000000000154a7                uip_ds6_get_link_local
 .text.uip_ds6_get_global
                0x0000000000015526       0x7f obj_cooja/mtype263.a(uip-ds6.o)
                0x0000000000015526                uip_ds6_get_global
 .text.uip_ds6_maddr_add
                0x00000000000155a5       0x72 obj_cooja/mtype263.a(uip-ds6.o)
                0x00000000000155a5                uip_ds6_maddr_add
 .text.uip_ds6_maddr_rm
                0x0000000000015617       0x11 obj_cooja/mtype263.a(uip-ds6.o)
                0x0000000000015617                uip_ds6_maddr_rm
 .text.uip_ds6_maddr_lookup
                0x0000000000015628       0x4b obj_cooja/mtype263.a(uip-ds6.o)
                0x0000000000015628                uip_ds6_maddr_lookup
 .text.uip_ds6_aaddr_add
                0x0000000000015673       0x72 obj_cooja/mtype263.a(uip-ds6.o)
                0x0000000000015673                uip_ds6_aaddr_add
 .text.uip_ds6_aaddr_rm
                0x00000000000156e5       0x11 obj_cooja/mtype263.a(uip-ds6.o)
                0x00000000000156e5                uip_ds6_aaddr_rm
 .text.uip_ds6_aaddr_lookup
                0x00000000000156f6       0x4b obj_cooja/mtype263.a(uip-ds6.o)
                0x00000000000156f6                uip_ds6_aaddr_lookup
 .text.uip_ds6_select_src
                0x0000000000015741      0x145 obj_cooja/mtype263.a(uip-ds6.o)
                0x0000000000015741                uip_ds6_select_src
 .text.uip_ds6_set_addr_iid
                0x0000000000015886       0x2a obj_cooja/mtype263.a(uip-ds6.o)
                0x0000000000015886                uip_ds6_set_addr_iid
 .text.get_match_length
                0x00000000000158b0       0x7f obj_cooja/mtype263.a(uip-ds6.o)
                0x00000000000158b0                get_match_length
 .text.uip_ds6_compute_reachable_time
                0x000000000001592f       0x4c obj_cooja/mtype263.a(uip-ds6.o)
                0x000000000001592f                uip_ds6_compute_reachable_time
 *fill*         0x000000000001597b        0x1 90909090
 .text          0x000000000001597c        0x0 obj_cooja/mtype263.a(uip-nd6.o)
 .text.create_llao
                0x000000000001597c       0x48 obj_cooja/mtype263.a(uip-nd6.o)
 .text.uip_nd6_ns_input
                0x00000000000159c4      0x5b4 obj_cooja/mtype263.a(uip-nd6.o)
                0x00000000000159c4                uip_nd6_ns_input
 .text.uip_nd6_ns_output
                0x0000000000015f78      0x2f8 obj_cooja/mtype263.a(uip-nd6.o)
                0x0000000000015f78                uip_nd6_ns_output
 .text.uip_nd6_na_input
                0x0000000000016270      0x467 obj_cooja/mtype263.a(uip-nd6.o)
                0x0000000000016270                uip_nd6_na_input
 *fill*         0x00000000000166d7        0x1 90909090
 .text          0x00000000000166d8        0x0 obj_cooja/mtype263.a(uip-packetqueue)
 .text.packet_timedout
                0x00000000000166d8       0x2c obj_cooja/mtype263.a(uip-packetqueue)
 .text.uip_packetqueue_new
                0x0000000000016704        0xe obj_cooja/mtype263.a(uip-packetqueue)
                0x0000000000016704                uip_packetqueue_new
 .text.uip_packetqueue_alloc
                0x0000000000016712       0x60 obj_cooja/mtype263.a(uip-packetqueue)
                0x0000000000016712                uip_packetqueue_alloc
 .text.uip_packetqueue_free
                0x0000000000016772       0x41 obj_cooja/mtype263.a(uip-packetqueue)
                0x0000000000016772                uip_packetqueue_free
 .text.uip_packetqueue_buf
                0x00000000000167b3       0x1d obj_cooja/mtype263.a(uip-packetqueue)
                0x00000000000167b3                uip_packetqueue_buf
 .text.uip_packetqueue_buflen
                0x00000000000167d0       0x21 obj_cooja/mtype263.a(uip-packetqueue)
                0x00000000000167d0                uip_packetqueue_buflen
 .text.uip_packetqueue_set_buflen
                0x00000000000167f1       0x28 obj_cooja/mtype263.a(uip-packetqueue)
                0x00000000000167f1                uip_packetqueue_set_buflen
 *fill*         0x0000000000016819        0x3 90909090
 .text          0x000000000001681c        0x0 obj_cooja/mtype263.a(uip-udp-packet.)
 .text.uip_udp_packet_send
                0x000000000001681c       0x63 obj_cooja/mtype263.a(uip-udp-packet.)
                0x000000000001681c                uip_udp_packet_send
 .text.uip_udp_packet_sendto
                0x000000000001687f       0xd1 obj_cooja/mtype263.a(uip-udp-packet.)
                0x000000000001687f                uip_udp_packet_sendto
 .text          0x0000000000016950        0x0 obj_cooja/mtype263.a(uip6.o)
 .text.uip_add32
                0x0000000000016950       0xed obj_cooja/mtype263.a(uip6.o)
                0x0000000000016950                uip_add32
 .text.chksum   0x0000000000016a3d       0xa1 obj_cooja/mtype263.a(uip6.o)
 .text.uip_chksum
                0x0000000000016ade       0x35 obj_cooja/mtype263.a(uip6.o)
                0x0000000000016ade                uip_chksum
 .text.upper_layer_chksum
                0x0000000000016b13       0xbc obj_cooja/mtype263.a(uip6.o)
 .text.uip_icmp6chksum
                0x0000000000016bcf       0x14 obj_cooja/mtype263.a(uip6.o)
                0x0000000000016bcf                uip_icmp6chksum
 .text.uip_tcpchksum
                0x0000000000016be3       0x14 obj_cooja/mtype263.a(uip6.o)
                0x0000000000016be3                uip_tcpchksum
 .text.uip_udpchksum
                0x0000000000016bf7       0x14 obj_cooja/mtype263.a(uip6.o)
                0x0000000000016bf7                uip_udpchksum
 .text.uip_init
                0x0000000000016c0b       0xc6 obj_cooja/mtype263.a(uip6.o)
                0x0000000000016c0b                uip_init
 .text.uip_connect
                0x0000000000016cd1      0x1b0 obj_cooja/mtype263.a(uip6.o)
                0x0000000000016cd1                uip_connect
 .text.remove_ext_hdr
                0x0000000000016e81       0xda obj_cooja/mtype263.a(uip6.o)
                0x0000000000016e81                remove_ext_hdr
 .text.uip_udp_new
                0x0000000000016f5b      0x160 obj_cooja/mtype263.a(uip6.o)
                0x0000000000016f5b                uip_udp_new
 .text.uip_unlisten
                0x00000000000170bb       0x60 obj_cooja/mtype263.a(uip6.o)
                0x00000000000170bb                uip_unlisten
 .text.uip_listen
                0x000000000001711b       0x61 obj_cooja/mtype263.a(uip6.o)
                0x000000000001711b                uip_listen
 .text.uip_add_rcv_nxt
                0x000000000001717c       0x64 obj_cooja/mtype263.a(uip6.o)
 .text.ext_hdr_options_process
                0x00000000000171e0      0x1fd obj_cooja/mtype263.a(uip6.o)
 .text.uip_process
                0x00000000000173dd     0x1dd3 obj_cooja/mtype263.a(uip6.o)
                0x00000000000173dd                uip_process
 .text.uip_htons
                0x00000000000191b0       0x22 obj_cooja/mtype263.a(uip6.o)
                0x00000000000191b0                uip_htons
 .text.uip_htonl
                0x00000000000191d2       0x40 obj_cooja/mtype263.a(uip6.o)
                0x00000000000191d2                uip_htonl
 .text.uip_send
                0x0000000000019212       0x60 obj_cooja/mtype263.a(uip6.o)
                0x0000000000019212                uip_send
 *fill*         0x0000000000019272        0x2 90909090
 .text          0x0000000000019274        0x0 obj_cooja/mtype263.a(simEnvChange.o)
 .text.doActionsBeforeTick
                0x0000000000019274       0x31 obj_cooja/mtype263.a(simEnvChange.o)
                0x0000000000019274                doActionsBeforeTick
 .text.doActionsAfterTick
                0x00000000000192a5       0x32 obj_cooja/mtype263.a(simEnvChange.o)
                0x00000000000192a5                doActionsAfterTick
 *fill*         0x00000000000192d7        0x1 90909090
 .text          0x00000000000192d8        0x0 obj_cooja/mtype263.a(cooja_mt.o)
 .text.cooja_mt_init
                0x00000000000192d8        0xd obj_cooja/mtype263.a(cooja_mt.o)
                0x00000000000192d8                cooja_mt_init
 .text.cooja_mt_remove
                0x00000000000192e5        0xd obj_cooja/mtype263.a(cooja_mt.o)
                0x00000000000192e5                cooja_mt_remove
 .text.cooja_mt_start
                0x00000000000192f2       0x2d obj_cooja/mtype263.a(cooja_mt.o)
                0x00000000000192f2                cooja_mt_start
 .text.cooja_mt_exec
                0x000000000001931f       0x31 obj_cooja/mtype263.a(cooja_mt.o)
                0x000000000001931f                cooja_mt_exec
 .text.cooja_mt_exit
                0x0000000000019350       0x22 obj_cooja/mtype263.a(cooja_mt.o)
                0x0000000000019350                cooja_mt_exit
 .text.cooja_mt_yield
                0x0000000000019372       0x22 obj_cooja/mtype263.a(cooja_mt.o)
                0x0000000000019372                cooja_mt_yield
 .text          0x0000000000019394        0x0 obj_cooja/mtype263.a(cooja_mtarch.o)
 .text.cooja_mtarch_init
                0x0000000000019394        0x5 obj_cooja/mtype263.a(cooja_mtarch.o)
                0x0000000000019394                cooja_mtarch_init
 .text.cooja_mtarch_start
                0x0000000000019399       0xc1 obj_cooja/mtype263.a(cooja_mtarch.o)
                0x0000000000019399                cooja_mtarch_start
 .text.cooja_sw
                0x000000000001945a       0x22 obj_cooja/mtype263.a(cooja_mtarch.o)
                0x000000000001945a                cooja_sw
 .text.cooja_mtarch_exec
                0x000000000001947c       0x1c obj_cooja/mtype263.a(cooja_mtarch.o)
                0x000000000001947c                cooja_mtarch_exec
 .text.cooja_mtarch_remove
                0x0000000000019498        0x5 obj_cooja/mtype263.a(cooja_mtarch.o)
                0x0000000000019498                cooja_mtarch_remove
 .text.cooja_mtarch_yield
                0x000000000001949d        0xa obj_cooja/mtype263.a(cooja_mtarch.o)
                0x000000000001949d                cooja_mtarch_yield
 .text.cooja_mtarch_pstop
                0x00000000000194a7        0x5 obj_cooja/mtype263.a(cooja_mtarch.o)
                0x00000000000194a7                cooja_mtarch_pstop
 .text.cooja_mtarch_pstart
                0x00000000000194ac        0x5 obj_cooja/mtype263.a(cooja_mtarch.o)
                0x00000000000194ac                cooja_mtarch_pstart
 .text.cooja_mtarch_stack_usage
                0x00000000000194b1       0x3e obj_cooja/mtype263.a(cooja_mtarch.o)
                0x00000000000194b1                cooja_mtarch_stack_usage
 *fill*         0x00000000000194ef        0x1 90909090
 .text          0x00000000000194f0        0x0 obj_cooja/mtype263.a(rtimer-arch.o)
 .text.rtimer_arch_init
                0x00000000000194f0       0x23 obj_cooja/mtype263.a(rtimer-arch.o)
                0x00000000000194f0                rtimer_arch_init
 .text.rtimer_arch_schedule
                0x0000000000019513       0x17 obj_cooja/mtype263.a(rtimer-arch.o)
                0x0000000000019513                rtimer_arch_schedule
 .text.rtimer_arch_next
                0x000000000001952a        0xa obj_cooja/mtype263.a(rtimer-arch.o)
                0x000000000001952a                rtimer_arch_next
 .text.rtimer_arch_pending
                0x0000000000019534        0xa obj_cooja/mtype263.a(rtimer-arch.o)
                0x0000000000019534                rtimer_arch_pending
 .text.rtimer_arch_check
                0x000000000001953e       0x32 obj_cooja/mtype263.a(rtimer-arch.o)
                0x000000000001953e                rtimer_arch_check
 .text.rtimer_arch_now
                0x0000000000019570       0x42 obj_cooja/mtype263.a(rtimer-arch.o)
                0x0000000000019570                rtimer_arch_now
 *fill*         0x00000000000195b2        0x2 90909090
 .text          0x00000000000195b4        0x0 obj_cooja/mtype263.a(watchdog.o)
 .text.watchdog_init
                0x00000000000195b4        0x5 obj_cooja/mtype263.a(watchdog.o)
                0x00000000000195b4                watchdog_init
 .text.watchdog_start
                0x00000000000195b9        0x5 obj_cooja/mtype263.a(watchdog.o)
                0x00000000000195b9                watchdog_start
 .text.watchdog_periodic
                0x00000000000195be        0x5 obj_cooja/mtype263.a(watchdog.o)
                0x00000000000195be                watchdog_periodic
 .text.watchdog_stop
                0x00000000000195c3        0x5 obj_cooja/mtype263.a(watchdog.o)
                0x00000000000195c3                watchdog_stop
 .text.watchdog_reboot
                0x00000000000195c8        0x5 obj_cooja/mtype263.a(watchdog.o)
                0x00000000000195c8                watchdog_reboot
 *fill*         0x00000000000195cd        0x3 90909090
 .text          0x00000000000195d0        0x0 obj_cooja/mtype263.a(beep.o)
 .text.beep_alarm
                0x00000000000195d0        0xc obj_cooja/mtype263.a(beep.o)
                0x00000000000195d0                beep_alarm
 .text.beep_beep
                0x00000000000195dc        0xc obj_cooja/mtype263.a(beep.o)
                0x00000000000195dc                beep_beep
 .text.beep     0x00000000000195e8        0xc obj_cooja/mtype263.a(beep.o)
                0x00000000000195e8                beep
 .text.beep_down
                0x00000000000195f4        0xc obj_cooja/mtype263.a(beep.o)
                0x00000000000195f4                beep_down
 .text.beep_on  0x0000000000019600        0xc obj_cooja/mtype263.a(beep.o)
                0x0000000000019600                beep_on
 .text.beep_off
                0x000000000001960c        0xc obj_cooja/mtype263.a(beep.o)
                0x000000000001960c                beep_off
 .text.beep_spinup
                0x0000000000019618        0xc obj_cooja/mtype263.a(beep.o)
                0x0000000000019618                beep_spinup
 .text.beep_quick
                0x0000000000019624        0xc obj_cooja/mtype263.a(beep.o)
                0x0000000000019624                beep_quick
 .text.beep_long
                0x0000000000019630        0xc obj_cooja/mtype263.a(beep.o)
                0x0000000000019630                beep_long
 .text.doInterfaceActionsBeforeTick
                0x000000000001963c        0x5 obj_cooja/mtype263.a(beep.o)
 .text.doInterfaceActionsAfterTick
                0x0000000000019641        0x5 obj_cooja/mtype263.a(beep.o)
 *fill*         0x0000000000019646        0x2 90909090
 .text          0x0000000000019648        0x0 obj_cooja/mtype263.a(button-sensor.o)
 .text.value    0x0000000000019648       0x2f obj_cooja/mtype263.a(button-sensor.o)
 .text.configure
                0x0000000000019677       0x50 obj_cooja/mtype263.a(button-sensor.o)
 .text.status   0x00000000000196c7       0x1f obj_cooja/mtype263.a(button-sensor.o)
 .text.doInterfaceActionsBeforeTick
                0x00000000000196e6       0x60 obj_cooja/mtype263.a(button-sensor.o)
 .text.doInterfaceActionsAfterTick
                0x0000000000019746        0x5 obj_cooja/mtype263.a(button-sensor.o)
 *fill*         0x000000000001974b        0x1 90909090
 .text          0x000000000001974c        0x0 obj_cooja/mtype263.a(leds-arch.o)
 .text.leds_arch_init
                0x000000000001974c        0xc obj_cooja/mtype263.a(leds-arch.o)
                0x000000000001974c                leds_arch_init
 .text.leds_arch_get
                0x0000000000019758        0xc obj_cooja/mtype263.a(leds-arch.o)
                0x0000000000019758                leds_arch_get
 .text.leds_arch_set
                0x0000000000019764       0x23 obj_cooja/mtype263.a(leds-arch.o)
                0x0000000000019764                leds_arch_set
 .text.doInterfaceActionsBeforeTick
                0x0000000000019787        0x5 obj_cooja/mtype263.a(leds-arch.o)
 .text.doInterfaceActionsAfterTick
                0x000000000001978c        0x5 obj_cooja/mtype263.a(leds-arch.o)
 *fill*         0x0000000000019791        0x3 90909090
 .text          0x0000000000019794        0x0 obj_cooja/mtype263.a(moteid.o)
 .text.doInterfaceActionsBeforeTick
                0x0000000000019794       0x2a obj_cooja/mtype263.a(moteid.o)
 .text.doInterfaceActionsAfterTick
                0x00000000000197be        0x5 obj_cooja/mtype263.a(moteid.o)
 *fill*         0x00000000000197c3        0x1 90909090
 .text          0x00000000000197c4        0x0 obj_cooja/mtype263.a(pir-sensor.o)
 .text.value    0x00000000000197c4        0xf obj_cooja/mtype263.a(pir-sensor.o)
 .text.configure
                0x00000000000197d3       0x3a obj_cooja/mtype263.a(pir-sensor.o)
 .text.status   0x000000000001980d       0x23 obj_cooja/mtype263.a(pir-sensor.o)
 .text.doInterfaceActionsBeforeTick
                0x0000000000019830       0x40 obj_cooja/mtype263.a(pir-sensor.o)
 .text.doInterfaceActionsAfterTick
                0x0000000000019870        0x5 obj_cooja/mtype263.a(pir-sensor.o)
 *fill*         0x0000000000019875        0x3 90909090
 .text          0x0000000000019878        0x0 obj_cooja/mtype263.a(rs232.o)
 .text.rs232_init
                0x0000000000019878        0x5 obj_cooja/mtype263.a(rs232.o)
                0x0000000000019878                rs232_init
 .text.rs232_set_speed
                0x000000000001987d        0xe obj_cooja/mtype263.a(rs232.o)
                0x000000000001987d                rs232_set_speed
 .text.rs232_set_input
                0x000000000001988b        0xd obj_cooja/mtype263.a(rs232.o)
                0x000000000001988b                rs232_set_input
 .text.rs232_send
                0x0000000000019898       0x23 obj_cooja/mtype263.a(rs232.o)
                0x0000000000019898                rs232_send
 .text.rs232_print
                0x00000000000198bb       0x1c obj_cooja/mtype263.a(rs232.o)
                0x00000000000198bb                rs232_print
 .text.slip_arch_writeb
                0x00000000000198d7       0x1a obj_cooja/mtype263.a(rs232.o)
                0x00000000000198d7                slip_arch_writeb
 .text.doInterfaceActionsBeforeTick
                0x00000000000198f1       0xb4 obj_cooja/mtype263.a(rs232.o)
 .text.doInterfaceActionsAfterTick
                0x00000000000199a5        0x5 obj_cooja/mtype263.a(rs232.o)
 *fill*         0x00000000000199aa        0x2 90909090
 .text          0x00000000000199ac        0x0 obj_cooja/mtype263.a(vib-sensor.o)
 .text.value    0x00000000000199ac        0xf obj_cooja/mtype263.a(vib-sensor.o)
 .text.configure
                0x00000000000199bb       0x3a obj_cooja/mtype263.a(vib-sensor.o)
 .text.status   0x00000000000199f5       0x23 obj_cooja/mtype263.a(vib-sensor.o)
 .text.doInterfaceActionsBeforeTick
                0x0000000000019a18       0x40 obj_cooja/mtype263.a(vib-sensor.o)
 .text.doInterfaceActionsAfterTick
                0x0000000000019a58        0x5 obj_cooja/mtype263.a(vib-sensor.o)
 *fill*         0x0000000000019a5d        0x3 90909090
 .text          0x0000000000019a60        0x0 obj_cooja/mtype263.a(clock.o)
 .text.clock_init
                0x0000000000019a60        0x5 obj_cooja/mtype263.a(clock.o)
                0x0000000000019a60                clock_init
 .text.clock_time
                0x0000000000019a65        0xa obj_cooja/mtype263.a(clock.o)
                0x0000000000019a65                clock_time
 .text.clock_seconds
                0x0000000000019a6f       0x1f obj_cooja/mtype263.a(clock.o)
                0x0000000000019a6f                clock_seconds
 .text.clock_delay
                0x0000000000019a8e        0x5 obj_cooja/mtype263.a(clock.o)
                0x0000000000019a8e                clock_delay
 .text.doInterfaceActionsBeforeTick
                0x0000000000019a93        0x5 obj_cooja/mtype263.a(clock.o)
 .text.doInterfaceActionsAfterTick
                0x0000000000019a98        0x5 obj_cooja/mtype263.a(clock.o)
 *fill*         0x0000000000019a9d        0x3 90909090
 .text          0x0000000000019aa0        0x0 obj_cooja/mtype263.a(log.o)
 .text.simlog_char
                0x0000000000019aa0       0x43 obj_cooja/mtype263.a(log.o)
                0x0000000000019aa0                simlog_char
 .text.simlog   0x0000000000019ae3       0xb1 obj_cooja/mtype263.a(log.o)
                0x0000000000019ae3                simlog
 .text.log_message
                0x0000000000019b94       0x1e obj_cooja/mtype263.a(log.o)
                0x0000000000019b94                log_message
 .text.doInterfaceActionsBeforeTick
                0x0000000000019bb2        0x5 obj_cooja/mtype263.a(log.o)
 .text.doInterfaceActionsAfterTick
                0x0000000000019bb7        0x5 obj_cooja/mtype263.a(log.o)
 .text.log_set_putchar_with_slip
                0x0000000000019bbc        0xd obj_cooja/mtype263.a(log.o)
                0x0000000000019bbc                log_set_putchar_with_slip
 .text.putchar  0x0000000000019bc9       0x84 obj_cooja/mtype263.a(log.o)
                0x0000000000019bc9                log_putchar
 .text.puts     0x0000000000019c4d       0x24 obj_cooja/mtype263.a(log.o)
                0x0000000000019c4d                log_puts
 .text.printf   0x0000000000019c71       0x63 obj_cooja/mtype263.a(log.o)
                0x0000000000019c71                log_printf
 .text          0x0000000000019cd4        0x0 obj_cooja/mtype263.a(cfs-cooja.o)
 .text.cfs_open
                0x0000000000019cd4       0x4b obj_cooja/mtype263.a(cfs-cooja.o)
                0x0000000000019cd4                cfs_open
 .text.cfs_close
                0x0000000000019d1f        0xc obj_cooja/mtype263.a(cfs-cooja.o)
                0x0000000000019d1f                cfs_close
 .text.cfs_read
                0x0000000000019d2b       0x93 obj_cooja/mtype263.a(cfs-cooja.o)
                0x0000000000019d2b                cfs_read
 .text.cfs_write
                0x0000000000019dbe       0xbb obj_cooja/mtype263.a(cfs-cooja.o)
                0x0000000000019dbe                cfs_write
 .text.cfs_seek
                0x0000000000019e79       0x82 obj_cooja/mtype263.a(cfs-cooja.o)
                0x0000000000019e79                cfs_seek
 .text.cfs_remove
                0x0000000000019efb       0x23 obj_cooja/mtype263.a(cfs-cooja.o)
                0x0000000000019efb                cfs_remove
 .text.cfs_opendir
                0x0000000000019f1e        0xa obj_cooja/mtype263.a(cfs-cooja.o)
                0x0000000000019f1e                cfs_opendir
 .text.cfs_readdir
                0x0000000000019f28        0xa obj_cooja/mtype263.a(cfs-cooja.o)
                0x0000000000019f28                cfs_readdir
 .text.cfs_closedir
                0x0000000000019f32        0x5 obj_cooja/mtype263.a(cfs-cooja.o)
                0x0000000000019f32                cfs_closedir
 .text.doInterfaceActionsBeforeTick
                0x0000000000019f37        0x5 obj_cooja/mtype263.a(cfs-cooja.o)
 .text.doInterfaceActionsAfterTick
                0x0000000000019f3c        0x5 obj_cooja/mtype263.a(cfs-cooja.o)
 *fill*         0x0000000000019f41        0x3 90909090
 .text          0x0000000000019f44        0x0 obj_cooja/mtype263.a(cooja-radio.o)
 .text.radio_set_channel
                0x0000000000019f44        0xd obj_cooja/mtype263.a(cooja-radio.o)
                0x0000000000019f44                radio_set_channel
 .text.radio_set_txpower
                0x0000000000019f51       0x17 obj_cooja/mtype263.a(cooja-radio.o)
                0x0000000000019f51                radio_set_txpower
 .text.radio_signal_strength_last
                0x0000000000019f68        0xa obj_cooja/mtype263.a(cooja-radio.o)
                0x0000000000019f68                radio_signal_strength_last
 .text.radio_signal_strength_current
                0x0000000000019f72        0xa obj_cooja/mtype263.a(cooja-radio.o)
                0x0000000000019f72                radio_signal_strength_current
 .text.radio_on
                0x0000000000019f7c       0x11 obj_cooja/mtype263.a(cooja-radio.o)
 .text.radio_off
                0x0000000000019f8d       0x11 obj_cooja/mtype263.a(cooja-radio.o)
 .text.doInterfaceActionsBeforeTick
                0x0000000000019f9e       0x4b obj_cooja/mtype263.a(cooja-radio.o)
 .text.doInterfaceActionsAfterTick
                0x0000000000019fe9        0x5 obj_cooja/mtype263.a(cooja-radio.o)
 .text.radio_read
                0x0000000000019fee       0x7e obj_cooja/mtype263.a(cooja-radio.o)
 .text.channel_clear
                0x000000000001a06c       0x1b obj_cooja/mtype263.a(cooja-radio.o)
 .text.radio_send
                0x000000000001a087       0xd2 obj_cooja/mtype263.a(cooja-radio.o)
 .text.prepare_packet
                0x000000000001a159       0x1c obj_cooja/mtype263.a(cooja-radio.o)
 .text.transmit_packet
                0x000000000001a175       0x3a obj_cooja/mtype263.a(cooja-radio.o)
 .text.receiving_packet
                0x000000000001a1af        0xf obj_cooja/mtype263.a(cooja-radio.o)
 .text.pending_packet
                0x000000000001a1be       0x25 obj_cooja/mtype263.a(cooja-radio.o)
 .text.process_thread_cooja_radio_process
                0x000000000001a1e3       0x93 obj_cooja/mtype263.a(cooja-radio.o)
 .text.init     0x000000000001a276       0x21 obj_cooja/mtype263.a(cooja-radio.o)
 *fill*         0x000000000001a297        0x1 90909090
 .text          0x000000000001a298        0x0 obj_cooja/mtype263.a(sensors.o)
 .text.get_sensor_index
                0x000000000001a298       0x3b obj_cooja/mtype263.a(sensors.o)
 .text.sensors_first
                0x000000000001a2d3        0xa obj_cooja/mtype263.a(sensors.o)
                0x000000000001a2d3                sensors_first
 .text.sensors_next
                0x000000000001a2dd       0x1d obj_cooja/mtype263.a(sensors.o)
                0x000000000001a2dd                sensors_next
 .text.sensors_changed
                0x000000000001a2fa       0x2f obj_cooja/mtype263.a(sensors.o)
                0x000000000001a2fa                sensors_changed
 .text.sensors_find
                0x000000000001a329       0x84 obj_cooja/mtype263.a(sensors.o)
                0x000000000001a329                sensors_find
 .text.process_thread_sensors_process
                0x000000000001a3ad      0x1a5 obj_cooja/mtype263.a(sensors.o)
 *fill*         0x000000000001a552        0x2 90909090
 .text          0x000000000001a554        0x0 obj_cooja/mtype263.a(rimestats.o)
 .text          0x000000000001a554        0x0 obj_cooja/mtype263.a(frame802154.o)
 .text.addr_len
                0x000000000001a554       0x31 obj_cooja/mtype263.a(frame802154.o)
 .text.field_len
                0x000000000001a585       0xc6 obj_cooja/mtype263.a(frame802154.o)
 .text.frame802154_hdrlen
                0x000000000001a64b       0x48 obj_cooja/mtype263.a(frame802154.o)
                0x000000000001a64b                frame802154_hdrlen
 .text.frame802154_create
                0x000000000001a693      0x1d3 obj_cooja/mtype263.a(frame802154.o)
                0x000000000001a693                frame802154_create
 .text.frame802154_parse
                0x000000000001a866      0x29b obj_cooja/mtype263.a(frame802154.o)
                0x000000000001a866                frame802154_parse
 *fill*         0x000000000001ab01        0x3 90909090
 .text          0x000000000001ab04        0x0 obj_cooja/mtype263.a(rpl.o)
 .text.rpl_purge_routes
                0x000000000001ab04       0xfa obj_cooja/mtype263.a(rpl.o)
                0x000000000001ab04                rpl_purge_routes
 .text.rpl_remove_routes
                0x000000000001abfe       0x46 obj_cooja/mtype263.a(rpl.o)
                0x000000000001abfe                rpl_remove_routes
 .text.rpl_remove_routes_by_nexthop
                0x000000000001ac44       0x6c obj_cooja/mtype263.a(rpl.o)
                0x000000000001ac44                rpl_remove_routes_by_nexthop
 .text.rpl_add_route
                0x000000000001acb0       0x70 obj_cooja/mtype263.a(rpl.o)
                0x000000000001acb0                rpl_add_route
 .text.rpl_link_neighbor_callback
                0x000000000001ad20       0xeb obj_cooja/mtype263.a(rpl.o)
                0x000000000001ad20                rpl_link_neighbor_callback
 .text.rpl_ipv6_neighbor_callback
                0x000000000001ae0b       0x64 obj_cooja/mtype263.a(rpl.o)
                0x000000000001ae0b                rpl_ipv6_neighbor_callback
 .text.rpl_init
                0x000000000001ae6f       0x73 obj_cooja/mtype263.a(rpl.o)
                0x000000000001ae6f                rpl_init
 *fill*         0x000000000001aee2        0x2 90909090
 .text          0x000000000001aee4        0x0 obj_cooja/mtype263.a(rpl-dag.o)
 .text.rpl_dag_init
                0x000000000001aee4       0x1d obj_cooja/mtype263.a(rpl-dag.o)
                0x000000000001aee4                rpl_dag_init
 .text.rpl_get_parent_rank
                0x000000000001af01       0x33 obj_cooja/mtype263.a(rpl-dag.o)
                0x000000000001af01                rpl_get_parent_rank
 .text.rpl_get_parent_link_metric
                0x000000000001af34       0x33 obj_cooja/mtype263.a(rpl-dag.o)
                0x000000000001af34                rpl_get_parent_link_metric
 .text.rpl_get_parent_ipaddr
                0x000000000001af67       0x2a obj_cooja/mtype263.a(rpl-dag.o)
                0x000000000001af67                rpl_get_parent_ipaddr
 .text.rpl_set_preferred_parent
                0x000000000001af91       0x4d obj_cooja/mtype263.a(rpl-dag.o)
 .text.lollipop_greater_than
                0x000000000001afde       0x65 obj_cooja/mtype263.a(rpl-dag.o)
 .text.remove_parents
                0x000000000001b043       0x61 obj_cooja/mtype263.a(rpl-dag.o)
 .text.nullify_parents
                0x000000000001b0a4       0x61 obj_cooja/mtype263.a(rpl-dag.o)
 .text.should_send_dao
                0x000000000001b105       0x5b obj_cooja/mtype263.a(rpl-dag.o)
 .text.acceptable_rank
                0x000000000001b160       0x98 obj_cooja/mtype263.a(rpl-dag.o)
 .text.get_dag  0x000000000001b1f8       0x88 obj_cooja/mtype263.a(rpl-dag.o)
 .text.rpl_set_root
                0x000000000001b280      0x1d1 obj_cooja/mtype263.a(rpl-dag.o)
                0x000000000001b280                rpl_set_root
 .text.rpl_repair_root
                0x000000000001b451       0xd6 obj_cooja/mtype263.a(rpl-dag.o)
                0x000000000001b451                rpl_repair_root
 .text.set_ip_from_prefix
                0x000000000001b527       0x6b obj_cooja/mtype263.a(rpl-dag.o)
 .text.check_prefix
                0x000000000001b592      0x103 obj_cooja/mtype263.a(rpl-dag.o)
 .text.rpl_set_prefix
                0x000000000001b695      0x10e obj_cooja/mtype263.a(rpl-dag.o)
                0x000000000001b695                rpl_set_prefix
 .text.rpl_set_default_route
                0x000000000001b7a3       0xa5 obj_cooja/mtype263.a(rpl-dag.o)
                0x000000000001b7a3                rpl_set_default_route
 .text.rpl_alloc_instance
                0x000000000001b848       0xd9 obj_cooja/mtype263.a(rpl-dag.o)
                0x000000000001b848                rpl_alloc_instance
 .text.rpl_alloc_dag
                0x000000000001b921      0x112 obj_cooja/mtype263.a(rpl-dag.o)
                0x000000000001b921                rpl_alloc_dag
 .text.rpl_set_default_instance
                0x000000000001ba33        0xd obj_cooja/mtype263.a(rpl-dag.o)
                0x000000000001ba33                rpl_set_default_instance
 .text.rpl_free_instance
                0x000000000001ba40       0x91 obj_cooja/mtype263.a(rpl-dag.o)
                0x000000000001ba40                rpl_free_instance
 .text.rpl_free_dag
                0x000000000001bad1       0x66 obj_cooja/mtype263.a(rpl-dag.o)
                0x000000000001bad1                rpl_free_dag
 .text.rpl_add_parent
                0x000000000001bb37       0x6a obj_cooja/mtype263.a(rpl-dag.o)
                0x000000000001bb37                rpl_add_parent
 .text.find_parent_any_dag_any_instance
                0x000000000001bba1       0x38 obj_cooja/mtype263.a(rpl-dag.o)
 .text.rpl_find_parent
                0x000000000001bbd9       0x31 obj_cooja/mtype263.a(rpl-dag.o)
                0x000000000001bbd9                rpl_find_parent
 .text.find_parent_dag
                0x000000000001bc0a       0x29 obj_cooja/mtype263.a(rpl-dag.o)
 .text.rpl_find_parent_any_dag
                0x000000000001bc33       0x3e obj_cooja/mtype263.a(rpl-dag.o)
                0x000000000001bc33                rpl_find_parent_any_dag
 .text.rpl_select_dag
                0x000000000001bc71      0x31b obj_cooja/mtype263.a(rpl-dag.o)
                0x000000000001bc71                rpl_select_dag
 .text.rpl_select_parent
                0x000000000001bf8c       0x92 obj_cooja/mtype263.a(rpl-dag.o)
                0x000000000001bf8c                rpl_select_parent
 .text.rpl_remove_parent
                0x000000000001c01e       0x27 obj_cooja/mtype263.a(rpl-dag.o)
                0x000000000001c01e                rpl_remove_parent
 .text.rpl_nullify_parent
                0x000000000001c045       0x94 obj_cooja/mtype263.a(rpl-dag.o)
                0x000000000001c045                rpl_nullify_parent
 .text.rpl_move_parent
                0x000000000001c0d9       0xc8 obj_cooja/mtype263.a(rpl-dag.o)
                0x000000000001c0d9                rpl_move_parent
 .text.rpl_get_any_dag
                0x000000000001c1a1       0x62 obj_cooja/mtype263.a(rpl-dag.o)
                0x000000000001c1a1                rpl_get_any_dag
 .text.rpl_get_instance
                0x000000000001c203       0x63 obj_cooja/mtype263.a(rpl-dag.o)
                0x000000000001c203                rpl_get_instance
 .text.rpl_find_of
                0x000000000001c266       0x47 obj_cooja/mtype263.a(rpl-dag.o)
                0x000000000001c266                rpl_find_of
 .text.rpl_join_instance
                0x000000000001c2ad      0x2a6 obj_cooja/mtype263.a(rpl-dag.o)
                0x000000000001c2ad                rpl_join_instance
 .text.rpl_add_dag
                0x000000000001c553      0x280 obj_cooja/mtype263.a(rpl-dag.o)
                0x000000000001c553                rpl_add_dag
 .text.global_repair
                0x000000000001c7d3      0x105 obj_cooja/mtype263.a(rpl-dag.o)
 .text.rpl_local_repair
                0x000000000001c8d8       0x8c obj_cooja/mtype263.a(rpl-dag.o)
                0x000000000001c8d8                rpl_local_repair
 .text.rpl_recalculate_ranks
                0x000000000001c964       0x78 obj_cooja/mtype263.a(rpl-dag.o)
                0x000000000001c964                rpl_recalculate_ranks
 .text.rpl_process_parent_event
                0x000000000001c9dc       0x81 obj_cooja/mtype263.a(rpl-dag.o)
                0x000000000001c9dc                rpl_process_parent_event
 .text.rpl_process_dio
                0x000000000001ca5d      0x43a obj_cooja/mtype263.a(rpl-dag.o)
                0x000000000001ca5d                rpl_process_dio
 *fill*         0x000000000001ce97        0x1 90909090
 .text          0x000000000001ce98        0x0 obj_cooja/mtype263.a(rpl-icmp6.o)
 .text.packetbuf_addr
                0x000000000001ce98       0x1d obj_cooja/mtype263.a(rpl-icmp6.o)
 .text.get_global_addr
                0x000000000001ceb5       0xb7 obj_cooja/mtype263.a(rpl-icmp6.o)
 .text.get32    0x000000000001cf6c       0x4f obj_cooja/mtype263.a(rpl-icmp6.o)
 .text.set32    0x000000000001cfbb       0x4a obj_cooja/mtype263.a(rpl-icmp6.o)
 .text.get16    0x000000000001d005       0x27 obj_cooja/mtype263.a(rpl-icmp6.o)
 .text.set16    0x000000000001d02c       0x33 obj_cooja/mtype263.a(rpl-icmp6.o)
 .text.dis_input
                0x000000000001d05f       0x65 obj_cooja/mtype263.a(rpl-icmp6.o)
 .text.dis_output
                0x000000000001d0c4       0xaf obj_cooja/mtype263.a(rpl-icmp6.o)
                0x000000000001d0c4                dis_output
 .text.dio_input
                0x000000000001d173      0x5d8 obj_cooja/mtype263.a(rpl-icmp6.o)
 .text.dio_output
                0x000000000001d74b      0x53e obj_cooja/mtype263.a(rpl-icmp6.o)
                0x000000000001d74b                dio_output
 .text.dao_input
                0x000000000001dc89      0x40b obj_cooja/mtype263.a(rpl-icmp6.o)
 .text.dao_output
                0x000000000001e094       0x5c obj_cooja/mtype263.a(rpl-icmp6.o)
                0x000000000001e094                dao_output
 .text.dao_output_target
                0x000000000001e0f0      0x243 obj_cooja/mtype263.a(rpl-icmp6.o)
                0x000000000001e0f0                dao_output_target
 .text.dao_ack_input
                0x000000000001e333        0x5 obj_cooja/mtype263.a(rpl-icmp6.o)
 .text.dao_ack_output
                0x000000000001e338       0x73 obj_cooja/mtype263.a(rpl-icmp6.o)
                0x000000000001e338                dao_ack_output
 .text.uip_rpl_input
                0x000000000001e3ab       0x63 obj_cooja/mtype263.a(rpl-icmp6.o)
                0x000000000001e3ab                uip_rpl_input
 *fill*         0x000000000001e40e        0x2 90909090
 .text          0x000000000001e410        0x0 obj_cooja/mtype263.a(rpl-timers.o)
 .text.handle_periodic_timer
                0x000000000001e410       0x59 obj_cooja/mtype263.a(rpl-timers.o)
 .text.new_dio_interval
                0x000000000001e469       0xda obj_cooja/mtype263.a(rpl-timers.o)
 .text.handle_dio_timer
                0x000000000001e543      0x11f obj_cooja/mtype263.a(rpl-timers.o)
 .text.rpl_reset_periodic_timer
                0x000000000001e662       0x5b obj_cooja/mtype263.a(rpl-timers.o)
                0x000000000001e662                rpl_reset_periodic_timer
 .text.rpl_reset_dio_timer
                0x000000000001e6bd       0x48 obj_cooja/mtype263.a(rpl-timers.o)
                0x000000000001e6bd                rpl_reset_dio_timer
 .text.handle_dao_timer
                0x000000000001e705       0x92 obj_cooja/mtype263.a(rpl-timers.o)
 .text.rpl_schedule_dao
                0x000000000001e797       0x89 obj_cooja/mtype263.a(rpl-timers.o)
                0x000000000001e797                rpl_schedule_dao
 .text          0x000000000001e820        0x0 obj_cooja/mtype263.a(rpl-mrhof.o)
 .text.calculate_path_metric
                0x000000000001e820       0x22 obj_cooja/mtype263.a(rpl-mrhof.o)
 .text.reset    0x000000000001e842        0x5 obj_cooja/mtype263.a(rpl-mrhof.o)
 .text.neighbor_link_callback
                0x000000000001e847       0x6c obj_cooja/mtype263.a(rpl-mrhof.o)
 .text.calculate_rank
                0x000000000001e8b3       0x75 obj_cooja/mtype263.a(rpl-mrhof.o)
 .text.best_dag
                0x000000000001e928       0x75 obj_cooja/mtype263.a(rpl-mrhof.o)
 .text.best_parent
                0x000000000001e99d       0x92 obj_cooja/mtype263.a(rpl-mrhof.o)
 .text.update_metric_container
                0x000000000001ea2f        0xb obj_cooja/mtype263.a(rpl-mrhof.o)
 *fill*         0x000000000001ea3a        0x2 90909090
 .text          0x000000000001ea3c        0x0 obj_cooja/mtype263.a(rpl-ext-header.)
 .text.rpl_verify_header
                0x000000000001ea3c      0x1fa obj_cooja/mtype263.a(rpl-ext-header.)
                0x000000000001ea3c                rpl_verify_header
 .text.set_rpl_opt
                0x000000000001ec36      0x18b obj_cooja/mtype263.a(rpl-ext-header.)
 .text.rpl_update_header_empty
                0x000000000001edc1      0x22f obj_cooja/mtype263.a(rpl-ext-header.)
                0x000000000001edc1                rpl_update_header_empty
 .text.rpl_update_header_final
                0x000000000001eff0      0x174 obj_cooja/mtype263.a(rpl-ext-header.)
                0x000000000001eff0                rpl_update_header_final
 .text.rpl_remove_header
                0x000000000001f164      0x114 obj_cooja/mtype263.a(rpl-ext-header.)
                0x000000000001f164                rpl_remove_header
 .text.rpl_invert_header
                0x000000000001f278      0x14c obj_cooja/mtype263.a(rpl-ext-header.)
                0x000000000001f278                rpl_invert_header
 .text.rpl_insert_header
                0x000000000001f3c4       0x39 obj_cooja/mtype263.a(rpl-ext-header.)
                0x000000000001f3c4                rpl_insert_header
 *fill*         0x000000000001f3fd        0x3 90909090
 .text          0x000000000001f400        0x0 obj_cooja/mtype263.a(timer.o)
 .text.timer_set
                0x000000000001f400       0x1b obj_cooja/mtype263.a(timer.o)
                0x000000000001f400                timer_set
 .text.timer_reset
                0x000000000001f41b       0x17 obj_cooja/mtype263.a(timer.o)
                0x000000000001f41b                timer_reset
 .text.timer_restart
                0x000000000001f432       0x12 obj_cooja/mtype263.a(timer.o)
                0x000000000001f432                timer_restart
 .text.timer_expired
                0x000000000001f444       0x29 obj_cooja/mtype263.a(timer.o)
                0x000000000001f444                timer_expired
 .text.timer_remaining
                0x000000000001f46d       0x26 obj_cooja/mtype263.a(timer.o)
                0x000000000001f46d                timer_remaining
 *fill*         0x000000000001f493        0x1 90909090
 .text          0x000000000001f494        0x0 obj_cooja/mtype263.a(rtimer.o)
 .text.rtimer_init
                0x000000000001f494        0xd obj_cooja/mtype263.a(rtimer.o)
                0x000000000001f494                rtimer_init
 .text.rtimer_set
                0x000000000001f4a1       0x57 obj_cooja/mtype263.a(rtimer.o)
                0x000000000001f4a1                rtimer_set
 .text.rtimer_run_next
                0x000000000001f4f8       0x59 obj_cooja/mtype263.a(rtimer.o)
                0x000000000001f4f8                rtimer_run_next
 *fill*         0x000000000001f551        0x3 90909090
 .text          0x000000000001f554        0x0 obj_cooja/mtype263.a(stimer.o)
 .text.stimer_set
                0x000000000001f554       0x1b obj_cooja/mtype263.a(stimer.o)
                0x000000000001f554                stimer_set
 .text.stimer_reset
                0x000000000001f56f       0x17 obj_cooja/mtype263.a(stimer.o)
                0x000000000001f56f                stimer_reset
 .text.stimer_restart
                0x000000000001f586       0x12 obj_cooja/mtype263.a(stimer.o)
                0x000000000001f586                stimer_restart
 .text.stimer_expired
                0x000000000001f598       0x27 obj_cooja/mtype263.a(stimer.o)
                0x000000000001f598                stimer_expired
 .text.stimer_remaining
                0x000000000001f5bf       0x26 obj_cooja/mtype263.a(stimer.o)
                0x000000000001f5bf                stimer_remaining
 .text.stimer_elapsed
                0x000000000001f5e5       0x14 obj_cooja/mtype263.a(stimer.o)
                0x000000000001f5e5                stimer_elapsed
 *fill*         0x000000000001f5f9        0x3 90909090
 .text          0x000000000001f5fc        0x0 obj_cooja/mtype263.a(nbr-table.o)
 .text.key_from_index
                0x000000000001f5fc       0x26 obj_cooja/mtype263.a(nbr-table.o)
 .text.item_from_index
                0x000000000001f622       0x2a obj_cooja/mtype263.a(nbr-table.o)
 .text.index_from_key
                0x000000000001f64c       0x29 obj_cooja/mtype263.a(nbr-table.o)
 .text.index_from_item
                0x000000000001f675       0x3b obj_cooja/mtype263.a(nbr-table.o)
 .text.item_from_key
                0x000000000001f6b0       0x22 obj_cooja/mtype263.a(nbr-table.o)
 .text.key_from_item
                0x000000000001f6d2       0x22 obj_cooja/mtype263.a(nbr-table.o)
 .text.index_from_lladdr
                0x000000000001f6f4       0x6c obj_cooja/mtype263.a(nbr-table.o)
 .text.nbr_get_bit
                0x000000000001f760       0x51 obj_cooja/mtype263.a(nbr-table.o)
 .text.nbr_set_bit
                0x000000000001f7b1       0x96 obj_cooja/mtype263.a(nbr-table.o)
 .text.nbr_table_allocate
                0x000000000001f847      0x19b obj_cooja/mtype263.a(nbr-table.o)
 .text.nbr_table_register
                0x000000000001f9e2       0x47 obj_cooja/mtype263.a(nbr-table.o)
                0x000000000001f9e2                nbr_table_register
 .text.nbr_table_head
                0x000000000001fa29       0x5c obj_cooja/mtype263.a(nbr-table.o)
                0x000000000001fa29                nbr_table_head
 .text.nbr_table_next
                0x000000000001fa85       0x67 obj_cooja/mtype263.a(nbr-table.o)
                0x000000000001fa85                nbr_table_next
 .text.nbr_table_add_lladdr
                0x000000000001faec       0xd1 obj_cooja/mtype263.a(nbr-table.o)
                0x000000000001faec                nbr_table_add_lladdr
 .text.nbr_table_get_from_lladdr
                0x000000000001fbbd       0x4d obj_cooja/mtype263.a(nbr-table.o)
                0x000000000001fbbd                nbr_table_get_from_lladdr
 .text.nbr_table_remove
                0x000000000001fc0a       0x52 obj_cooja/mtype263.a(nbr-table.o)
                0x000000000001fc0a                nbr_table_remove
 .text.nbr_table_lock
                0x000000000001fc5c       0x2a obj_cooja/mtype263.a(nbr-table.o)
                0x000000000001fc5c                nbr_table_lock
 .text.nbr_table_unlock
                0x000000000001fc86       0x2a obj_cooja/mtype263.a(nbr-table.o)
                0x000000000001fc86                nbr_table_unlock
 .text.nbr_table_get_lladdr
                0x000000000001fcb0       0x30 obj_cooja/mtype263.a(nbr-table.o)
                0x000000000001fcb0                nbr_table_get_lladdr
 .text          0x000000000001fce0        0x0 obj_cooja/mtype263.a(uip-icmp6.o)
 .text.uip_icmp6_echo_request_input
                0x000000000001fce0      0x2b5 obj_cooja/mtype263.a(uip-icmp6.o)
                0x000000000001fce0                uip_icmp6_echo_request_input
 .text.uip_icmp6_error_output
                0x000000000001ff95      0x32b obj_cooja/mtype263.a(uip-icmp6.o)
                0x000000000001ff95                uip_icmp6_error_output
 .text.uip_icmp6_send
                0x00000000000202c0      0x10a obj_cooja/mtype263.a(uip-icmp6.o)
                0x00000000000202c0                uip_icmp6_send
 *fill*         0x00000000000203ca        0x6 90909090
 .text          0x00000000000203d0       0x38 /usr/lib/gcc/i686-linux-gnu/4.6/crtendS.o
 .text          0x0000000000020408        0x0 /usr/lib/gcc/i686-linux-gnu/4.6/../../../i386-linux-gnu/crtn.o
 *(.gnu.warning)

.fini           0x0000000000020408       0x1a
 *(.fini)
 .fini          0x0000000000020408       0x10 /usr/lib/gcc/i686-linux-gnu/4.6/../../../i386-linux-gnu/crti.o
                0x0000000000020408                _fini
 .fini          0x0000000000020418        0x5 /usr/lib/gcc/i686-linux-gnu/4.6/crtbeginS.o
 .fini          0x000000000002041d        0x5 /usr/lib/gcc/i686-linux-gnu/4.6/../../../i386-linux-gnu/crtn.o
                0x0000000000020422                PROVIDE (__etext, .)
                0x0000000000020422                PROVIDE (_etext, .)
                0x0000000000020422                PROVIDE (etext, .)

.rodata         0x0000000000020440      0xab4
 *(.rodata .rodata.* .gnu.linkonce.r.*)
 .rodata        0x0000000000020440      0x598 room-controller.co
                0x0000000000020458                autostart_processes
 .rodata        0x00000000000209d8      0x123 obj_cooja/mtype263.o
 .rodata        0x0000000000020afb        0x8 obj_cooja/mtype263.a(rimeaddr.o)
                0x0000000000020afb                rimeaddr_null
 *fill*         0x0000000000020b03       0x1d 00
 .rodata        0x0000000000020b20       0x40 obj_cooja/mtype263.a(nullrdc.o)
                0x0000000000020b40                nullrdc_driver
 .rodata        0x0000000000020b60        0xc obj_cooja/mtype263.a(framer-802154.o)
                0x0000000000020b64                framer_802154
 .rodata        0x0000000000020b6c       0x24 obj_cooja/mtype263.a(csma.o)
                0x0000000000020b74                csma_driver
 .rodata        0x0000000000020b90        0xe obj_cooja/mtype263.a(serial-line.o)
 .rodata        0x0000000000020b9e        0xc obj_cooja/mtype263.a(etimer.o)
 .rodata        0x0000000000020baa        0xf obj_cooja/mtype263.a(ctimer.o)
 *fill*         0x0000000000020bb9        0x3 00
 .rodata        0x0000000000020bbc       0x2c obj_cooja/mtype263.a(sicslowpan.o)
                0x0000000000020bbc                unc_llconf
                0x0000000000020bc0                unc_ctxconf
                0x0000000000020bc4                unc_mxconf
                0x0000000000020bc8                llprefix
                0x0000000000020bdc                sicslowpan_driver
 .rodata        0x0000000000020be8       0x13 obj_cooja/mtype263.a(simple-udp.o)
 .rodata        0x0000000000020bfb       0x29 obj_cooja/mtype263.a(tcpip.o)
 .rodata        0x0000000000020c24      0x1ac obj_cooja/mtype263.a(uip6.o)
 .rodata        0x0000000000020dd0        0x8 obj_cooja/mtype263.a(beep.o)
                0x0000000000020dd0                beep_interface
 .rodata        0x0000000000020dd8       0x20 obj_cooja/mtype263.a(button-sensor.o)
                0x0000000000020dd8                button_interface
                0x0000000000020de8                button_sensor
 .rodata        0x0000000000020df8        0x8 obj_cooja/mtype263.a(leds-arch.o)
                0x0000000000020df8                leds_interface
 .rodata        0x0000000000020e00        0x8 obj_cooja/mtype263.a(moteid.o)
                0x0000000000020e00                moteid_interface
 .rodata        0x0000000000020e08       0x1c obj_cooja/mtype263.a(pir-sensor.o)
                0x0000000000020e08                pir_interface
                0x0000000000020e14                pir_sensor
 .rodata        0x0000000000020e24        0xe obj_cooja/mtype263.a(rs232.o)
                0x0000000000020e24                rs232_interface
 *fill*         0x0000000000020e32        0x2 00
 .rodata        0x0000000000020e34       0x24 obj_cooja/mtype263.a(vib-sensor.o)
                0x0000000000020e34                vib_interface
                0x0000000000020e48                vib_sensor
 .rodata        0x0000000000020e58        0x8 obj_cooja/mtype263.a(clock.o)
                0x0000000000020e58                clock_interface
 .rodata        0x0000000000020e60        0x8 obj_cooja/mtype263.a(log.o)
                0x0000000000020e60                simlog_interface
 .rodata        0x0000000000020e68       0x2f obj_cooja/mtype263.a(cfs-cooja.o)
                0x0000000000020e68                cfs_interface
 *fill*         0x0000000000020e97        0x9 00
 .rodata        0x0000000000020ea0       0x48 obj_cooja/mtype263.a(cooja-radio.o)
                0x0000000000020ea0                radio_interface
                0x0000000000020ec0                cooja_radio_driver
 .rodata        0x0000000000020ee8        0x8 obj_cooja/mtype263.a(sensors.o)
 .rodata        0x0000000000020ef0        0x4 obj_cooja/mtype263.a(rpl-dag.o)

.rodata1
 *(.rodata1)

.eh_frame_hdr   0x0000000000020ef4     0x107c
 *(.eh_frame_hdr)
 .eh_frame_hdr  0x0000000000020ef4     0x107c /usr/lib/gcc/i686-linux-gnu/4.6/../../../i386-linux-gnu/crti.o

.eh_frame       0x0000000000021f70     0x438c
 *(.eh_frame)
 .eh_frame      0x0000000000021f70       0x3c /usr/lib/gcc/i686-linux-gnu/4.6/../../../i386-linux-gnu/crti.o
                                         0x40 (size before relaxing)
 .eh_frame      0x0000000000021fac       0x48 room-controller.co
                                         0x60 (size before relaxing)
 .eh_frame      0x0000000000021ff4      0x148 obj_cooja/mtype263.o
                                        0x160 (size before relaxing)
 .eh_frame      0x000000000002213c       0x60 obj_cooja/mtype263.a(rimeaddr.o)
                                         0x78 (size before relaxing)
 .eh_frame      0x000000000002219c      0x194 obj_cooja/mtype263.a(nullrdc.o)
                                        0x1ac (size before relaxing)
 .eh_frame      0x0000000000022330       0x20 obj_cooja/mtype263.a(mac.o)
                                         0x38 (size before relaxing)
 .eh_frame      0x0000000000022350       0xec obj_cooja/mtype263.a(framer-802154.o)
                                        0x104 (size before relaxing)
 .eh_frame      0x000000000002243c      0x1c8 obj_cooja/mtype263.a(csma.o)
                                        0x1e0 (size before relaxing)
 .eh_frame      0x0000000000022604      0x1c8 obj_cooja/mtype263.a(process.o)
                                        0x1e0 (size before relaxing)
 .eh_frame      0x00000000000227cc       0x40 obj_cooja/mtype263.a(autostart.o)
                                         0x58 (size before relaxing)
 .eh_frame      0x000000000002280c       0x60 obj_cooja/mtype263.a(serial-line.o)
                                         0x78 (size before relaxing)
 .eh_frame      0x000000000002286c       0x80 obj_cooja/mtype263.a(memb.o)
                                         0x98 (size before relaxing)
 .eh_frame      0x00000000000228ec      0x180 obj_cooja/mtype263.a(list.o)
                                        0x198 (size before relaxing)
 .eh_frame      0x0000000000022a6c      0x1c0 obj_cooja/mtype263.a(etimer.o)
                                        0x1d8 (size before relaxing)
 .eh_frame      0x0000000000022c2c       0xe0 obj_cooja/mtype263.a(ctimer.o)
                                         0xf8 (size before relaxing)
 .eh_frame      0x0000000000022d0c       0x80 obj_cooja/mtype263.a(energest.o)
                                         0x98 (size before relaxing)
 .eh_frame      0x0000000000022d8c       0x40 obj_cooja/mtype263.a(random.o)
                                         0x58 (size before relaxing)
 .eh_frame      0x0000000000022dcc       0xa0 obj_cooja/mtype263.a(ringbuf.o)
                                         0xb8 (size before relaxing)
 .eh_frame      0x0000000000022e6c       0x20 obj_cooja/mtype263.a(netstack.o)
                                         0x38 (size before relaxing)
 .eh_frame      0x0000000000022e8c      0x2b4 obj_cooja/mtype263.a(packetbuf.o)
                                        0x2cc (size before relaxing)
 .eh_frame      0x0000000000023140      0x168 obj_cooja/mtype263.a(queuebuf.o)
                                        0x180 (size before relaxing)
 .eh_frame      0x00000000000232a8      0x27c obj_cooja/mtype263.a(sicslowpan.o)
                                        0x294 (size before relaxing)
 .eh_frame      0x0000000000023524       0xd0 obj_cooja/mtype263.a(simple-udp.o)
                                         0xe8 (size before relaxing)
 .eh_frame      0x00000000000235f4      0x274 obj_cooja/mtype263.a(tcpip.o)
                                        0x28c (size before relaxing)
 .eh_frame      0x0000000000023868      0x280 obj_cooja/mtype263.a(uip-ds6-route.o)
                                        0x298 (size before relaxing)
 .eh_frame      0x0000000000023ae8      0x1c0 obj_cooja/mtype263.a(uip-ds6-nbr.o)
                                        0x1d8 (size before relaxing)
 .eh_frame      0x0000000000023ca8      0x2d4 obj_cooja/mtype263.a(uip-ds6.o)
                                        0x2ec (size before relaxing)
 .eh_frame      0x0000000000023f7c       0x98 obj_cooja/mtype263.a(uip-nd6.o)
                                         0xb0 (size before relaxing)
 .eh_frame      0x0000000000024014       0xe0 obj_cooja/mtype263.a(uip-packetqueue)
                                         0xf8 (size before relaxing)
 .eh_frame      0x00000000000240f4       0x40 obj_cooja/mtype263.a(uip-udp-packet.)
                                         0x58 (size before relaxing)
 .eh_frame      0x0000000000024134      0x280 obj_cooja/mtype263.a(uip6.o)
                                        0x298 (size before relaxing)
 .eh_frame      0x00000000000243b4       0x40 obj_cooja/mtype263.a(simEnvChange.o)
                                         0x58 (size before relaxing)
 .eh_frame      0x00000000000243f4       0xc0 obj_cooja/mtype263.a(cooja_mt.o)
                                         0xd8 (size before relaxing)
 .eh_frame      0x00000000000244b4      0x128 obj_cooja/mtype263.a(cooja_mtarch.o)
                                        0x140 (size before relaxing)
 .eh_frame      0x00000000000245dc       0xc0 obj_cooja/mtype263.a(rtimer-arch.o)
                                         0xd8 (size before relaxing)
 .eh_frame      0x000000000002469c       0xa0 obj_cooja/mtype263.a(watchdog.o)
                                         0xb8 (size before relaxing)
 .eh_frame      0x000000000002473c      0x160 obj_cooja/mtype263.a(beep.o)
                                        0x178 (size before relaxing)
 .eh_frame      0x000000000002489c       0xa0 obj_cooja/mtype263.a(button-sensor.o)
                                         0xb8 (size before relaxing)
 .eh_frame      0x000000000002493c       0xa0 obj_cooja/mtype263.a(leds-arch.o)
                                         0xb8 (size before relaxing)
 .eh_frame      0x00000000000249dc       0x40 obj_cooja/mtype263.a(moteid.o)
                                         0x58 (size before relaxing)
 .eh_frame      0x0000000000024a1c       0xa0 obj_cooja/mtype263.a(pir-sensor.o)
                                         0xb8 (size before relaxing)
 .eh_frame      0x0000000000024abc      0x100 obj_cooja/mtype263.a(rs232.o)
                                        0x118 (size before relaxing)
 .eh_frame      0x0000000000024bbc       0xa0 obj_cooja/mtype263.a(vib-sensor.o)
                                         0xb8 (size before relaxing)
 .eh_frame      0x0000000000024c5c       0xc0 obj_cooja/mtype263.a(clock.o)
                                         0xd8 (size before relaxing)
 .eh_frame      0x0000000000024d1c      0x128 obj_cooja/mtype263.a(log.o)
                                        0x140 (size before relaxing)
 .eh_frame      0x0000000000024e44      0x168 obj_cooja/mtype263.a(cfs-cooja.o)
                                        0x180 (size before relaxing)
 .eh_frame      0x0000000000024fac      0x220 obj_cooja/mtype263.a(cooja-radio.o)
                                        0x238 (size before relaxing)
 .eh_frame      0x00000000000251cc       0xc4 obj_cooja/mtype263.a(sensors.o)
                                         0xdc (size before relaxing)
 .eh_frame      0x0000000000025290       0xa0 obj_cooja/mtype263.a(frame802154.o)
                                         0xb8 (size before relaxing)
 .eh_frame      0x0000000000025330       0xe0 obj_cooja/mtype263.a(rpl.o)
                                         0xf8 (size before relaxing)
 .eh_frame      0x0000000000025410      0x554 obj_cooja/mtype263.a(rpl-dag.o)
                                        0x56c (size before relaxing)
 .eh_frame      0x0000000000025964      0x224 obj_cooja/mtype263.a(rpl-icmp6.o)
                                        0x23c (size before relaxing)
 .eh_frame      0x0000000000025b88       0xe8 obj_cooja/mtype263.a(rpl-timers.o)
                                        0x100 (size before relaxing)
 .eh_frame      0x0000000000025c70       0xe4 obj_cooja/mtype263.a(rpl-mrhof.o)
                                         0xfc (size before relaxing)
 .eh_frame      0x0000000000025d54       0xec obj_cooja/mtype263.a(rpl-ext-header.)
                                        0x104 (size before relaxing)
 .eh_frame      0x0000000000025e40       0xa4 obj_cooja/mtype263.a(timer.o)
                                         0xbc (size before relaxing)
 .eh_frame      0x0000000000025ee4       0x60 obj_cooja/mtype263.a(rtimer.o)
                                         0x78 (size before relaxing)
 .eh_frame      0x0000000000025f44       0xc4 obj_cooja/mtype263.a(stimer.o)
                                         0xdc (size before relaxing)
 .eh_frame      0x0000000000026008      0x270 obj_cooja/mtype263.a(nbr-table.o)
                                        0x288 (size before relaxing)
 .eh_frame      0x0000000000026278       0x80 obj_cooja/mtype263.a(uip-icmp6.o)
                                         0x98 (size before relaxing)
 .eh_frame      0x00000000000262f8        0x4 /usr/lib/gcc/i686-linux-gnu/4.6/crtendS.o

.gcc_except_table
 *(.gcc_except_table .gcc_except_table.*)

.exception_ranges
 *(.exception_ranges .exception_ranges*)
                0x00000000000262fc                . = (ALIGN (0x1000) - ((0x1000 - .) & 0xfff))
                0x0000000000027f0c                . = DATA_SEGMENT_ALIGN (0x1000, 0x1000)

.eh_frame
 *(.eh_frame)

.gcc_except_table
 *(.gcc_except_table .gcc_except_table.*)

.exception_ranges
 *(.exception_ranges .exception_ranges*)

.tdata
 *(.tdata .tdata.* .gnu.linkonce.td.*)

.tbss
 *(.tbss .tbss.* .gnu.linkonce.tb.*)
 *(.tcommon)

.preinit_array
 *(.preinit_array)

.init_array
 *(SORT(.init_array.*) SORT(.ctors.*))
 *(.init_array)
 *(EXCLUDE_FILE(*crtend?.o *crtend.o *crtbegin?.o *crtbegin.o) .ctors)

.fini_array
 *(SORT(.fini_array.*) SORT(.dtors.*))
 *(.fini_array)
 *(EXCLUDE_FILE(*crtend?.o *crtend.o *crtbegin?.o *crtbegin.o) .dtors)

.ctors          0x0000000000027f0c        0x8
 *crtbegin.o(.ctors)
 *crtbegin?.o(.ctors)
 .ctors         0x0000000000027f0c        0x4 /usr/lib/gcc/i686-linux-gnu/4.6/crtbeginS.o
 *(EXCLUDE_FILE(*crtend?.o *crtend.o) .ctors)
 *(SORT(.ctors.*))
 *(.ctors)
 .ctors         0x0000000000027f10        0x4 /usr/lib/gcc/i686-linux-gnu/4.6/crtendS.o

.dtors          0x0000000000027f14        0x8
 *crtbegin.o(.dtors)
 *crtbegin?.o(.dtors)
 .dtors         0x0000000000027f14        0x4 /usr/lib/gcc/i686-linux-gnu/4.6/crtbeginS.o
 *(EXCLUDE_FILE(*crtend?.o *crtend.o) .dtors)
 *(SORT(.dtors.*))
 *(.dtors)
 .dtors         0x0000000000027f18        0x4 /usr/lib/gcc/i686-linux-gnu/4.6/crtendS.o
                0x0000000000027f18                __DTOR_END__

.jcr            0x0000000000027f1c        0x4
 *(.jcr)
 .jcr           0x0000000000027f1c        0x0 /usr/lib/gcc/i686-linux-gnu/4.6/crtbeginS.o
 .jcr           0x0000000000027f1c        0x4 /usr/lib/gcc/i686-linux-gnu/4.6/crtendS.o

.data.rel.ro
 *(.data.rel.ro.local* .gnu.linkonce.d.rel.ro.local.*)
 *(.data.rel.ro* .gnu.linkonce.d.rel.ro.*)

.dynamic        0x0000000000027f20       0xc8
 *(.dynamic)
 .dynamic       0x0000000000027f20       0xc8 /usr/lib/gcc/i686-linux-gnu/4.6/../../../i386-linux-gnu/crti.o
                0x0000000000027f20                _DYNAMIC

.got            0x0000000000027fe8        0xc
 *(.got)
 .got           0x0000000000027fe8        0xc /usr/lib/gcc/i686-linux-gnu/4.6/../../../i386-linux-gnu/crti.o
 *(.igot)
                0x0000000000027ff4                . = DATA_SEGMENT_RELRO_END (., 0xc)

.got.plt        0x0000000000027ff4       0x14
 *(.got.plt)
 .got.plt       0x0000000000027ff4       0x14 /usr/lib/gcc/i686-linux-gnu/4.6/../../../i386-linux-gnu/crti.o
                0x0000000000027ff4                _GLOBAL_OFFSET_TABLE_
 *(.igot.plt)

.data           0x0000000000028020      0x1d0
 *(.data .data.* .gnu.linkonce.d.*)
 .data          0x0000000000028020        0x0 /usr/lib/gcc/i686-linux-gnu/4.6/../../../i386-linux-gnu/crti.o
 .data          0x0000000000028020        0x0 /usr/lib/gcc/i686-linux-gnu/4.6/crtbeginS.o
 .data.rel      0x0000000000028020        0x4 /usr/lib/gcc/i686-linux-gnu/4.6/crtbeginS.o
                0x0000000000028020                __dso_handle
 .data          0x0000000000028024       0x10 room-controller.co
                0x0000000000028024                broadcast_process
 *fill*         0x0000000000028034        0xc 00
 .data          0x0000000000028040       0x40 obj_cooja/mtype263.o
                0x0000000000028040                simInterfaces
                0x0000000000028070                sensors
 .data          0x0000000000028080        0x0 obj_cooja/mtype263.a(rimeaddr.o)
 .data          0x0000000000028080        0x0 obj_cooja/mtype263.a(nullrdc.o)
 .data          0x0000000000028080        0x0 obj_cooja/mtype263.a(mac.o)
 .data          0x0000000000028080        0x0 obj_cooja/mtype263.a(framer-802154.o)
 .data          0x0000000000028080       0x28 obj_cooja/mtype263.a(csma.o)
 .data          0x00000000000280a8        0x0 obj_cooja/mtype263.a(process.o)
 .data          0x00000000000280a8        0x0 obj_cooja/mtype263.a(autostart.o)
 .data          0x00000000000280a8       0x10 obj_cooja/mtype263.a(serial-line.o)
                0x00000000000280a8                serial_line_process
 .data          0x00000000000280b8        0x0 obj_cooja/mtype263.a(memb.o)
 .data          0x00000000000280b8        0x0 obj_cooja/mtype263.a(list.o)
 .data          0x00000000000280b8       0x10 obj_cooja/mtype263.a(etimer.o)
                0x00000000000280b8                etimer_process
 .data          0x00000000000280c8       0x14 obj_cooja/mtype263.a(ctimer.o)
                0x00000000000280cc                ctimer_process
 .data          0x00000000000280dc        0x0 obj_cooja/mtype263.a(energest.o)
 .data          0x00000000000280dc        0x0 obj_cooja/mtype263.a(random.o)
 .data          0x00000000000280dc        0x0 obj_cooja/mtype263.a(ringbuf.o)
 .data          0x00000000000280dc        0x0 obj_cooja/mtype263.a(netstack.o)
 .data          0x00000000000280dc        0x4 obj_cooja/mtype263.a(packetbuf.o)
 .data          0x00000000000280e0       0x24 obj_cooja/mtype263.a(queuebuf.o)
 .data          0x0000000000028104        0x0 obj_cooja/mtype263.a(sicslowpan.o)
 .data          0x0000000000028104       0x10 obj_cooja/mtype263.a(simple-udp.o)
                0x0000000000028104                simple_udp_process
 .data          0x0000000000028114       0x10 obj_cooja/mtype263.a(tcpip.o)
                0x0000000000028114                tcpip_process
 .data          0x0000000000028124       0x34 obj_cooja/mtype263.a(uip-ds6-route.o)
 .data          0x0000000000028158       0x14 obj_cooja/mtype263.a(uip-ds6-nbr.o)
                0x0000000000028168                ds6_neighbors
 .data          0x000000000002816c        0x0 obj_cooja/mtype263.a(uip-ds6.o)
 .data          0x000000000002816c        0x0 obj_cooja/mtype263.a(uip-nd6.o)
 .data          0x000000000002816c        0xc obj_cooja/mtype263.a(uip-packetqueue)
 .data          0x0000000000028178        0x0 obj_cooja/mtype263.a(uip-udp-packet.)
 .data          0x0000000000028178        0x0 obj_cooja/mtype263.a(uip6.o)
 .data          0x0000000000028178        0x0 obj_cooja/mtype263.a(simEnvChange.o)
 .data          0x0000000000028178        0x0 obj_cooja/mtype263.a(cooja_mt.o)
 .data          0x0000000000028178        0x0 obj_cooja/mtype263.a(cooja_mtarch.o)
 .data          0x0000000000028178        0x0 obj_cooja/mtype263.a(rtimer-arch.o)
 .data          0x0000000000028178        0x0 obj_cooja/mtype263.a(watchdog.o)
 .data          0x0000000000028178        0x0 obj_cooja/mtype263.a(beep.o)
 .data          0x0000000000028178        0x0 obj_cooja/mtype263.a(button-sensor.o)
 .data          0x0000000000028178        0x0 obj_cooja/mtype263.a(leds-arch.o)
 .data          0x0000000000028178        0x0 obj_cooja/mtype263.a(moteid.o)
 .data          0x0000000000028178        0x0 obj_cooja/mtype263.a(pir-sensor.o)
 .data          0x0000000000028178        0x0 obj_cooja/mtype263.a(rs232.o)
 .data          0x0000000000028178        0x0 obj_cooja/mtype263.a(vib-sensor.o)
 .data          0x0000000000028178        0x0 obj_cooja/mtype263.a(clock.o)
 .data          0x0000000000028178        0x0 obj_cooja/mtype263.a(log.o)
 .data          0x0000000000028178        0x0 obj_cooja/mtype263.a(cfs-cooja.o)
 .data          0x0000000000028178       0x24 obj_cooja/mtype263.a(cooja-radio.o)
                0x0000000000028178                simRadioHWOn
                0x000000000002817c                simSignalStrength
                0x0000000000028180                simLastSignalStrength
                0x0000000000028184                simPower
                0x0000000000028188                simRadioChannel
                0x000000000002818c                cooja_radio_process
 .data          0x000000000002819c       0x10 obj_cooja/mtype263.a(sensors.o)
                0x000000000002819c                sensors_process
 .data          0x00000000000281ac        0x0 obj_cooja/mtype263.a(rimestats.o)
 .data          0x00000000000281ac        0x0 obj_cooja/mtype263.a(frame802154.o)
 .data          0x00000000000281ac        0x0 obj_cooja/mtype263.a(rpl.o)
 .data          0x00000000000281ac       0x14 obj_cooja/mtype263.a(rpl-dag.o)
 .data          0x00000000000281c0        0x1 obj_cooja/mtype263.a(rpl-icmp6.o)
 *fill*         0x00000000000281c1        0x3 00
 .data          0x00000000000281c4        0x0 obj_cooja/mtype263.a(rpl-timers.o)
 .data          0x00000000000281c4       0x1c obj_cooja/mtype263.a(rpl-mrhof.o)
                0x00000000000281c4                rpl_mrhof
 .data          0x00000000000281e0        0x0 obj_cooja/mtype263.a(rpl-ext-header.)
 .data          0x00000000000281e0        0x0 obj_cooja/mtype263.a(timer.o)
 .data          0x00000000000281e0        0x0 obj_cooja/mtype263.a(rtimer.o)
 .data          0x00000000000281e0        0x0 obj_cooja/mtype263.a(stimer.o)
 .data          0x00000000000281e0       0x10 obj_cooja/mtype263.a(nbr-table.o)
 .data          0x00000000000281f0        0x0 obj_cooja/mtype263.a(uip-icmp6.o)
 .data          0x00000000000281f0        0x0 /usr/lib/gcc/i686-linux-gnu/4.6/crtendS.o
 .data          0x00000000000281f0        0x0 /usr/lib/gcc/i686-linux-gnu/4.6/../../../i386-linux-gnu/crtn.o

.data1
 *(.data1)
                0x00000000000281f0                _edata = .
                0x00000000000281f0                PROVIDE (edata, .)
                0x00000000000281f0                __bss_start = .

.bss            0x0000000000028200     0xeeb4
 *(.dynbss)
 .dynbss        0x0000000000000000        0x0 /usr/lib/gcc/i686-linux-gnu/4.6/../../../i386-linux-gnu/crti.o
 *(.bss .bss.* .gnu.linkonce.b.*)
 .bss           0x0000000000028200        0x0 /usr/lib/gcc/i686-linux-gnu/4.6/../../../i386-linux-gnu/crti.o
 .bss           0x0000000000028200        0x8 /usr/lib/gcc/i686-linux-gnu/4.6/crtbeginS.o
 *fill*         0x0000000000028208       0x18 00
 .bss           0x0000000000028220       0x54 room-controller.co
 *fill*         0x0000000000028274        0xc 00
 .bss           0x0000000000028280     0x2030 obj_cooja/mtype263.o
 .bss           0x000000000002a2b0        0x0 obj_cooja/mtype263.a(rimeaddr.o)
 *fill*         0x000000000002a2b0       0x10 00
 .bss           0x000000000002a2c0       0x48 obj_cooja/mtype263.a(nullrdc.o)
 .bss           0x000000000002a308        0x0 obj_cooja/mtype263.a(mac.o)
 .bss           0x000000000002a308        0x2 obj_cooja/mtype263.a(framer-802154.o)
 *fill*         0x000000000002a30a       0x16 00
 .bss           0x000000000002a320      0x246 obj_cooja/mtype263.a(csma.o)
 *fill*         0x000000000002a566       0x1a 00
 .bss           0x000000000002a580      0x1b0 obj_cooja/mtype263.a(process.o)
                0x000000000002a580                process_list
                0x000000000002a584                process_current
 .bss           0x000000000002a730        0x0 obj_cooja/mtype263.a(autostart.o)
 *fill*         0x000000000002a730       0x10 00
 .bss           0x000000000002a740      0x141 obj_cooja/mtype263.a(serial-line.o)
 *fill*         0x000000000002a881        0x3 00
 .bss           0x000000000002a884        0x0 obj_cooja/mtype263.a(memb.o)
 .bss           0x000000000002a884        0x0 obj_cooja/mtype263.a(list.o)
 .bss           0x000000000002a884        0x8 obj_cooja/mtype263.a(etimer.o)
 .bss           0x000000000002a88c        0x5 obj_cooja/mtype263.a(ctimer.o)
 *fill*         0x000000000002a891        0x3 00
 .bss           0x000000000002a894        0x0 obj_cooja/mtype263.a(energest.o)
 .bss           0x000000000002a894        0x0 obj_cooja/mtype263.a(random.o)
 .bss           0x000000000002a894        0x0 obj_cooja/mtype263.a(ringbuf.o)
 .bss           0x000000000002a894        0x0 obj_cooja/mtype263.a(netstack.o)
 *fill*         0x000000000002a894        0xc 00
 .bss           0x000000000002a8a0       0xd8 obj_cooja/mtype263.a(packetbuf.o)
 *fill*         0x000000000002a978        0x8 00
 .bss           0x000000000002a980      0xe40 obj_cooja/mtype263.a(queuebuf.o)
 .bss           0x000000000002b7c0      0x140 obj_cooja/mtype263.a(sicslowpan.o)
 .bss           0x000000000002b900      0x110 obj_cooja/mtype263.a(simple-udp.o)
 *fill*         0x000000000002ba10       0x10 00
 .bss           0x000000000002ba20       0x6f obj_cooja/mtype263.a(tcpip.o)
 *fill*         0x000000000002ba8f       0x11 00
 .bss           0x000000000002baa0     0x39e8 obj_cooja/mtype263.a(uip-ds6-route.o)
 *fill*         0x000000000002f488       0x18 00
 .bss           0x000000000002f4a0     0x2ee0 obj_cooja/mtype263.a(uip-ds6-nbr.o)
 .bss           0x0000000000032380       0x20 obj_cooja/mtype263.a(uip-ds6.o)
 .bss           0x00000000000323a0       0x14 obj_cooja/mtype263.a(uip-nd6.o)
 *fill*         0x00000000000323b4        0xc 00
 .bss           0x00000000000323c0      0x258 obj_cooja/mtype263.a(uip-packetqueue)
 .bss           0x0000000000032618        0x0 obj_cooja/mtype263.a(uip-udp-packet.)
 .bss           0x0000000000032618        0xe obj_cooja/mtype263.a(uip6.o)
                0x0000000000032618                uip_ext_bitmap
                0x0000000000032619                uip_ext_len
                0x000000000003261a                uip_ext_opt_offset
 *fill*         0x0000000000032626        0x2 00
 .bss           0x0000000000032628        0x1 obj_cooja/mtype263.a(simEnvChange.o)
                0x0000000000032628                simDontFallAsleep
 *fill*         0x0000000000032629        0x3 00
 .bss           0x000000000003262c        0x4 obj_cooja/mtype263.a(cooja_mt.o)
 .bss           0x0000000000032630        0x4 obj_cooja/mtype263.a(cooja_mtarch.o)
 .bss           0x0000000000032634        0xc obj_cooja/mtype263.a(rtimer-arch.o)
 .bss           0x0000000000032640        0x0 obj_cooja/mtype263.a(watchdog.o)
 .bss           0x0000000000032640        0x0 obj_cooja/mtype263.a(beep.o)
 .bss           0x0000000000032640        0x8 obj_cooja/mtype263.a(button-sensor.o)
 .bss           0x0000000000032648        0x0 obj_cooja/mtype263.a(leds-arch.o)
 .bss           0x0000000000032648        0x0 obj_cooja/mtype263.a(moteid.o)
 .bss           0x0000000000032648        0x1 obj_cooja/mtype263.a(pir-sensor.o)
                0x0000000000032648                simPirValue
 *fill*         0x0000000000032649        0x3 00
 .bss           0x000000000003264c        0x4 obj_cooja/mtype263.a(rs232.o)
 .bss           0x0000000000032650        0x1 obj_cooja/mtype263.a(vib-sensor.o)
                0x0000000000032650                simVibValue
 *fill*         0x0000000000032651        0x3 00
 .bss           0x0000000000032654        0x0 obj_cooja/mtype263.a(clock.o)
 *fill*         0x0000000000032654        0xc 00
 .bss           0x0000000000032660      0x421 obj_cooja/mtype263.a(log.o)
 *fill*         0x0000000000032a81       0x1f 00
 .bss           0x0000000000032aa0      0xfbc obj_cooja/mtype263.a(cfs-cooja.o)
                0x0000000000032aa0                simCFSData
                0x0000000000033a40                simCFSChanged
                0x0000000000033a44                simCFSRead
                0x0000000000033a48                simCFSWritten
 .bss           0x0000000000033a5c       0x10 obj_cooja/mtype263.a(cooja-radio.o)
                0x0000000000033a5c                simReceiving
                0x0000000000033a60                simInSize
                0x0000000000033a64                simOutSize
 .bss           0x0000000000033a6c        0xc obj_cooja/mtype263.a(sensors.o)
 .bss           0x0000000000033a78        0x0 obj_cooja/mtype263.a(rimestats.o)
 .bss           0x0000000000033a78        0x0 obj_cooja/mtype263.a(frame802154.o)
 .bss           0x0000000000033a78        0x0 obj_cooja/mtype263.a(rpl.o)
 *fill*         0x0000000000033a78        0x8 00
 .bss           0x0000000000033a80     0x12c0 obj_cooja/mtype263.a(rpl-dag.o)
 .bss           0x0000000000034d40        0x0 obj_cooja/mtype263.a(rpl-icmp6.o)
 .bss           0x0000000000034d40       0x23 obj_cooja/mtype263.a(rpl-timers.o)
 *fill*         0x0000000000034d63        0x1 00
 .bss           0x0000000000034d64        0x0 obj_cooja/mtype263.a(rpl-mrhof.o)
 .bss           0x0000000000034d64        0x0 obj_cooja/mtype263.a(rpl-ext-header.)
 .bss           0x0000000000034d64        0x0 obj_cooja/mtype263.a(timer.o)
 .bss           0x0000000000034d64        0x4 obj_cooja/mtype263.a(rtimer.o)
 .bss           0x0000000000034d68        0x0 obj_cooja/mtype263.a(stimer.o)
 *fill*         0x0000000000034d68       0x18 00
 .bss           0x0000000000034d80     0x1214 obj_cooja/mtype263.a(nbr-table.o)
 .bss           0x0000000000035f94       0x10 obj_cooja/mtype263.a(uip-icmp6.o)
 .bss           0x0000000000035fa4        0x0 /usr/lib/gcc/i686-linux-gnu/4.6/crtendS.o
 .bss           0x0000000000035fa4        0x0 /usr/lib/gcc/i686-linux-gnu/4.6/../../../i386-linux-gnu/crtn.o
 *(COMMON)
 COMMON         0x0000000000035fa4        0x8 obj_cooja/mtype263.o
                0x0000000000035fa4                referenceVar
                0x0000000000035fa8                sensors_flags
 COMMON         0x0000000000035fac        0x8 obj_cooja/mtype263.a(rimeaddr.o)
                0x0000000000035fac                rimeaddr_node_addr
 COMMON         0x0000000000035fb4        0x1 obj_cooja/mtype263.a(serial-line.o)
                0x0000000000035fb4                serial_line_event_message
 *fill*         0x0000000000035fb5        0xb 00
 COMMON         0x0000000000035fc0       0x60 obj_cooja/mtype263.a(packetbuf.o)
                0x0000000000035fc0                packetbuf_attrs
                0x0000000000036000                packetbuf_addrs
 COMMON         0x0000000000036020        0x8 obj_cooja/mtype263.a(sicslowpan.o)
                0x0000000000036020                frag_sender
 COMMON         0x0000000000036028        0x1 obj_cooja/mtype263.a(tcpip.o)
                0x0000000000036028                tcpip_event
 *fill*         0x0000000000036029       0x17 00
 COMMON         0x0000000000036040      0x181 obj_cooja/mtype263.a(uip-ds6.o)
                0x0000000000036040                uip_ds6_prefix_list
                0x00000000000360a0                uip_ds6_timer_periodic
                0x00000000000360b0                uip_ds6_netif_addr_list_offset
                0x00000000000360c0                uip_ds6_if
                0x00000000000361b8                uip_ds6_timer_ra
                0x00000000000361c0                uip_ds6_addr_size
 *fill*         0x00000000000361c1       0x1f 00
 COMMON         0x00000000000361e0      0x3ac obj_cooja/mtype263.a(uip6.o)
                0x00000000000361e0                uip_slen
                0x00000000000361e2                uip_acc32
                0x0000000000036200                uip_conns
                0x00000000000362c0                uip_lladdr
                0x00000000000362c8                uip_appdata
                0x00000000000362cc                uip_flags
                0x00000000000362e0                uip_aligned_buf
                0x00000000000363d0                uip_listenports
                0x00000000000363e0                uip_len
                0x00000000000363e4                uip_sappdata
                0x0000000000036400                uip_udp_conns
                0x0000000000036580                uip_udp_conn
                0x0000000000036584                uip_next_hdr
                0x0000000000036588                uip_conn
 COMMON         0x000000000003658c        0xc obj_cooja/mtype263.a(simEnvChange.o)
                0x000000000003658c                simEtimerPending
                0x0000000000036590                simProcessRunValue
                0x0000000000036594                simNextExpirationTime
 COMMON         0x0000000000036598        0x1 obj_cooja/mtype263.a(beep.o)
                0x0000000000036598                simBeeped
 COMMON         0x0000000000036599        0x3 obj_cooja/mtype263.a(button-sensor.o)
                0x0000000000036599                simButtonIsActive
                0x000000000003659a                simButtonIsDown
                0x000000000003659b                simButtonChanged
 COMMON         0x000000000003659c        0x1 obj_cooja/mtype263.a(leds-arch.o)
                0x000000000003659c                simLedsValue
 *fill*         0x000000000003659d        0x3 00
 COMMON         0x00000000000365a0        0xc obj_cooja/mtype263.a(moteid.o)
                0x00000000000365a0                simRandomSeed
                0x00000000000365a4                simMoteIDChanged
                0x00000000000365a8                simMoteID
 COMMON         0x00000000000365ac        0x2 obj_cooja/mtype263.a(pir-sensor.o)
                0x00000000000365ac                simPirIsActive
                0x00000000000365ad                simPirChanged
 *fill*         0x00000000000365ae       0x12 00
 COMMON         0x00000000000365c0      0x420 obj_cooja/mtype263.a(rs232.o)
                0x00000000000365c0                simSerialReceivingFlag
                0x00000000000365c4                simSerialReceivingLength
                0x00000000000365e0                simSerialReceivingData
 COMMON         0x00000000000369e0        0x2 obj_cooja/mtype263.a(vib-sensor.o)
                0x00000000000369e0                simVibChanged
                0x00000000000369e1                simVibIsActive
 *fill*         0x00000000000369e2        0x2 00
 COMMON         0x00000000000369e4        0x4 obj_cooja/mtype263.a(clock.o)
                0x00000000000369e4                simCurrentTime
 *fill*         0x00000000000369e8       0x18 00
 COMMON         0x0000000000036a00      0x420 obj_cooja/mtype263.a(log.o)
                0x0000000000036a00                simLoggedLength
                0x0000000000036a04                simLoggedFlag
                0x0000000000036a20                simLoggedData
 COMMON         0x0000000000036e20      0x100 obj_cooja/mtype263.a(cooja-radio.o)
                0x0000000000036e20                simOutDataBuffer
                0x0000000000036ea0                simInDataBuffer
 COMMON         0x0000000000036f20        0x1 obj_cooja/mtype263.a(sensors.o)
                0x0000000000036f20                sensors_event
 *fill*         0x0000000000036f21       0x1f 00
 COMMON         0x0000000000036f40       0x48 obj_cooja/mtype263.a(rimestats.o)
                0x0000000000036f40                rimestats
 *fill*         0x0000000000036f88       0x18 00
 COMMON         0x0000000000036fa0      0x114 obj_cooja/mtype263.a(rpl-dag.o)
                0x0000000000036fa0                default_instance
                0x0000000000036fc0                instance_table
                0x00000000000370b4                . = ALIGN ((. != 0x0)?0x4:0x1)
                0x00000000000370b4                . = ALIGN (0x4)
                0x00000000000370b4                . = ALIGN (0x4)
                0x00000000000370b4                _end = .
                0x00000000000370b4                PROVIDE (end, .)
                0x00000000000370b4                . = DATA_SEGMENT_END (.)

.stab
 *(.stab)

.stabstr
 *(.stabstr)

.stab.excl
 *(.stab.excl)

.stab.exclstr
 *(.stab.exclstr)

.stab.index
 *(.stab.index)

.stab.indexstr
 *(.stab.indexstr)

.comment        0x0000000000000000       0x2a
 *(.comment)
 .comment       0x0000000000000000       0x2a /usr/lib/gcc/i686-linux-gnu/4.6/crtbeginS.o
                                         0x2b (size before relaxing)
 .comment       0x0000000000000000       0x2b room-controller.co
 .comment       0x0000000000000000       0x2b obj_cooja/mtype263.o
 .comment       0x0000000000000000       0x2b obj_cooja/mtype263.a(rimeaddr.o)
 .comment       0x0000000000000000       0x2b obj_cooja/mtype263.a(nullrdc.o)
 .comment       0x0000000000000000       0x2b obj_cooja/mtype263.a(mac.o)
 .comment       0x0000000000000000       0x2b obj_cooja/mtype263.a(framer-802154.o)
 .comment       0x0000000000000000       0x2b obj_cooja/mtype263.a(csma.o)
 .comment       0x0000000000000000       0x2b obj_cooja/mtype263.a(process.o)
 .comment       0x0000000000000000       0x2b obj_cooja/mtype263.a(autostart.o)
 .comment       0x0000000000000000       0x2b obj_cooja/mtype263.a(serial-line.o)
 .comment       0x0000000000000000       0x2b obj_cooja/mtype263.a(memb.o)
 .comment       0x0000000000000000       0x2b obj_cooja/mtype263.a(list.o)
 .comment       0x0000000000000000       0x2b obj_cooja/mtype263.a(etimer.o)
 .comment       0x0000000000000000       0x2b obj_cooja/mtype263.a(ctimer.o)
 .comment       0x0000000000000000       0x2b obj_cooja/mtype263.a(energest.o)
 .comment       0x0000000000000000       0x2b obj_cooja/mtype263.a(random.o)
 .comment       0x0000000000000000       0x2b obj_cooja/mtype263.a(ringbuf.o)
 .comment       0x0000000000000000       0x2b obj_cooja/mtype263.a(netstack.o)
 .comment       0x0000000000000000       0x2b obj_cooja/mtype263.a(packetbuf.o)
 .comment       0x0000000000000000       0x2b obj_cooja/mtype263.a(queuebuf.o)
 .comment       0x0000000000000000       0x2b obj_cooja/mtype263.a(sicslowpan.o)
 .comment       0x0000000000000000       0x2b obj_cooja/mtype263.a(simple-udp.o)
 .comment       0x0000000000000000       0x2b obj_cooja/mtype263.a(tcpip.o)
 .comment       0x0000000000000000       0x2b obj_cooja/mtype263.a(uip-ds6-route.o)
 .comment       0x0000000000000000       0x2b obj_cooja/mtype263.a(uip-ds6-nbr.o)
 .comment       0x0000000000000000       0x2b obj_cooja/mtype263.a(uip-ds6.o)
 .comment       0x0000000000000000       0x2b obj_cooja/mtype263.a(uip-nd6.o)
 .comment       0x0000000000000000       0x2b obj_cooja/mtype263.a(uip-packetqueue)
 .comment       0x0000000000000000       0x2b obj_cooja/mtype263.a(uip-udp-packet.)
 .comment       0x0000000000000000       0x2b obj_cooja/mtype263.a(uip6.o)
 .comment       0x0000000000000000       0x2b obj_cooja/mtype263.a(simEnvChange.o)
 .comment       0x0000000000000000       0x2b obj_cooja/mtype263.a(cooja_mt.o)
 .comment       0x0000000000000000       0x2b obj_cooja/mtype263.a(cooja_mtarch.o)
 .comment       0x0000000000000000       0x2b obj_cooja/mtype263.a(rtimer-arch.o)
 .comment       0x0000000000000000       0x2b obj_cooja/mtype263.a(watchdog.o)
 .comment       0x0000000000000000       0x2b obj_cooja/mtype263.a(beep.o)
 .comment       0x0000000000000000       0x2b obj_cooja/mtype263.a(button-sensor.o)
 .comment       0x0000000000000000       0x2b obj_cooja/mtype263.a(leds-arch.o)
 .comment       0x0000000000000000       0x2b obj_cooja/mtype263.a(moteid.o)
 .comment       0x0000000000000000       0x2b obj_cooja/mtype263.a(pir-sensor.o)
 .comment       0x0000000000000000       0x2b obj_cooja/mtype263.a(rs232.o)
 .comment       0x0000000000000000       0x2b obj_cooja/mtype263.a(vib-sensor.o)
 .comment       0x0000000000000000       0x2b obj_cooja/mtype263.a(clock.o)
 .comment       0x0000000000000000       0x2b obj_cooja/mtype263.a(log.o)
 .comment       0x0000000000000000       0x2b obj_cooja/mtype263.a(cfs-cooja.o)
 .comment       0x0000000000000000       0x2b obj_cooja/mtype263.a(cooja-radio.o)
 .comment       0x0000000000000000       0x2b obj_cooja/mtype263.a(sensors.o)
 .comment       0x0000000000000000       0x2b obj_cooja/mtype263.a(rimestats.o)
 .comment       0x0000000000000000       0x2b obj_cooja/mtype263.a(frame802154.o)
 .comment       0x0000000000000000       0x2b obj_cooja/mtype263.a(rpl.o)
 .comment       0x0000000000000000       0x2b obj_cooja/mtype263.a(rpl-dag.o)
 .comment       0x0000000000000000       0x2b obj_cooja/mtype263.a(rpl-icmp6.o)
 .comment       0x0000000000000000       0x2b obj_cooja/mtype263.a(rpl-timers.o)
 .comment       0x0000000000000000       0x2b obj_cooja/mtype263.a(rpl-mrhof.o)
 .comment       0x0000000000000000       0x2b obj_cooja/mtype263.a(rpl-ext-header.)
 .comment       0x0000000000000000       0x2b obj_cooja/mtype263.a(timer.o)
 .comment       0x0000000000000000       0x2b obj_cooja/mtype263.a(rtimer.o)
 .comment       0x0000000000000000       0x2b obj_cooja/mtype263.a(stimer.o)
 .comment       0x0000000000000000       0x2b obj_cooja/mtype263.a(nbr-table.o)
 .comment       0x0000000000000000       0x2b obj_cooja/mtype263.a(uip-icmp6.o)
 .comment       0x0000000000000000       0x2b /usr/lib/gcc/i686-linux-gnu/4.6/crtendS.o

.debug
 *(.debug)

.line
 *(.line)

.debug_srcinfo
 *(.debug_srcinfo)

.debug_sfnames
 *(.debug_sfnames)

.debug_aranges  0x0000000000000000     0x15f0
 *(.debug_aranges)
 .debug_aranges
                0x0000000000000000       0x28 room-controller.co
 .debug_aranges
                0x0000000000000028       0x68 obj_cooja/mtype263.o
 .debug_aranges
                0x0000000000000090       0x30 obj_cooja/mtype263.a(rimeaddr.o)
 .debug_aranges
                0x00000000000000c0       0x78 obj_cooja/mtype263.a(nullrdc.o)
 .debug_aranges
                0x0000000000000138       0x20 obj_cooja/mtype263.a(mac.o)
 .debug_aranges
                0x0000000000000158       0x50 obj_cooja/mtype263.a(framer-802154.o)
 .debug_aranges
                0x00000000000001a8       0x88 obj_cooja/mtype263.a(csma.o)
 .debug_aranges
                0x0000000000000230       0x88 obj_cooja/mtype263.a(process.o)
 .debug_aranges
                0x00000000000002b8       0x28 obj_cooja/mtype263.a(autostart.o)
 .debug_aranges
                0x00000000000002e0       0x30 obj_cooja/mtype263.a(serial-line.o)
 .debug_aranges
                0x0000000000000310       0x38 obj_cooja/mtype263.a(memb.o)
 .debug_aranges
                0x0000000000000348       0x78 obj_cooja/mtype263.a(list.o)
 .debug_aranges
                0x00000000000003c0       0x88 obj_cooja/mtype263.a(etimer.o)
 .debug_aranges
                0x0000000000000448       0x50 obj_cooja/mtype263.a(ctimer.o)
 .debug_aranges
                0x0000000000000498       0x38 obj_cooja/mtype263.a(energest.o)
 .debug_aranges
                0x00000000000004d0       0x28 obj_cooja/mtype263.a(random.o)
 .debug_aranges
                0x00000000000004f8       0x40 obj_cooja/mtype263.a(ringbuf.o)
 .debug_aranges
                0x0000000000000538       0x20 obj_cooja/mtype263.a(netstack.o)
 .debug_aranges
                0x0000000000000558       0xc0 obj_cooja/mtype263.a(packetbuf.o)
 .debug_aranges
                0x0000000000000618       0x70 obj_cooja/mtype263.a(queuebuf.o)
 .debug_aranges
                0x0000000000000688       0xa8 obj_cooja/mtype263.a(sicslowpan.o)
 .debug_aranges
                0x0000000000000730       0x48 obj_cooja/mtype263.a(simple-udp.o)
 .debug_aranges
                0x0000000000000778       0xb0 obj_cooja/mtype263.a(tcpip.o)
 .debug_aranges
                0x0000000000000828       0xb8 obj_cooja/mtype263.a(uip-ds6-route.o)
 .debug_aranges
                0x00000000000008e0       0x88 obj_cooja/mtype263.a(uip-ds6-nbr.o)
 .debug_aranges
                0x0000000000000968       0xc8 obj_cooja/mtype263.a(uip-ds6.o)
 .debug_aranges
                0x0000000000000a30       0x38 obj_cooja/mtype263.a(uip-nd6.o)
 .debug_aranges
                0x0000000000000a68       0x50 obj_cooja/mtype263.a(uip-packetqueue)
 .debug_aranges
                0x0000000000000ab8       0x28 obj_cooja/mtype263.a(uip-udp-packet.)
 .debug_aranges
                0x0000000000000ae0       0xb0 obj_cooja/mtype263.a(uip6.o)
 .debug_aranges
                0x0000000000000b90       0x28 obj_cooja/mtype263.a(simEnvChange.o)
 .debug_aranges
                0x0000000000000bb8       0x48 obj_cooja/mtype263.a(cooja_mt.o)
 .debug_aranges
                0x0000000000000c00       0x60 obj_cooja/mtype263.a(cooja_mtarch.o)
 .debug_aranges
                0x0000000000000c60       0x48 obj_cooja/mtype263.a(rtimer-arch.o)
 .debug_aranges
                0x0000000000000ca8       0x40 obj_cooja/mtype263.a(watchdog.o)
 .debug_aranges
                0x0000000000000ce8       0x70 obj_cooja/mtype263.a(beep.o)
 .debug_aranges
                0x0000000000000d58       0x40 obj_cooja/mtype263.a(button-sensor.o)
 .debug_aranges
                0x0000000000000d98       0x40 obj_cooja/mtype263.a(leds-arch.o)
 .debug_aranges
                0x0000000000000dd8       0x28 obj_cooja/mtype263.a(moteid.o)
 .debug_aranges
                0x0000000000000e00       0x40 obj_cooja/mtype263.a(pir-sensor.o)
 .debug_aranges
                0x0000000000000e40       0x58 obj_cooja/mtype263.a(rs232.o)
 .debug_aranges
                0x0000000000000e98       0x40 obj_cooja/mtype263.a(vib-sensor.o)
 .debug_aranges
                0x0000000000000ed8       0x48 obj_cooja/mtype263.a(clock.o)
 .debug_aranges
                0x0000000000000f20       0x60 obj_cooja/mtype263.a(log.o)
 .debug_aranges
                0x0000000000000f80       0x70 obj_cooja/mtype263.a(cfs-cooja.o)
 .debug_aranges
                0x0000000000000ff0       0xa0 obj_cooja/mtype263.a(cooja-radio.o)
 .debug_aranges
                0x0000000000001090       0x48 obj_cooja/mtype263.a(sensors.o)
 .debug_aranges
                0x00000000000010d8       0x40 obj_cooja/mtype263.a(frame802154.o)
 .debug_aranges
                0x0000000000001118       0x50 obj_cooja/mtype263.a(rpl.o)
 .debug_aranges
                0x0000000000001168      0x168 obj_cooja/mtype263.a(rpl-dag.o)
 .debug_aranges
                0x00000000000012d0       0x98 obj_cooja/mtype263.a(rpl-icmp6.o)
 .debug_aranges
                0x0000000000001368       0x50 obj_cooja/mtype263.a(rpl-timers.o)
 .debug_aranges
                0x00000000000013b8       0x50 obj_cooja/mtype263.a(rpl-mrhof.o)
 .debug_aranges
                0x0000000000001408       0x50 obj_cooja/mtype263.a(rpl-ext-header.)
 .debug_aranges
                0x0000000000001458       0x40 obj_cooja/mtype263.a(timer.o)
 .debug_aranges
                0x0000000000001498       0x30 obj_cooja/mtype263.a(rtimer.o)
 .debug_aranges
                0x00000000000014c8       0x48 obj_cooja/mtype263.a(stimer.o)
 .debug_aranges
                0x0000000000001510       0xb0 obj_cooja/mtype263.a(nbr-table.o)
 .debug_aranges
                0x00000000000015c0       0x30 obj_cooja/mtype263.a(uip-icmp6.o)

.debug_pubnames
 *(.debug_pubnames)

.debug_info     0x0000000000000000    0x19e9c
 *(.debug_info .gnu.linkonce.wi.*)
 .debug_info    0x0000000000000000      0x785 room-controller.co
 .debug_info    0x0000000000000785     0x3acc obj_cooja/mtype263.o
 .debug_info    0x0000000000004251      0x169 obj_cooja/mtype263.a(rimeaddr.o)
 .debug_info    0x00000000000043ba      0xc1d obj_cooja/mtype263.a(nullrdc.o)
 .debug_info    0x0000000000004fd7      0x114 obj_cooja/mtype263.a(mac.o)
 .debug_info    0x00000000000050eb      0x5f3 obj_cooja/mtype263.a(framer-802154.o)
 .debug_info    0x00000000000056de      0xb66 obj_cooja/mtype263.a(csma.o)
 .debug_info    0x0000000000006244      0x502 obj_cooja/mtype263.a(process.o)
 .debug_info    0x0000000000006746      0x1b9 obj_cooja/mtype263.a(autostart.o)
 .debug_info    0x00000000000068ff      0x2f6 obj_cooja/mtype263.a(serial-line.o)
 .debug_info    0x0000000000006bf5      0x1a5 obj_cooja/mtype263.a(memb.o)
 .debug_info    0x0000000000006d9a      0x323 obj_cooja/mtype263.a(list.o)
 .debug_info    0x00000000000070bd      0x4b5 obj_cooja/mtype263.a(etimer.o)
 .debug_info    0x0000000000007572      0x457 obj_cooja/mtype263.a(ctimer.o)
 .debug_info    0x00000000000079c9       0xf5 obj_cooja/mtype263.a(energest.o)
 .debug_info    0x0000000000007abe       0xb8 obj_cooja/mtype263.a(random.o)
 .debug_info    0x0000000000007b76      0x1c3 obj_cooja/mtype263.a(ringbuf.o)
 .debug_info    0x0000000000007d39      0x3ba obj_cooja/mtype263.a(netstack.o)
 .debug_info    0x00000000000080f3      0x5ba obj_cooja/mtype263.a(packetbuf.o)
 .debug_info    0x00000000000086ad      0x69e obj_cooja/mtype263.a(queuebuf.o)
 .debug_info    0x0000000000008d4b      0xe63 obj_cooja/mtype263.a(sicslowpan.o)
 .debug_info    0x0000000000009bae      0x77e obj_cooja/mtype263.a(simple-udp.o)
 .debug_info    0x000000000000a32c     0x1745 obj_cooja/mtype263.a(tcpip.o)
 .debug_info    0x000000000000ba71      0xcb3 obj_cooja/mtype263.a(uip-ds6-route.o)
 .debug_info    0x000000000000c724      0xb92 obj_cooja/mtype263.a(uip-ds6-nbr.o)
 .debug_info    0x000000000000d2b6      0xafa obj_cooja/mtype263.a(uip-ds6.o)
 .debug_info    0x000000000000ddb0      0x9e2 obj_cooja/mtype263.a(uip-nd6.o)
 .debug_info    0x000000000000e792      0x4c0 obj_cooja/mtype263.a(uip-packetqueue)
 .debug_info    0x000000000000ec52      0x398 obj_cooja/mtype263.a(uip-udp-packet.)
 .debug_info    0x000000000000efea      0xf2a obj_cooja/mtype263.a(uip6.o)
 .debug_info    0x000000000000ff14      0x168 obj_cooja/mtype263.a(simEnvChange.o)
 .debug_info    0x000000000001007c      0x1fd obj_cooja/mtype263.a(cooja_mt.o)
 .debug_info    0x0000000000010279      0x32b obj_cooja/mtype263.a(cooja_mtarch.o)
 .debug_info    0x00000000000105a4      0x186 obj_cooja/mtype263.a(rtimer-arch.o)
 .debug_info    0x000000000001072a       0x93 obj_cooja/mtype263.a(watchdog.o)
 .debug_info    0x00000000000107bd      0x221 obj_cooja/mtype263.a(beep.o)
 .debug_info    0x00000000000109de      0x27b obj_cooja/mtype263.a(button-sensor.o)
 .debug_info    0x0000000000010c59      0x148 obj_cooja/mtype263.a(leds-arch.o)
 .debug_info    0x0000000000010da1      0x116 obj_cooja/mtype263.a(moteid.o)
 .debug_info    0x0000000000010eb7      0x236 obj_cooja/mtype263.a(pir-sensor.o)
 .debug_info    0x00000000000110ed      0x252 obj_cooja/mtype263.a(rs232.o)
 .debug_info    0x000000000001133f      0x236 obj_cooja/mtype263.a(vib-sensor.o)
 .debug_info    0x0000000000011575      0x16c obj_cooja/mtype263.a(clock.o)
 .debug_info    0x00000000000116e1      0x2e3 obj_cooja/mtype263.a(log.o)
 .debug_info    0x00000000000119c4      0x416 obj_cooja/mtype263.a(cfs-cooja.o)
 .debug_info    0x0000000000011dda      0x983 obj_cooja/mtype263.a(cooja-radio.o)
 .debug_info    0x000000000001275d      0x398 obj_cooja/mtype263.a(sensors.o)
 .debug_info    0x0000000000012af5      0x146 obj_cooja/mtype263.a(rimestats.o)
 .debug_info    0x0000000000012c3b      0x46f obj_cooja/mtype263.a(frame802154.o)
 .debug_info    0x00000000000130aa      0xce9 obj_cooja/mtype263.a(rpl.o)
 .debug_info    0x0000000000013d93     0x1860 obj_cooja/mtype263.a(rpl-dag.o)
 .debug_info    0x00000000000155f3     0x1595 obj_cooja/mtype263.a(rpl-icmp6.o)
 .debug_info    0x0000000000016b88      0x9a9 obj_cooja/mtype263.a(rpl-timers.o)
 .debug_info    0x0000000000017531      0xa54 obj_cooja/mtype263.a(rpl-mrhof.o)
 .debug_info    0x0000000000017f85      0xce4 obj_cooja/mtype263.a(rpl-ext-header.)
 .debug_info    0x0000000000018c69      0x181 obj_cooja/mtype263.a(timer.o)
 .debug_info    0x0000000000018dea      0x1bb obj_cooja/mtype263.a(rtimer.o)
 .debug_info    0x0000000000018fa5      0x192 obj_cooja/mtype263.a(stimer.o)
 .debug_info    0x0000000000019137      0x847 obj_cooja/mtype263.a(nbr-table.o)
 .debug_info    0x000000000001997e      0x51e obj_cooja/mtype263.a(uip-icmp6.o)

.debug_abbrev   0x0000000000000000     0x56a2
 *(.debug_abbrev)
 .debug_abbrev  0x0000000000000000      0x1ad room-controller.co
 .debug_abbrev  0x00000000000001ad      0x28d obj_cooja/mtype263.o
 .debug_abbrev  0x000000000000043a       0xd4 obj_cooja/mtype263.a(rimeaddr.o)
 .debug_abbrev  0x000000000000050e      0x2c4 obj_cooja/mtype263.a(nullrdc.o)
 .debug_abbrev  0x00000000000007d2       0xa2 obj_cooja/mtype263.a(mac.o)
 .debug_abbrev  0x0000000000000874      0x1b9 obj_cooja/mtype263.a(framer-802154.o)
 .debug_abbrev  0x0000000000000a2d      0x2b5 obj_cooja/mtype263.a(csma.o)
 .debug_abbrev  0x0000000000000ce2      0x1fd obj_cooja/mtype263.a(process.o)
 .debug_abbrev  0x0000000000000edf       0xf7 obj_cooja/mtype263.a(autostart.o)
 .debug_abbrev  0x0000000000000fd6      0x190 obj_cooja/mtype263.a(serial-line.o)
 .debug_abbrev  0x0000000000001166       0xdd obj_cooja/mtype263.a(memb.o)
 .debug_abbrev  0x0000000000001243      0x11e obj_cooja/mtype263.a(list.o)
 .debug_abbrev  0x0000000000001361      0x1ce obj_cooja/mtype263.a(etimer.o)
 .debug_abbrev  0x000000000000152f      0x197 obj_cooja/mtype263.a(ctimer.o)
 .debug_abbrev  0x00000000000016c6       0x8f obj_cooja/mtype263.a(energest.o)
 .debug_abbrev  0x0000000000001755       0x69 obj_cooja/mtype263.a(random.o)
 .debug_abbrev  0x00000000000017be       0xd4 obj_cooja/mtype263.a(ringbuf.o)
 .debug_abbrev  0x0000000000001892       0xdc obj_cooja/mtype263.a(netstack.o)
 .debug_abbrev  0x000000000000196e      0x1c0 obj_cooja/mtype263.a(packetbuf.o)
 .debug_abbrev  0x0000000000001b2e      0x1b8 obj_cooja/mtype263.a(queuebuf.o)
 .debug_abbrev  0x0000000000001ce6      0x27e obj_cooja/mtype263.a(sicslowpan.o)
 .debug_abbrev  0x0000000000001f64      0x1ea obj_cooja/mtype263.a(simple-udp.o)
 .debug_abbrev  0x000000000000214e      0x2e9 obj_cooja/mtype263.a(tcpip.o)
 .debug_abbrev  0x0000000000002437      0x289 obj_cooja/mtype263.a(uip-ds6-route.o)
 .debug_abbrev  0x00000000000026c0      0x27d obj_cooja/mtype263.a(uip-ds6-nbr.o)
 .debug_abbrev  0x000000000000293d      0x1ea obj_cooja/mtype263.a(uip-ds6.o)
 .debug_abbrev  0x0000000000002b27      0x214 obj_cooja/mtype263.a(uip-nd6.o)
 .debug_abbrev  0x0000000000002d3b      0x17f obj_cooja/mtype263.a(uip-packetqueue)
 .debug_abbrev  0x0000000000002eba      0x18b obj_cooja/mtype263.a(uip-udp-packet.)
 .debug_abbrev  0x0000000000003045      0x25b obj_cooja/mtype263.a(uip6.o)
 .debug_abbrev  0x00000000000032a0       0xc2 obj_cooja/mtype263.a(simEnvChange.o)
 .debug_abbrev  0x0000000000003362       0xe2 obj_cooja/mtype263.a(cooja_mt.o)
 .debug_abbrev  0x0000000000003444      0x128 obj_cooja/mtype263.a(cooja_mtarch.o)
 .debug_abbrev  0x000000000000356c       0xab obj_cooja/mtype263.a(rtimer-arch.o)
 .debug_abbrev  0x0000000000003617       0x2b obj_cooja/mtype263.a(watchdog.o)
 .debug_abbrev  0x0000000000003642       0xdc obj_cooja/mtype263.a(beep.o)
 .debug_abbrev  0x000000000000371e       0xe8 obj_cooja/mtype263.a(button-sensor.o)
 .debug_abbrev  0x0000000000003806       0xd7 obj_cooja/mtype263.a(leds-arch.o)
 .debug_abbrev  0x00000000000038dd       0x85 obj_cooja/mtype263.a(moteid.o)
 .debug_abbrev  0x0000000000003962       0xcc obj_cooja/mtype263.a(pir-sensor.o)
 .debug_abbrev  0x0000000000003a2e      0x13c obj_cooja/mtype263.a(rs232.o)
 .debug_abbrev  0x0000000000003b6a       0xcc obj_cooja/mtype263.a(vib-sensor.o)
 .debug_abbrev  0x0000000000003c36       0xe4 obj_cooja/mtype263.a(clock.o)
 .debug_abbrev  0x0000000000003d1a      0x120 obj_cooja/mtype263.a(log.o)
 .debug_abbrev  0x0000000000003e3a      0x135 obj_cooja/mtype263.a(cfs-cooja.o)
 .debug_abbrev  0x0000000000003f6f      0x251 obj_cooja/mtype263.a(cooja-radio.o)
 .debug_abbrev  0x00000000000041c0      0x19e obj_cooja/mtype263.a(sensors.o)
 .debug_abbrev  0x000000000000435e       0x5d obj_cooja/mtype263.a(rimestats.o)
 .debug_abbrev  0x00000000000043bb      0x141 obj_cooja/mtype263.a(frame802154.o)
 .debug_abbrev  0x00000000000044fc      0x1b6 obj_cooja/mtype263.a(rpl.o)
 .debug_abbrev  0x00000000000046b2      0x2a9 obj_cooja/mtype263.a(rpl-dag.o)
 .debug_abbrev  0x000000000000495b      0x2af obj_cooja/mtype263.a(rpl-icmp6.o)
 .debug_abbrev  0x0000000000004c0a      0x17d obj_cooja/mtype263.a(rpl-timers.o)
 .debug_abbrev  0x0000000000004d87      0x19e obj_cooja/mtype263.a(rpl-mrhof.o)
 .debug_abbrev  0x0000000000004f25      0x1f2 obj_cooja/mtype263.a(rpl-ext-header.)
 .debug_abbrev  0x0000000000005117       0xd4 obj_cooja/mtype263.a(timer.o)
 .debug_abbrev  0x00000000000051eb      0x11d obj_cooja/mtype263.a(rtimer.o)
 .debug_abbrev  0x0000000000005308       0xb8 obj_cooja/mtype263.a(stimer.o)
 .debug_abbrev  0x00000000000053c0      0x1a9 obj_cooja/mtype263.a(nbr-table.o)
 .debug_abbrev  0x0000000000005569      0x139 obj_cooja/mtype263.a(uip-icmp6.o)

.debug_line     0x0000000000000000     0x9034
 *(.debug_line)
 .debug_line    0x0000000000000000      0x460 room-controller.co
 .debug_line    0x0000000000000460      0x558 obj_cooja/mtype263.o
 .debug_line    0x00000000000009b8       0xb9 obj_cooja/mtype263.a(rimeaddr.o)
 .debug_line    0x0000000000000a71      0x390 obj_cooja/mtype263.a(nullrdc.o)
 .debug_line    0x0000000000000e01       0x90 obj_cooja/mtype263.a(mac.o)
 .debug_line    0x0000000000000e91      0x20a obj_cooja/mtype263.a(framer-802154.o)
 .debug_line    0x000000000000109b      0x3ac obj_cooja/mtype263.a(csma.o)
 .debug_line    0x0000000000001447      0x254 obj_cooja/mtype263.a(process.o)
 .debug_line    0x000000000000169b       0xd4 obj_cooja/mtype263.a(autostart.o)
 .debug_line    0x000000000000176f      0x15e obj_cooja/mtype263.a(serial-line.o)
 .debug_line    0x00000000000018cd       0xf8 obj_cooja/mtype263.a(memb.o)
 .debug_line    0x00000000000019c5      0x1b4 obj_cooja/mtype263.a(list.o)
 .debug_line    0x0000000000001b79      0x276 obj_cooja/mtype263.a(etimer.o)
 .debug_line    0x0000000000001def      0x204 obj_cooja/mtype263.a(ctimer.o)
 .debug_line    0x0000000000001ff3       0x8d obj_cooja/mtype263.a(energest.o)
 .debug_line    0x0000000000002080       0x69 obj_cooja/mtype263.a(random.o)
 .debug_line    0x00000000000020e9       0xff obj_cooja/mtype263.a(ringbuf.o)
 .debug_line    0x00000000000021e8       0xec obj_cooja/mtype263.a(netstack.o)
 .debug_line    0x00000000000022d4      0x2be obj_cooja/mtype263.a(packetbuf.o)
 .debug_line    0x0000000000002592      0x1f6 obj_cooja/mtype263.a(queuebuf.o)
 .debug_line    0x0000000000002788      0x7b2 obj_cooja/mtype263.a(sicslowpan.o)
 .debug_line    0x0000000000002f3a      0x1ef obj_cooja/mtype263.a(simple-udp.o)
 .debug_line    0x0000000000003129      0x52d obj_cooja/mtype263.a(tcpip.o)
 .debug_line    0x0000000000003656      0x454 obj_cooja/mtype263.a(uip-ds6-route.o)
 .debug_line    0x0000000000003aaa      0x3b6 obj_cooja/mtype263.a(uip-ds6-nbr.o)
 .debug_line    0x0000000000003e60      0x46d obj_cooja/mtype263.a(uip-ds6.o)
 .debug_line    0x00000000000042cd      0x3d1 obj_cooja/mtype263.a(uip-nd6.o)
 .debug_line    0x000000000000469e      0x212 obj_cooja/mtype263.a(uip-packetqueue)
 .debug_line    0x00000000000048b0      0x118 obj_cooja/mtype263.a(uip-udp-packet.)
 .debug_line    0x00000000000049c8      0x95f obj_cooja/mtype263.a(uip6.o)
 .debug_line    0x0000000000005327      0x10f obj_cooja/mtype263.a(simEnvChange.o)
 .debug_line    0x0000000000005436      0x13c obj_cooja/mtype263.a(cooja_mt.o)
 .debug_line    0x0000000000005572      0x19e obj_cooja/mtype263.a(cooja_mtarch.o)
 .debug_line    0x0000000000005710      0x119 obj_cooja/mtype263.a(rtimer-arch.o)
 .debug_line    0x0000000000005829       0xa3 obj_cooja/mtype263.a(watchdog.o)
 .debug_line    0x00000000000058cc      0x183 obj_cooja/mtype263.a(beep.o)
 .debug_line    0x0000000000005a4f      0x1b0 obj_cooja/mtype263.a(button-sensor.o)
 .debug_line    0x0000000000005bff       0xe4 obj_cooja/mtype263.a(leds-arch.o)
 .debug_line    0x0000000000005ce3       0xb0 obj_cooja/mtype263.a(moteid.o)
 .debug_line    0x0000000000005d93      0x127 obj_cooja/mtype263.a(pir-sensor.o)
 .debug_line    0x0000000000005eba      0x14a obj_cooja/mtype263.a(rs232.o)
 .debug_line    0x0000000000006004      0x127 obj_cooja/mtype263.a(vib-sensor.o)
 .debug_line    0x000000000000612b      0x129 obj_cooja/mtype263.a(clock.o)
 .debug_line    0x0000000000006254      0x1a9 obj_cooja/mtype263.a(log.o)
 .debug_line    0x00000000000063fd      0x1be obj_cooja/mtype263.a(cfs-cooja.o)
 .debug_line    0x00000000000065bb      0x368 obj_cooja/mtype263.a(cooja-radio.o)
 .debug_line    0x0000000000006923      0x197 obj_cooja/mtype263.a(sensors.o)
 .debug_line    0x0000000000006aba       0x83 obj_cooja/mtype263.a(rimestats.o)
 .debug_line    0x0000000000006b3d      0x20f obj_cooja/mtype263.a(frame802154.o)
 .debug_line    0x0000000000006d4c      0x30d obj_cooja/mtype263.a(rpl.o)
 .debug_line    0x0000000000007059      0x94f obj_cooja/mtype263.a(rpl-dag.o)
 .debug_line    0x00000000000079a8      0x604 obj_cooja/mtype263.a(rpl-icmp6.o)
 .debug_line    0x0000000000007fac      0x27d obj_cooja/mtype263.a(rpl-timers.o)
 .debug_line    0x0000000000008229      0x2c9 obj_cooja/mtype263.a(rpl-mrhof.o)
 .debug_line    0x00000000000084f2      0x31e obj_cooja/mtype263.a(rpl-ext-header.)
 .debug_line    0x0000000000008810      0x108 obj_cooja/mtype263.a(timer.o)
 .debug_line    0x0000000000008918       0xf4 obj_cooja/mtype263.a(rtimer.o)
 .debug_line    0x0000000000008a0c       0xe3 obj_cooja/mtype263.a(stimer.o)
 .debug_line    0x0000000000008aef      0x37c obj_cooja/mtype263.a(nbr-table.o)
 .debug_line    0x0000000000008e6b      0x1c9 obj_cooja/mtype263.a(uip-icmp6.o)

.debug_frame
 *(.debug_frame)

.debug_str      0x0000000000000000     0x62f4
 *(.debug_str)
 .debug_str     0x0000000000000000      0x4a2 room-controller.co
                                        0x571 (size before relaxing)
 .debug_str     0x00000000000004a2     0x1857 obj_cooja/mtype263.o
                                       0x1aad (size before relaxing)
 .debug_str     0x0000000000001cf9       0x74 obj_cooja/mtype263.a(rimeaddr.o)
                                        0x147 (size before relaxing)
 .debug_str     0x0000000000001d6d      0x66f obj_cooja/mtype263.a(nullrdc.o)
                                        0x8cf (size before relaxing)
 .debug_str     0x00000000000023dc       0x46 obj_cooja/mtype263.a(mac.o)
                                        0x15f (size before relaxing)
 .debug_str     0x0000000000002422       0x7d obj_cooja/mtype263.a(framer-802154.o)
                                        0x624 (size before relaxing)
 .debug_str     0x000000000000249f      0x21b obj_cooja/mtype263.a(csma.o)
                                        0x7f3 (size before relaxing)
 .debug_str     0x00000000000026ba      0x16c obj_cooja/mtype263.a(process.o)
                                        0x289 (size before relaxing)
 .debug_str     0x0000000000002826       0x49 obj_cooja/mtype263.a(autostart.o)
                                        0x14a (size before relaxing)
 .debug_str     0x000000000000286f       0xc8 obj_cooja/mtype263.a(serial-line.o)
                                        0x209 (size before relaxing)
 .debug_str     0x0000000000002937       0x55 obj_cooja/mtype263.a(memb.o)
                                        0x10f (size before relaxing)
 .debug_str     0x000000000000298c       0xb7 obj_cooja/mtype263.a(list.o)
                                         0xfc (size before relaxing)
 .debug_str     0x0000000000002a43      0x142 obj_cooja/mtype263.a(etimer.o)
                                        0x29f (size before relaxing)
 .debug_str     0x0000000000002b85       0xbc obj_cooja/mtype263.a(ctimer.o)
                                        0x233 (size before relaxing)
 .debug_str     0x0000000000002c41       0x6b obj_cooja/mtype263.a(energest.o)
                                        0x115 (size before relaxing)
 .debug_str     0x0000000000002cac       0x44 obj_cooja/mtype263.a(random.o)
                                         0xf7 (size before relaxing)
 .debug_str     0x0000000000002cf0       0x6b obj_cooja/mtype263.a(ringbuf.o)
                                        0x147 (size before relaxing)
 .debug_str     0x0000000000002d5b       0x37 obj_cooja/mtype263.a(netstack.o)
                                        0x1f7 (size before relaxing)
 .debug_str     0x0000000000002d92      0x1e7 obj_cooja/mtype263.a(packetbuf.o)
                                        0x610 (size before relaxing)
 .debug_str     0x0000000000002f79      0x199 obj_cooja/mtype263.a(queuebuf.o)
                                        0x5de (size before relaxing)
 .debug_str     0x0000000000003112      0x3ca obj_cooja/mtype263.a(sicslowpan.o)
                                        0xa04 (size before relaxing)
 .debug_str     0x00000000000034dc       0xed obj_cooja/mtype263.a(simple-udp.o)
                                        0x3f8 (size before relaxing)
 .debug_str     0x00000000000035c9      0x655 obj_cooja/mtype263.a(tcpip.o)
                                        0xafc (size before relaxing)
 .debug_str     0x0000000000003c1e      0x364 obj_cooja/mtype263.a(uip-ds6-route.o)
                                        0x6fa (size before relaxing)
 .debug_str     0x0000000000003f82      0x1b7 obj_cooja/mtype263.a(uip-ds6-nbr.o)
                                        0x8ee (size before relaxing)
 .debug_str     0x0000000000004139      0x2fc obj_cooja/mtype263.a(uip-ds6.o)
                                        0x603 (size before relaxing)
 .debug_str     0x0000000000004435      0x103 obj_cooja/mtype263.a(uip-nd6.o)
                                        0x542 (size before relaxing)
 .debug_str     0x0000000000004538      0x100 obj_cooja/mtype263.a(uip-packetqueue)
                                        0x2ce (size before relaxing)
 .debug_str     0x0000000000004638       0x80 obj_cooja/mtype263.a(uip-udp-packet.)
                                        0x217 (size before relaxing)
 .debug_str     0x00000000000046b8      0x2e9 obj_cooja/mtype263.a(uip6.o)
                                        0x789 (size before relaxing)
 .debug_str     0x00000000000049a1       0x37 obj_cooja/mtype263.a(simEnvChange.o)
                                        0x185 (size before relaxing)
 .debug_str     0x00000000000049d8       0x85 obj_cooja/mtype263.a(cooja_mt.o)
                                        0x1af (size before relaxing)
 .debug_str     0x0000000000004a5d      0x104 obj_cooja/mtype263.a(cooja_mtarch.o)
                                        0x235 (size before relaxing)
 .debug_str     0x0000000000004b61       0xcc obj_cooja/mtype263.a(rtimer-arch.o)
                                        0x1d3 (size before relaxing)
 .debug_str     0x0000000000004c2d       0x80 obj_cooja/mtype263.a(watchdog.o)
                                         0xaa (size before relaxing)
 .debug_str     0x0000000000004cad       0xcd obj_cooja/mtype263.a(beep.o)
                                        0x1cc (size before relaxing)
 .debug_str     0x0000000000004d7a       0x79 obj_cooja/mtype263.a(button-sensor.o)
                                        0x1fc (size before relaxing)
 .debug_str     0x0000000000004df3       0x71 obj_cooja/mtype263.a(leds-arch.o)
                                        0x197 (size before relaxing)
 .debug_str     0x0000000000004e64       0x50 obj_cooja/mtype263.a(moteid.o)
                                        0x182 (size before relaxing)
 .debug_str     0x0000000000004eb4       0x5e obj_cooja/mtype263.a(pir-sensor.o)
                                        0x1b9 (size before relaxing)
 .debug_str     0x0000000000004f12       0xe4 obj_cooja/mtype263.a(rs232.o)
                                        0x222 (size before relaxing)
 .debug_str     0x0000000000004ff6       0x5e obj_cooja/mtype263.a(vib-sensor.o)
                                        0x1b9 (size before relaxing)
 .debug_str     0x0000000000005054       0x6b obj_cooja/mtype263.a(clock.o)
                                        0x1ae (size before relaxing)
 .debug_str     0x00000000000050bf       0xce obj_cooja/mtype263.a(log.o)
                                        0x23c (size before relaxing)
 .debug_str     0x000000000000518d      0x116 obj_cooja/mtype263.a(cfs-cooja.o)
                                        0x25a (size before relaxing)
 .debug_str     0x00000000000052a3      0x1a6 obj_cooja/mtype263.a(cooja-radio.o)
                                        0x59d (size before relaxing)
 .debug_str     0x0000000000005449       0x9c obj_cooja/mtype263.a(sensors.o)
                                        0x21e (size before relaxing)
 .debug_str     0x00000000000054e5       0x2f obj_cooja/mtype263.a(rimestats.o)
                                         0xfe (size before relaxing)
 .debug_str     0x0000000000005514       0xd1 obj_cooja/mtype263.a(frame802154.o)
                                        0x30d (size before relaxing)
 .debug_str     0x00000000000055e5       0xe1 obj_cooja/mtype263.a(rpl.o)
                                        0x717 (size before relaxing)
 .debug_str     0x00000000000056c6      0x43b obj_cooja/mtype263.a(rpl-dag.o)
                                        0xa77 (size before relaxing)
 .debug_str     0x0000000000005b01      0x123 obj_cooja/mtype263.a(rpl-icmp6.o)
                                        0xc73 (size before relaxing)
 .debug_str     0x0000000000005c24       0xd1 obj_cooja/mtype263.a(rpl-timers.o)
                                        0x573 (size before relaxing)
 .debug_str     0x0000000000005cf5       0xb4 obj_cooja/mtype263.a(rpl-mrhof.o)
                                        0x59d (size before relaxing)
 .debug_str     0x0000000000005da9      0x10b obj_cooja/mtype263.a(rpl-ext-header.)
                                        0x6ee (size before relaxing)
 .debug_str     0x0000000000005eb4       0x26 obj_cooja/mtype263.a(timer.o)
                                        0x134 (size before relaxing)
 .debug_str     0x0000000000005eda       0xa7 obj_cooja/mtype263.a(rtimer.o)
                                        0x18c (size before relaxing)
 .debug_str     0x0000000000005f81       0x7d obj_cooja/mtype263.a(stimer.o)
                                        0x138 (size before relaxing)
 .debug_str     0x0000000000005ffe      0x25b obj_cooja/mtype263.a(nbr-table.o)
                                        0x3c9 (size before relaxing)
 .debug_str     0x0000000000006259       0x9b obj_cooja/mtype263.a(uip-icmp6.o)
                                        0x355 (size before relaxing)

.debug_loc      0x0000000000000000     0x72c0
 *(.debug_loc)
 .debug_loc     0x0000000000000000       0x70 room-controller.co
 .debug_loc     0x0000000000000070      0x218 obj_cooja/mtype263.o
 .debug_loc     0x0000000000000288       0xa8 obj_cooja/mtype263.a(rimeaddr.o)
 .debug_loc     0x0000000000000330      0x2a0 obj_cooja/mtype263.a(nullrdc.o)
 .debug_loc     0x00000000000005d0       0x38 obj_cooja/mtype263.a(mac.o)
 .debug_loc     0x0000000000000608      0x188 obj_cooja/mtype263.a(framer-802154.o)
 .debug_loc     0x0000000000000790      0x310 obj_cooja/mtype263.a(csma.o)
 .debug_loc     0x0000000000000aa0      0x310 obj_cooja/mtype263.a(process.o)
 .debug_loc     0x0000000000000db0       0x70 obj_cooja/mtype263.a(autostart.o)
 .debug_loc     0x0000000000000e20       0xa8 obj_cooja/mtype263.a(serial-line.o)
 .debug_loc     0x0000000000000ec8       0xe0 obj_cooja/mtype263.a(memb.o)
 .debug_loc     0x0000000000000fa8      0x2a0 obj_cooja/mtype263.a(list.o)
 .debug_loc     0x0000000000001248      0x310 obj_cooja/mtype263.a(etimer.o)
 .debug_loc     0x0000000000001558      0x188 obj_cooja/mtype263.a(ctimer.o)
 .debug_loc     0x00000000000016e0       0xe0 obj_cooja/mtype263.a(energest.o)
 .debug_loc     0x00000000000017c0       0x70 obj_cooja/mtype263.a(random.o)
 .debug_loc     0x0000000000001830      0x118 obj_cooja/mtype263.a(ringbuf.o)
 .debug_loc     0x0000000000001948       0x38 obj_cooja/mtype263.a(netstack.o)
 .debug_loc     0x0000000000001980      0x498 obj_cooja/mtype263.a(packetbuf.o)
 .debug_loc     0x0000000000001e18      0x268 obj_cooja/mtype263.a(queuebuf.o)
 .debug_loc     0x0000000000002080      0x3f0 obj_cooja/mtype263.a(sicslowpan.o)
 .debug_loc     0x0000000000002470      0x150 obj_cooja/mtype263.a(simple-udp.o)
 .debug_loc     0x00000000000025c0      0x428 obj_cooja/mtype263.a(tcpip.o)
 .debug_loc     0x00000000000029e8      0x460 obj_cooja/mtype263.a(uip-ds6-route.o)
 .debug_loc     0x0000000000002e48      0x310 obj_cooja/mtype263.a(uip-ds6-nbr.o)
 .debug_loc     0x0000000000003158      0x4d0 obj_cooja/mtype263.a(uip-ds6.o)
 .debug_loc     0x0000000000003628       0xe0 obj_cooja/mtype263.a(uip-nd6.o)
 .debug_loc     0x0000000000003708      0x188 obj_cooja/mtype263.a(uip-packetqueue)
 .debug_loc     0x0000000000003890       0x70 obj_cooja/mtype263.a(uip-udp-packet.)
 .debug_loc     0x0000000000003900      0x428 obj_cooja/mtype263.a(uip6.o)
 .debug_loc     0x0000000000003d28       0x70 obj_cooja/mtype263.a(simEnvChange.o)
 .debug_loc     0x0000000000003d98      0x150 obj_cooja/mtype263.a(cooja_mt.o)
 .debug_loc     0x0000000000003ee8      0x1f8 obj_cooja/mtype263.a(cooja_mtarch.o)
 .debug_loc     0x00000000000040e0      0x150 obj_cooja/mtype263.a(rtimer-arch.o)
 .debug_loc     0x0000000000004230      0x118 obj_cooja/mtype263.a(watchdog.o)
 .debug_loc     0x0000000000004348      0x268 obj_cooja/mtype263.a(beep.o)
 .debug_loc     0x00000000000045b0      0x118 obj_cooja/mtype263.a(button-sensor.o)
 .debug_loc     0x00000000000046c8      0x118 obj_cooja/mtype263.a(leds-arch.o)
 .debug_loc     0x00000000000047e0       0x70 obj_cooja/mtype263.a(moteid.o)
 .debug_loc     0x0000000000004850      0x118 obj_cooja/mtype263.a(pir-sensor.o)
 .debug_loc     0x0000000000004968      0x1c0 obj_cooja/mtype263.a(rs232.o)
 .debug_loc     0x0000000000004b28      0x118 obj_cooja/mtype263.a(vib-sensor.o)
 .debug_loc     0x0000000000004c40      0x150 obj_cooja/mtype263.a(clock.o)
 .debug_loc     0x0000000000004d90      0x1f8 obj_cooja/mtype263.a(log.o)
 .debug_loc     0x0000000000004f88      0x268 obj_cooja/mtype263.a(cfs-cooja.o)
 .debug_loc     0x00000000000051f0      0x3b8 obj_cooja/mtype263.a(cooja-radio.o)
 .debug_loc     0x00000000000055a8      0x150 obj_cooja/mtype263.a(sensors.o)
 .debug_loc     0x00000000000056f8      0x118 obj_cooja/mtype263.a(frame802154.o)
 .debug_loc     0x0000000000005810      0x188 obj_cooja/mtype263.a(rpl.o)
 .debug_loc     0x0000000000005998      0x930 obj_cooja/mtype263.a(rpl-dag.o)
 .debug_loc     0x00000000000062c8      0x380 obj_cooja/mtype263.a(rpl-icmp6.o)
 .debug_loc     0x0000000000006648      0x188 obj_cooja/mtype263.a(rpl-timers.o)
 .debug_loc     0x00000000000067d0      0x188 obj_cooja/mtype263.a(rpl-mrhof.o)
 .debug_loc     0x0000000000006958      0x188 obj_cooja/mtype263.a(rpl-ext-header.)
 .debug_loc     0x0000000000006ae0      0x118 obj_cooja/mtype263.a(timer.o)
 .debug_loc     0x0000000000006bf8       0xa8 obj_cooja/mtype263.a(rtimer.o)
 .debug_loc     0x0000000000006ca0      0x150 obj_cooja/mtype263.a(stimer.o)
 .debug_loc     0x0000000000006df0      0x428 obj_cooja/mtype263.a(nbr-table.o)
 .debug_loc     0x0000000000007218       0xa8 obj_cooja/mtype263.a(uip-icmp6.o)

.debug_macinfo
 *(.debug_macinfo)

.debug_weaknames
 *(.debug_weaknames)

.debug_funcnames
 *(.debug_funcnames)

.debug_typenames
 *(.debug_typenames)

.debug_varnames
 *(.debug_varnames)

.debug_pubtypes
 *(.debug_pubtypes)

.debug_ranges   0x0000000000000000     0x1378
 *(.debug_ranges)
 .debug_ranges  0x0000000000000000       0x18 room-controller.co
 .debug_ranges  0x0000000000000018       0x58 obj_cooja/mtype263.o
 .debug_ranges  0x0000000000000070       0x20 obj_cooja/mtype263.a(rimeaddr.o)
 .debug_ranges  0x0000000000000090       0xb0 obj_cooja/mtype263.a(nullrdc.o)
 .debug_ranges  0x0000000000000140       0x10 obj_cooja/mtype263.a(mac.o)
 .debug_ranges  0x0000000000000150       0x40 obj_cooja/mtype263.a(framer-802154.o)
 .debug_ranges  0x0000000000000190       0x90 obj_cooja/mtype263.a(csma.o)
 .debug_ranges  0x0000000000000220       0x78 obj_cooja/mtype263.a(process.o)
 .debug_ranges  0x0000000000000298       0x18 obj_cooja/mtype263.a(autostart.o)
 .debug_ranges  0x00000000000002b0       0x38 obj_cooja/mtype263.a(serial-line.o)
 .debug_ranges  0x00000000000002e8       0x28 obj_cooja/mtype263.a(memb.o)
 .debug_ranges  0x0000000000000310       0x68 obj_cooja/mtype263.a(list.o)
 .debug_ranges  0x0000000000000378       0x90 obj_cooja/mtype263.a(etimer.o)
 .debug_ranges  0x0000000000000408       0x40 obj_cooja/mtype263.a(ctimer.o)
 .debug_ranges  0x0000000000000448       0x28 obj_cooja/mtype263.a(energest.o)
 .debug_ranges  0x0000000000000470       0x18 obj_cooja/mtype263.a(random.o)
 .debug_ranges  0x0000000000000488       0x30 obj_cooja/mtype263.a(ringbuf.o)
 .debug_ranges  0x00000000000004b8       0x10 obj_cooja/mtype263.a(netstack.o)
 .debug_ranges  0x00000000000004c8       0xb0 obj_cooja/mtype263.a(packetbuf.o)
 .debug_ranges  0x0000000000000578       0x60 obj_cooja/mtype263.a(queuebuf.o)
 .debug_ranges  0x00000000000005d8       0xe0 obj_cooja/mtype263.a(sicslowpan.o)
 .debug_ranges  0x00000000000006b8       0x38 obj_cooja/mtype263.a(simple-udp.o)
 .debug_ranges  0x00000000000006f0       0xa0 obj_cooja/mtype263.a(tcpip.o)
 .debug_ranges  0x0000000000000790       0xa8 obj_cooja/mtype263.a(uip-ds6-route.o)
 .debug_ranges  0x0000000000000838       0x78 obj_cooja/mtype263.a(uip-ds6-nbr.o)
 .debug_ranges  0x00000000000008b0       0xb8 obj_cooja/mtype263.a(uip-ds6.o)
 .debug_ranges  0x0000000000000968       0x58 obj_cooja/mtype263.a(uip-nd6.o)
 .debug_ranges  0x00000000000009c0       0x40 obj_cooja/mtype263.a(uip-packetqueue)
 .debug_ranges  0x0000000000000a00       0x18 obj_cooja/mtype263.a(uip-udp-packet.)
 .debug_ranges  0x0000000000000a18       0xa0 obj_cooja/mtype263.a(uip6.o)
 .debug_ranges  0x0000000000000ab8       0x18 obj_cooja/mtype263.a(simEnvChange.o)
 .debug_ranges  0x0000000000000ad0       0x38 obj_cooja/mtype263.a(cooja_mt.o)
 .debug_ranges  0x0000000000000b08       0x50 obj_cooja/mtype263.a(cooja_mtarch.o)
 .debug_ranges  0x0000000000000b58       0x38 obj_cooja/mtype263.a(rtimer-arch.o)
 .debug_ranges  0x0000000000000b90       0x30 obj_cooja/mtype263.a(watchdog.o)
 .debug_ranges  0x0000000000000bc0       0x60 obj_cooja/mtype263.a(beep.o)
 .debug_ranges  0x0000000000000c20       0x30 obj_cooja/mtype263.a(button-sensor.o)
 .debug_ranges  0x0000000000000c50       0x30 obj_cooja/mtype263.a(leds-arch.o)
 .debug_ranges  0x0000000000000c80       0x18 obj_cooja/mtype263.a(moteid.o)
 .debug_ranges  0x0000000000000c98       0x30 obj_cooja/mtype263.a(pir-sensor.o)
 .debug_ranges  0x0000000000000cc8       0x48 obj_cooja/mtype263.a(rs232.o)
 .debug_ranges  0x0000000000000d10       0x30 obj_cooja/mtype263.a(vib-sensor.o)
 .debug_ranges  0x0000000000000d40       0x38 obj_cooja/mtype263.a(clock.o)
 .debug_ranges  0x0000000000000d78       0x50 obj_cooja/mtype263.a(log.o)
 .debug_ranges  0x0000000000000dc8       0x60 obj_cooja/mtype263.a(cfs-cooja.o)
 .debug_ranges  0x0000000000000e28       0x90 obj_cooja/mtype263.a(cooja-radio.o)
 .debug_ranges  0x0000000000000eb8       0x38 obj_cooja/mtype263.a(sensors.o)
 .debug_ranges  0x0000000000000ef0       0x30 obj_cooja/mtype263.a(frame802154.o)
 .debug_ranges  0x0000000000000f20       0x40 obj_cooja/mtype263.a(rpl.o)
 .debug_ranges  0x0000000000000f60      0x158 obj_cooja/mtype263.a(rpl-dag.o)
 .debug_ranges  0x00000000000010b8       0x88 obj_cooja/mtype263.a(rpl-icmp6.o)
 .debug_ranges  0x0000000000001140       0x40 obj_cooja/mtype263.a(rpl-timers.o)
 .debug_ranges  0x0000000000001180       0x40 obj_cooja/mtype263.a(rpl-mrhof.o)
 .debug_ranges  0x00000000000011c0       0x40 obj_cooja/mtype263.a(rpl-ext-header.)
 .debug_ranges  0x0000000000001200       0x30 obj_cooja/mtype263.a(timer.o)
 .debug_ranges  0x0000000000001230       0x20 obj_cooja/mtype263.a(rtimer.o)
 .debug_ranges  0x0000000000001250       0x38 obj_cooja/mtype263.a(stimer.o)
 .debug_ranges  0x0000000000001288       0xd0 obj_cooja/mtype263.a(nbr-table.o)
 .debug_ranges  0x0000000000001358       0x20 obj_cooja/mtype263.a(uip-icmp6.o)

.gnu.attributes
 *(.gnu.attributes)

/DISCARD/
 *(.note.GNU-stack)
 *(.gnu_debuglink)
 *(.gnu.lto_*)
OUTPUT(obj_cooja/mtype263.cooja elf32-i386)
